Archive member included to satisfy reference by file (symbol)

app/libapp.a(main.c.obj)      (--whole-archive)
app/libapp.a(hid_report_desc.c.obj)
                              (--whole-archive)
app/libapp.a(battery_event.c.obj)
                              (--whole-archive)
app/libapp.a(ble_event.c.obj)
                              (--whole-archive)
app/libapp.a(button_event.c.obj)
                              (--whole-archive)
app/libapp.a(click_event.c.obj)
                              (--whole-archive)
app/libapp.a(selector_event.c.obj)
                              (--whole-archive)
app/libapp.a(hid_event.c.obj)
                              (--whole-archive)
app/libapp.a(led_event.c.obj)
                              (--whole-archive)
app/libapp.a(config_event.c.obj)
                              (--whole-archive)
app/libapp.a(module_state_event.c.obj)
                              (--whole-archive)
app/libapp.a(motion_event.c.obj)
                              (--whole-archive)
app/libapp.a(power_event.c.obj)
                              (--whole-archive)
app/libapp.a(wheel_event.c.obj)
                              (--whole-archive)
app/libapp.a(usb_event.c.obj)
                              (--whole-archive)
app/libapp.a(hids_event.c.obj)
                              (--whole-archive)
app/libapp.a(board.c.obj)     (--whole-archive)
app/libapp.a(motion_sensor.c.obj)
                              (--whole-archive)
app/libapp.a(buttons.c.obj)   (--whole-archive)
app/libapp.a(click_detector.c.obj)
                              (--whole-archive)
app/libapp.a(selector_hw.c.obj)
                              (--whole-archive)
app/libapp.a(wheel.c.obj)     (--whole-archive)
app/libapp.a(leds.c.obj)      (--whole-archive)
app/libapp.a(battery_charger.c.obj)
                              (--whole-archive)
app/libapp.a(battery_meas.c.obj)
                              (--whole-archive)
app/libapp.a(ble_state.c.obj)
                              (--whole-archive)
app/libapp.a(ble_bond.c.obj)  (--whole-archive)
app/libapp.a(ble_latency.c.obj)
                              (--whole-archive)
app/libapp.a(ble_adv.c.obj)   (--whole-archive)
app/libapp.a(config.c.obj)    (--whole-archive)
app/libapp.a(hid_state.c.obj)
                              (--whole-archive)
app/libapp.a(usb_state.c.obj)
                              (--whole-archive)
app/libapp.a(led_state.c.obj)
                              (--whole-archive)
app/libapp.a(led_stream.c.obj)
                              (--whole-archive)
app/libapp.a(power_manager.c.obj)
                              (--whole-archive)
app/libapp.a(watchdog.c.obj)  (--whole-archive)
app/libapp.a(bas.c.obj)       (--whole-archive)
app/libapp.a(dev_descr.c.obj)
                              (--whole-archive)
app/libapp.a(hids.c.obj)      (--whole-archive)
app/libapp.a(config_channel.c.obj)
                              (--whole-archive)
zephyr/libzephyr.a(crc32_sw.c.obj)
                              (--whole-archive)
zephyr/libzephyr.a(crc16_sw.c.obj)
                              (--whole-archive)
zephyr/libzephyr.a(crc8_sw.c.obj)
                              (--whole-archive)
zephyr/libzephyr.a(crc7_sw.c.obj)
                              (--whole-archive)
zephyr/libzephyr.a(dec.c.obj)
                              (--whole-archive)
zephyr/libzephyr.a(fdtable.c.obj)
                              (--whole-archive)
zephyr/libzephyr.a(hex.c.obj)
                              (--whole-archive)
zephyr/libzephyr.a(mempool.c.obj)
                              (--whole-archive)
zephyr/libzephyr.a(rb.c.obj)  (--whole-archive)
zephyr/libzephyr.a(sem.c.obj)
                              (--whole-archive)
zephyr/libzephyr.a(thread_entry.c.obj)
                              (--whole-archive)
zephyr/libzephyr.a(timeutil.c.obj)
                              (--whole-archive)
zephyr/libzephyr.a(work_q.c.obj)
                              (--whole-archive)
zephyr/libzephyr.a(printk.c.obj)
                              (--whole-archive)
zephyr/libzephyr.a(configs.c.obj)
                              (--whole-archive)
zephyr/libzephyr.a(validate_base_addresses.c.obj)
                              (--whole-archive)
zephyr/libzephyr.a(utils.c.obj)
                              (--whole-archive)
zephyr/libzephyr.a(ecc_dh.c.obj)
                              (--whole-archive)
zephyr/libzephyr.a(ecc.c.obj)
                              (--whole-archive)
zephyr/libzephyr.a(aes_decrypt.c.obj)
                              (--whole-archive)
zephyr/libzephyr.a(aes_encrypt.c.obj)
                              (--whole-archive)
zephyr/libzephyr.a(cmac_mode.c.obj)
                              (--whole-archive)
zephyr/libzephyr.a(dis.c.obj)
                              (--whole-archive)
zephyr/libzephyr.a(fcb_append.c.obj)
                              (--whole-archive)
zephyr/libzephyr.a(fcb.c.obj)
                              (--whole-archive)
zephyr/libzephyr.a(fcb_elem_info.c.obj)
                              (--whole-archive)
zephyr/libzephyr.a(fcb_getnext.c.obj)
                              (--whole-archive)
zephyr/libzephyr.a(fcb_rotate.c.obj)
                              (--whole-archive)
zephyr/libzephyr.a(fcb_walk.c.obj)
                              (--whole-archive)
zephyr/libzephyr.a(addr_utils.c.obj)
                              (--whole-archive)
zephyr/libzephyr.a(usb_device.c.obj)
                              (--whole-archive)
zephyr/libzephyr.a(usb_descriptor.c.obj)
                              (--whole-archive)
zephyr/libzephyr.a(flash_map.c.obj)
                              (--whole-archive)
zephyr/libzephyr.a(flash_map_default.c.obj)
                              (--whole-archive)
zephyr/libzephyr.a(settings_store.c.obj)
                              (--whole-archive)
zephyr/libzephyr.a(settings.c.obj)
                              (--whole-archive)
zephyr/libzephyr.a(settings_init.c.obj)
                              (--whole-archive)
zephyr/libzephyr.a(settings_line.c.obj)
                              (--whole-archive)
zephyr/libzephyr.a(settings_fcb.c.obj)
                              (--whole-archive)
zephyr/libzephyr.a(power.c.obj)
                              (--whole-archive)
zephyr/libzephyr.a(device.c.obj)
                              (--whole-archive)
zephyr/libzephyr.a(reboot.c.obj)
                              (--whole-archive)
zephyr/libzephyr.a(usb_dc_nrfx.c.obj)
                              (--whole-archive)
zephyr/libzephyr.a(wdt_nrfx.c.obj)
                              (--whole-archive)
zephyr/libzephyr.a(sys_clock_init.c.obj)
                              (--whole-archive)
zephyr/libzephyr.a(nrf_rtc_timer.c.obj)
                              (--whole-archive)
zephyr/libzephyr.a(gatt_pool.c.obj)
                              (--whole-archive)
zephyr/libzephyr.a(conn_ctx.c.obj)
                              (--whole-archive)
zephyr/libzephyr.a(hids.c.obj)
                              (--whole-archive)
zephyr/libzephyr.a(event_manager.c.obj)
                              (--whole-archive)
zephyr/libzephyr.a(nrf_cc310_platform_abort_zephyr.c.obj)
                              (--whole-archive)
zephyr/libzephyr.a(nrf_cc310_platform_mutex_zephyr.c.obj)
                              (--whole-archive)
zephyr/arch/common/libarch__common.a(isr_tables.c.obj)
                              (--whole-archive)
zephyr/arch/common/libarch__common.a(sw_isr_common.c.obj)
                              (--whole-archive)
zephyr/arch/arch/arm/core/libarch__arm__core.a(exc_exit.S.obj)
                              (--whole-archive)
zephyr/arch/arch/arm/core/libarch__arm__core.a(swap.c.obj)
                              (--whole-archive)
zephyr/arch/arch/arm/core/libarch__arm__core.a(swap_helper.S.obj)
                              (--whole-archive)
zephyr/arch/arch/arm/core/libarch__arm__core.a(irq_manage.c.obj)
                              (--whole-archive)
zephyr/arch/arch/arm/core/libarch__arm__core.a(thread.c.obj)
                              (--whole-archive)
zephyr/arch/arch/arm/core/libarch__arm__core.a(cpu_idle.S.obj)
                              (--whole-archive)
zephyr/arch/arch/arm/core/libarch__arm__core.a(fault_s.S.obj)
                              (--whole-archive)
zephyr/arch/arch/arm/core/libarch__arm__core.a(fatal.c.obj)
                              (--whole-archive)
zephyr/arch/arch/arm/core/libarch__arm__core.a(nmi.c.obj)
                              (--whole-archive)
zephyr/arch/arch/arm/core/libarch__arm__core.a(nmi_on_reset.S.obj)
                              (--whole-archive)
zephyr/arch/arch/arm/core/libarch__arm__core.a(prep_c.c.obj)
                              (--whole-archive)
zephyr/arch/arch/arm/core/libarch__arm__core.a(isr_wrapper.S.obj)
                              (--whole-archive)
zephyr/arch/arch/arm/core/cortex_m/libarch__arm__core__cortex_m.a(vector_table.S.obj)
                              (--whole-archive)
zephyr/arch/arch/arm/core/cortex_m/libarch__arm__core__cortex_m.a(reset.S.obj)
                              (--whole-archive)
zephyr/arch/arch/arm/core/cortex_m/libarch__arm__core__cortex_m.a(fault.c.obj)
                              (--whole-archive)
zephyr/arch/arch/arm/core/cortex_m/libarch__arm__core__cortex_m.a(scb.c.obj)
                              (--whole-archive)
zephyr/arch/arch/arm/core/cortex_m/libarch__arm__core__cortex_m.a(irq_init.c.obj)
                              (--whole-archive)
zephyr/arch/arch/arm/core/cortex_m/libarch__arm__core__cortex_m.a(thread_abort.c.obj)
                              (--whole-archive)
zephyr/arch/arch/arm/core/cortex_m/mpu/libarch__arm__core__cortex_m__mpu.a(arm_core_mpu.c.obj)
                              (--whole-archive)
zephyr/arch/arch/arm/core/cortex_m/mpu/libarch__arm__core__cortex_m__mpu.a(arm_mpu.c.obj)
                              (--whole-archive)
zephyr/lib/libc/minimal/liblib__libc__minimal.a(atoi.c.obj)
                              (--whole-archive)
zephyr/lib/libc/minimal/liblib__libc__minimal.a(strtol.c.obj)
                              (--whole-archive)
zephyr/lib/libc/minimal/liblib__libc__minimal.a(strtoul.c.obj)
                              (--whole-archive)
zephyr/lib/libc/minimal/liblib__libc__minimal.a(malloc.c.obj)
                              (--whole-archive)
zephyr/lib/libc/minimal/liblib__libc__minimal.a(bsearch.c.obj)
                              (--whole-archive)
zephyr/lib/libc/minimal/liblib__libc__minimal.a(exit.c.obj)
                              (--whole-archive)
zephyr/lib/libc/minimal/liblib__libc__minimal.a(strncasecmp.c.obj)
                              (--whole-archive)
zephyr/lib/libc/minimal/liblib__libc__minimal.a(strstr.c.obj)
                              (--whole-archive)
zephyr/lib/libc/minimal/liblib__libc__minimal.a(string.c.obj)
                              (--whole-archive)
zephyr/lib/libc/minimal/liblib__libc__minimal.a(strspn.c.obj)
                              (--whole-archive)
zephyr/lib/libc/minimal/liblib__libc__minimal.a(prf.c.obj)
                              (--whole-archive)
zephyr/lib/libc/minimal/liblib__libc__minimal.a(stdout_console.c.obj)
                              (--whole-archive)
zephyr/lib/libc/minimal/liblib__libc__minimal.a(sprintf.c.obj)
                              (--whole-archive)
zephyr/lib/libc/minimal/liblib__libc__minimal.a(fprintf.c.obj)
                              (--whole-archive)
zephyr/lib/libc/minimal/liblib__libc__minimal.a(gmtime.c.obj)
                              (--whole-archive)
zephyr/lib/posix/liblib__posix.a(pthread_common.c.obj)
                              (--whole-archive)
zephyr/soc/arm/nordic_nrf/nrf52/libsoc__arm__nordic_nrf__nrf52.a(soc.c.obj)
                              (--whole-archive)
zephyr/soc/arm/nordic_nrf/nrf52/libsoc__arm__nordic_nrf__nrf52.a(power.c.obj)
                              (--whole-archive)
zephyr/soc/arm/nordic_nrf/nrf52/libsoc__arm__nordic_nrf__nrf52.a(mpu_regions.c.obj)
                              (--whole-archive)
zephyr/subsys/bluetooth/common/libsubsys__bluetooth__common.a(dummy.c.obj)
                              (--whole-archive)
zephyr/subsys/bluetooth/common/libsubsys__bluetooth__common.a(log.c.obj)
                              (--whole-archive)
zephyr/subsys/bluetooth/common/libsubsys__bluetooth__common.a(rpa.c.obj)
                              (--whole-archive)
zephyr/subsys/bluetooth/host/libsubsys__bluetooth__host.a(hci_ecc.c.obj)
                              (--whole-archive)
zephyr/subsys/bluetooth/host/libsubsys__bluetooth__host.a(settings.c.obj)
                              (--whole-archive)
zephyr/subsys/bluetooth/host/libsubsys__bluetooth__host.a(uuid.c.obj)
                              (--whole-archive)
zephyr/subsys/bluetooth/host/libsubsys__bluetooth__host.a(hci_core.c.obj)
                              (--whole-archive)
zephyr/subsys/bluetooth/host/libsubsys__bluetooth__host.a(conn.c.obj)
                              (--whole-archive)
zephyr/subsys/bluetooth/host/libsubsys__bluetooth__host.a(l2cap.c.obj)
                              (--whole-archive)
zephyr/subsys/bluetooth/host/libsubsys__bluetooth__host.a(att.c.obj)
                              (--whole-archive)
zephyr/subsys/bluetooth/host/libsubsys__bluetooth__host.a(gatt.c.obj)
                              (--whole-archive)
zephyr/subsys/bluetooth/host/libsubsys__bluetooth__host.a(smp.c.obj)
                              (--whole-archive)
zephyr/subsys/bluetooth/host/libsubsys__bluetooth__host.a(keys.c.obj)
                              (--whole-archive)
zephyr/subsys/net/libsubsys__net.a(buf.c.obj)
                              (--whole-archive)
zephyr/subsys/usb/class/hid/libsubsys__usb__class__hid.a(core.c.obj)
                              (--whole-archive)
zephyr/subsys/random/libsubsys__random.a(rand32_entropy_device.c.obj)
                              (--whole-archive)
zephyr/drivers/adc/libdrivers__adc.a(adc_nrfx_saadc.c.obj)
                              (--whole-archive)
zephyr/drivers/gpio/libdrivers__gpio.a(gpio_nrfx.c.obj)
                              (--whole-archive)
zephyr/drivers/pwm/libdrivers__pwm.a(pwm_nrfx.c.obj)
                              (--whole-archive)
zephyr/drivers/sensor/qdec_nrfx/libdrivers__sensor__qdec_nrfx.a(qdec_nrfx.c.obj)
                              (--whole-archive)
zephyr/drivers/sensor/nrf5/libdrivers__sensor__nrf5.a(temp_nrf5.c.obj)
                              (--whole-archive)
zephyr/drivers/spi/libdrivers__spi.a(spi_nrfx_spim.c.obj)
                              (--whole-archive)
zephyr/drivers/flash/libdrivers__flash.a(flash_page_layout.c.obj)
                              (--whole-archive)
zephyr/drivers/flash/libdrivers__flash.a(flash_ll_nrfxlib.c.obj)
                              (--whole-archive)
zephyr/drivers/entropy/libdrivers__entropy.a(entropy_ll_nrfxlib.c.obj)
                              (--whole-archive)
zephyr/modules/nrf/lib/multithreading_lock/lib..__nrf__lib__multithreading_lock.a(multithreading_lock.c.obj)
                              (--whole-archive)
zephyr/modules/nrf/subsys/bluetooth/controller/lib..__nrf__subsys__bluetooth__controller.a(hci_driver.c.obj)
                              (--whole-archive)
zephyr/modules/nrf/subsys/bluetooth/controller/lib..__nrf__subsys__bluetooth__controller.a(crypto.c.obj)
                              (--whole-archive)
zephyr/modules/nrf/drivers/sensor/pmw3360/lib..__nrf__drivers__sensor__pmw3360.a(pmw3360.c.obj)
                              (--whole-archive)
zephyr/modules/nrf/drivers/sensor/pmw3360/lib..__nrf__drivers__sensor__pmw3360.a(pmw3360_priv.c.obj)
                              (--whole-archive)
zephyr/modules/nrf/drivers/clock_control/lib..__nrf__drivers__clock_control.a(clock_control_nrfxlib.c.obj)
                              (--whole-archive)
zephyr/modules/nrf/drivers/hw_cc310/lib..__nrf__drivers__hw_cc310.a(hw_cc310.c.obj)
                              (--whole-archive)
zephyr/modules/nordic/lib..__modules__hal__nordic.a(system_nrf52840.c.obj)
                              (--whole-archive)
zephyr/modules/nordic/lib..__modules__hal__nordic.a(nrfx_glue.c.obj)
                              (--whole-archive)
zephyr/modules/nordic/lib..__modules__hal__nordic.a(nrfx_nvmc.c.obj)
                              (--whole-archive)
zephyr/modules/nordic/lib..__modules__hal__nordic.a(nrfx_pwm.c.obj)
                              (--whole-archive)
zephyr/modules/nordic/lib..__modules__hal__nordic.a(nrfx_qdec.c.obj)
                              (--whole-archive)
zephyr/modules/nordic/lib..__modules__hal__nordic.a(nrfx_spim.c.obj)
                              (--whole-archive)
zephyr/modules/nordic/lib..__modules__hal__nordic.a(nrfx_systick.c.obj)
                              (--whole-archive)
zephyr/modules/nordic/lib..__modules__hal__nordic.a(nrfx_usbd.c.obj)
                              (--whole-archive)
zephyr/modules/nordic/lib..__modules__hal__nordic.a(nrfx_wdt.c.obj)
                              (--whole-archive)
zephyr/kernel/libkernel.a(device.c.obj)
                              app/libapp.a(board.c.obj) (z_impl_device_get_binding)
zephyr/kernel/libkernel.a(errno.c.obj)
                              zephyr/libzephyr.a(fdtable.c.obj) (z_impl_z_errno)
zephyr/kernel/libkernel.a(fatal.c.obj)
                              zephyr/arch/arch/arm/core/libarch__arm__core.a(fatal.c.obj) (z_fatal_error)
zephyr/kernel/libkernel.a(idle.c.obj)
                              zephyr/arch/arch/arm/core/libarch__arm__core.a(irq_manage.c.obj) (z_sys_power_save_idle_exit)
zephyr/kernel/libkernel.a(init.c.obj)
                              zephyr/arch/arch/arm/core/libarch__arm__core.a(prep_c.c.obj) (z_bss_zero)
zephyr/kernel/libkernel.a(mem_slab.c.obj)
                              zephyr/libzephyr.a(nrf_cc310_platform_mutex_zephyr.c.obj) (k_mem_slab_init)
zephyr/kernel/libkernel.a(mempool.c.obj)
                              zephyr/libzephyr.a(usb_dc_nrfx.c.obj) (k_mem_pool_alloc)
zephyr/kernel/libkernel.a(mutex.c.obj)
                              zephyr/libzephyr.a(fcb.c.obj) (z_impl_k_mutex_init)
zephyr/kernel/libkernel.a(queue.c.obj)
                              zephyr/libzephyr.a(work_q.c.obj) (z_impl_k_queue_init)
zephyr/kernel/libkernel.a(sched.c.obj)
                              zephyr/kernel/libkernel.a(mem_slab.c.obj) (z_reschedule)
zephyr/kernel/libkernel.a(sem.c.obj)
                              zephyr/libzephyr.a(sem.c.obj) (z_impl_k_sem_init)
zephyr/kernel/libkernel.a(system_work_q.c.obj)
                              app/libapp.a(buttons.c.obj) (k_sys_work_q)
zephyr/kernel/libkernel.a(thread.c.obj)
                              zephyr/libzephyr.a(usb_device.c.obj) (k_is_in_isr)
zephyr/kernel/libkernel.a(work_q.c.obj)
                              zephyr/libzephyr.a(usb_dc_nrfx.c.obj) (k_work_q_start)
zephyr/kernel/libkernel.a(timeout.c.obj)
                              zephyr/kernel/libkernel.a(sched.c.obj) (z_add_timeout)
zephyr/kernel/libkernel.a(timer.c.obj)
                              zephyr/drivers/adc/libdrivers__adc.a(adc_nrfx_saadc.c.obj) (z_timer_expiration_handler)
zephyr/kernel/libkernel.a(poll.c.obj)
                              zephyr/subsys/bluetooth/host/libsubsys__bluetooth__host.a(conn.c.obj) (k_poll_event_init)
c:/program files (x86)/gnu tools arm embedded/7 2018-q2-update/bin/../lib/gcc/arm-none-eabi/7.3.1/thumb/v7e-m\libgcc.a(_aeabi_ldivmod.o)
                              zephyr/libzephyr.a(timeutil.c.obj) (__aeabi_ldivmod)
c:/program files (x86)/gnu tools arm embedded/7 2018-q2-update/bin/../lib/gcc/arm-none-eabi/7.3.1/thumb/v7e-m\libgcc.a(_aeabi_uldivmod.o)
                              app/libapp.a(leds.c.obj) (__aeabi_uldivmod)
c:/program files (x86)/gnu tools arm embedded/7 2018-q2-update/bin/../lib/gcc/arm-none-eabi/7.3.1/thumb/v7e-m\libgcc.a(_udivmoddi4.o)
                              c:/program files (x86)/gnu tools arm embedded/7 2018-q2-update/bin/../lib/gcc/arm-none-eabi/7.3.1/thumb/v7e-m\libgcc.a(_aeabi_ldivmod.o) (__udivmoddi4)
c:/program files (x86)/gnu tools arm embedded/7 2018-q2-update/bin/../lib/gcc/arm-none-eabi/7.3.1/thumb/v7e-m\libgcc.a(_dvmd_tls.o)
                              c:/program files (x86)/gnu tools arm embedded/7 2018-q2-update/bin/../lib/gcc/arm-none-eabi/7.3.1/thumb/v7e-m\libgcc.a(_aeabi_ldivmod.o) (__aeabi_ldiv0)
C:/ncs.sojkk/nrfxlib/crypto/nrf_cc310_platform/lib/cortex-m4/soft-float/no-interrupts/libnrf_cc310_platform_0.9.1.a(nrf_cc310_platform.c.obj)
                              zephyr/modules/nrf/drivers/hw_cc310/lib..__nrf__drivers__hw_cc310.a(hw_cc310.c.obj) (nrf_cc310_platform_init_no_rng)
C:/ncs.sojkk/nrfxlib/crypto/nrf_cc310_platform/lib/cortex-m4/soft-float/no-interrupts/libnrf_cc310_platform_0.9.1.a(nrf_cc310_platform_abort.c.obj)
                              zephyr/libzephyr.a(nrf_cc310_platform_abort_zephyr.c.obj) (nrf_cc310_platform_set_abort)
C:/ncs.sojkk/nrfxlib/crypto/nrf_cc310_platform/lib/cortex-m4/soft-float/no-interrupts/libnrf_cc310_platform_0.9.1.a(nrf_cc310_platform_mutex.c.obj)
                              zephyr/libzephyr.a(nrf_cc310_platform_mutex_zephyr.c.obj) (nrf_cc310_platform_set_mutexes)
C:/ncs.sojkk/nrfxlib/crypto/nrf_cc310_platform/lib/cortex-m4/soft-float/no-interrupts/libnrf_cc310_platform_0.9.1.a(cc_lib.c.obj)
                              C:/ncs.sojkk/nrfxlib/crypto/nrf_cc310_platform/lib/cortex-m4/soft-float/no-interrupts/libnrf_cc310_platform_0.9.1.a(nrf_cc310_platform.c.obj) (CC_LibInitNoRng)
C:/ncs.sojkk/nrfxlib/crypto/nrf_cc310_platform/lib/cortex-m4/soft-float/no-interrupts/libnrf_cc310_platform_0.9.1.a(cc_hal.c.obj)
                              C:/ncs.sojkk/nrfxlib/crypto/nrf_cc310_platform/lib/cortex-m4/soft-float/no-interrupts/libnrf_cc310_platform_0.9.1.a(cc_lib.c.obj) (CC_HalInit)
C:/ncs.sojkk/nrfxlib/crypto/nrf_cc310_platform/lib/cortex-m4/soft-float/no-interrupts/libnrf_cc310_platform_0.9.1.a(cc_pal.c.obj)
                              C:/ncs.sojkk/nrfxlib/crypto/nrf_cc310_platform/lib/cortex-m4/soft-float/no-interrupts/libnrf_cc310_platform_0.9.1.a(cc_lib.c.obj) (CC_PalInit)
C:/ncs.sojkk/nrfxlib/crypto/nrf_cc310_platform/lib/cortex-m4/soft-float/no-interrupts/libnrf_cc310_platform_0.9.1.a(cc_pal_dma.c.obj)
                              C:/ncs.sojkk/nrfxlib/crypto/nrf_cc310_platform/lib/cortex-m4/soft-float/no-interrupts/libnrf_cc310_platform_0.9.1.a(cc_pal.c.obj) (CC_PalDmaInit)
C:/ncs.sojkk/nrfxlib/crypto/nrf_cc310_platform/lib/cortex-m4/soft-float/no-interrupts/libnrf_cc310_platform_0.9.1.a(cc_pal_interrupt_ctrl.c.obj)
                              C:/ncs.sojkk/nrfxlib/crypto/nrf_cc310_platform/lib/cortex-m4/soft-float/no-interrupts/libnrf_cc310_platform_0.9.1.a(cc_hal.c.obj) (CC_PalWaitInterruptRND)
C:/ncs.sojkk/nrfxlib/crypto/nrf_cc310_platform/lib/cortex-m4/soft-float/no-interrupts/libnrf_cc310_platform_0.9.1.a(cc_pal_mutex.c.obj)
                              C:/ncs.sojkk/nrfxlib/crypto/nrf_cc310_platform/lib/cortex-m4/soft-float/no-interrupts/libnrf_cc310_platform_0.9.1.a(cc_pal.c.obj) (CC_PalMutexCreate)
C:/ncs.sojkk/nrfxlib/crypto/nrf_cc310_platform/lib/cortex-m4/soft-float/no-interrupts/libnrf_cc310_platform_0.9.1.a(cc_pal_pm.c.obj)
                              C:/ncs.sojkk/nrfxlib/crypto/nrf_cc310_platform/lib/cortex-m4/soft-float/no-interrupts/libnrf_cc310_platform_0.9.1.a(cc_pal.c.obj) (CC_PalPowerSaveModeInit)
C:/ncs.sojkk/nrfxlib/crypto/nrf_cc310_platform/lib/cortex-m4/soft-float/no-interrupts/libnrf_cc310_platform_0.9.1.a(llf_rnd_trng90b.c.obj)
                              C:/ncs.sojkk/nrfxlib/crypto/nrf_cc310_platform/lib/cortex-m4/soft-float/no-interrupts/libnrf_cc310_platform_0.9.1.a(cc_lib.c.obj) (LLF_RND_RunTrngStartupTest)
C:/ncs.sojkk/nrfxlib/crypto/nrf_cc310_platform/lib/cortex-m4/soft-float/no-interrupts/libnrf_cc310_platform_0.9.1.a(cc_rng_plat.c.obj)
                              C:/ncs.sojkk/nrfxlib/crypto/nrf_cc310_platform/lib/cortex-m4/soft-float/no-interrupts/libnrf_cc310_platform_0.9.1.a(cc_lib.c.obj) (RNG_PLAT_SetUserRngParameters)
C:/ncs.sojkk/nrfxlib/crypto/nrf_cc310_platform/lib/cortex-m4/soft-float/no-interrupts/libnrf_cc310_platform_0.9.1.a(cc_pal_mem.c.obj)
                              C:/ncs.sojkk/nrfxlib/crypto/nrf_cc310_platform/lib/cortex-m4/soft-float/no-interrupts/libnrf_cc310_platform_0.9.1.a(llf_rnd_trng90b.c.obj) (CC_PalMemCopyPlat)
C:/ncs.sojkk/nrfxlib/crypto/nrf_cc310_platform/lib/cortex-m4/soft-float/no-interrupts/libnrf_cc310_platform_0.9.1.a(cc_pal_trng.c.obj)
                              C:/ncs.sojkk/nrfxlib/crypto/nrf_cc310_platform/lib/cortex-m4/soft-float/no-interrupts/libnrf_cc310_platform_0.9.1.a(cc_rng_plat.c.obj) (CC_PalTrngParamGet)
C:/ncs.sojkk/nrfxlib/crypto/nrf_cc310_platform/lib/cortex-m4/soft-float/no-interrupts/libnrf_cc310_platform_0.9.1.a(llf_rnd.c.obj)
                              C:/ncs.sojkk/nrfxlib/crypto/nrf_cc310_platform/lib/cortex-m4/soft-float/no-interrupts/libnrf_cc310_platform_0.9.1.a(llf_rnd_trng90b.c.obj) (LLF_RND_WaitRngInterrupt)
C:/ncs.sojkk/nrfxlib/ble_controller/lib/cortex-m4/soft-float/libble_controller_s140.a(libble_controller_debug_s140_soft_nrf52__obfuscated.elf)
                              zephyr/modules/nrf/drivers/clock_control/lib..__nrf__drivers__clock_control.a(clock_control_nrfxlib.c.obj) (ble_controller_hf_clock_is_running)

Discarded input sections

 .text          0x00000000        0x0 zephyr/CMakeFiles/zephyr_prebuilt.dir/misc/empty_file.c.obj
 .data          0x00000000        0x0 zephyr/CMakeFiles/zephyr_prebuilt.dir/misc/empty_file.c.obj
 .bss           0x00000000        0x0 zephyr/CMakeFiles/zephyr_prebuilt.dir/misc/empty_file.c.obj
 .debug_line    0x00000000        0x0 zephyr/CMakeFiles/zephyr_prebuilt.dir/misc/empty_file.c.obj
 .debug_str     0x00000000      0x18f zephyr/CMakeFiles/zephyr_prebuilt.dir/misc/empty_file.c.obj
 .comment       0x00000000       0x80 zephyr/CMakeFiles/zephyr_prebuilt.dir/misc/empty_file.c.obj
 .text          0x00000000        0x0 app/libapp.a(main.c.obj)
 .data          0x00000000        0x0 app/libapp.a(main.c.obj)
 .bss           0x00000000        0x0 app/libapp.a(main.c.obj)
 .text          0x00000000        0x0 app/libapp.a(hid_report_desc.c.obj)
 .data          0x00000000        0x0 app/libapp.a(hid_report_desc.c.obj)
 .bss           0x00000000        0x0 app/libapp.a(hid_report_desc.c.obj)
 .text          0x00000000        0x0 app/libapp.a(battery_event.c.obj)
 .data          0x00000000        0x0 app/libapp.a(battery_event.c.obj)
 .bss           0x00000000        0x0 app/libapp.a(battery_event.c.obj)
 .text          0x00000000        0x0 app/libapp.a(ble_event.c.obj)
 .data          0x00000000        0x0 app/libapp.a(ble_event.c.obj)
 .bss           0x00000000        0x0 app/libapp.a(ble_event.c.obj)
 .text          0x00000000        0x0 app/libapp.a(button_event.c.obj)
 .data          0x00000000        0x0 app/libapp.a(button_event.c.obj)
 .bss           0x00000000        0x0 app/libapp.a(button_event.c.obj)
 .text          0x00000000        0x0 app/libapp.a(click_event.c.obj)
 .data          0x00000000        0x0 app/libapp.a(click_event.c.obj)
 .bss           0x00000000        0x0 app/libapp.a(click_event.c.obj)
 .text          0x00000000        0x0 app/libapp.a(selector_event.c.obj)
 .data          0x00000000        0x0 app/libapp.a(selector_event.c.obj)
 .bss           0x00000000        0x0 app/libapp.a(selector_event.c.obj)
 .text          0x00000000        0x0 app/libapp.a(hid_event.c.obj)
 .data          0x00000000        0x0 app/libapp.a(hid_event.c.obj)
 .bss           0x00000000        0x0 app/libapp.a(hid_event.c.obj)
 .text          0x00000000        0x0 app/libapp.a(led_event.c.obj)
 .data          0x00000000        0x0 app/libapp.a(led_event.c.obj)
 .bss           0x00000000        0x0 app/libapp.a(led_event.c.obj)
 .text          0x00000000        0x0 app/libapp.a(config_event.c.obj)
 .data          0x00000000        0x0 app/libapp.a(config_event.c.obj)
 .bss           0x00000000        0x0 app/libapp.a(config_event.c.obj)
 .text          0x00000000        0x0 app/libapp.a(module_state_event.c.obj)
 .data          0x00000000        0x0 app/libapp.a(module_state_event.c.obj)
 .bss           0x00000000        0x0 app/libapp.a(module_state_event.c.obj)
 .text          0x00000000        0x0 app/libapp.a(motion_event.c.obj)
 .data          0x00000000        0x0 app/libapp.a(motion_event.c.obj)
 .bss           0x00000000        0x0 app/libapp.a(motion_event.c.obj)
 .text          0x00000000        0x0 app/libapp.a(power_event.c.obj)
 .data          0x00000000        0x0 app/libapp.a(power_event.c.obj)
 .bss           0x00000000        0x0 app/libapp.a(power_event.c.obj)
 .text          0x00000000        0x0 app/libapp.a(wheel_event.c.obj)
 .data          0x00000000        0x0 app/libapp.a(wheel_event.c.obj)
 .bss           0x00000000        0x0 app/libapp.a(wheel_event.c.obj)
 .text          0x00000000        0x0 app/libapp.a(usb_event.c.obj)
 .data          0x00000000        0x0 app/libapp.a(usb_event.c.obj)
 .bss           0x00000000        0x0 app/libapp.a(usb_event.c.obj)
 .text          0x00000000        0x0 app/libapp.a(hids_event.c.obj)
 .data          0x00000000        0x0 app/libapp.a(hids_event.c.obj)
 .bss           0x00000000        0x0 app/libapp.a(hids_event.c.obj)
 .text          0x00000000        0x0 app/libapp.a(board.c.obj)
 .data          0x00000000        0x0 app/libapp.a(board.c.obj)
 .bss           0x00000000        0x0 app/libapp.a(board.c.obj)
 .bss.port_state_def_include_once
                0x00000000        0x0 app/libapp.a(board.c.obj)
 .rodata.__module_board
                0x00000000        0x4 app/libapp.a(board.c.obj)
 .text          0x00000000        0x0 app/libapp.a(motion_sensor.c.obj)
 .data          0x00000000        0x0 app/libapp.a(motion_sensor.c.obj)
 .bss           0x00000000        0x0 app/libapp.a(motion_sensor.c.obj)
 .text          0x00000000        0x0 app/libapp.a(buttons.c.obj)
 .data          0x00000000        0x0 app/libapp.a(buttons.c.obj)
 .bss           0x00000000        0x0 app/libapp.a(buttons.c.obj)
 .bss.buttons_def_include_once
                0x00000000        0x0 app/libapp.a(buttons.c.obj)
 .rodata.__module_buttons
                0x00000000        0x4 app/libapp.a(buttons.c.obj)
 .text          0x00000000        0x0 app/libapp.a(click_detector.c.obj)
 .data          0x00000000        0x0 app/libapp.a(click_detector.c.obj)
 .bss           0x00000000        0x0 app/libapp.a(click_detector.c.obj)
 .bss.click_detector_def_include_once
                0x00000000        0x0 app/libapp.a(click_detector.c.obj)
 .rodata.__module_click_detector
                0x00000000        0x4 app/libapp.a(click_detector.c.obj)
 .text          0x00000000        0x0 app/libapp.a(selector_hw.c.obj)
 .data          0x00000000        0x0 app/libapp.a(selector_hw.c.obj)
 .bss           0x00000000        0x0 app/libapp.a(selector_hw.c.obj)
 .bss.selector_hw_def_include_once
                0x00000000        0x0 app/libapp.a(selector_hw.c.obj)
 .rodata.__module_selector_hw
                0x00000000        0x4 app/libapp.a(selector_hw.c.obj)
 .text          0x00000000        0x0 app/libapp.a(wheel.c.obj)
 .data          0x00000000        0x0 app/libapp.a(wheel.c.obj)
 .bss           0x00000000        0x0 app/libapp.a(wheel.c.obj)
 .rodata.__module_wheel
                0x00000000        0x4 app/libapp.a(wheel.c.obj)
 .text          0x00000000        0x0 app/libapp.a(leds.c.obj)
 .data          0x00000000        0x0 app/libapp.a(leds.c.obj)
 .bss           0x00000000        0x0 app/libapp.a(leds.c.obj)
 .bss.leds_def_include_once
                0x00000000        0x0 app/libapp.a(leds.c.obj)
 .text          0x00000000        0x0 app/libapp.a(battery_charger.c.obj)
 .data          0x00000000        0x0 app/libapp.a(battery_charger.c.obj)
 .bss           0x00000000        0x0 app/libapp.a(battery_charger.c.obj)
 .rodata.__module_battery_charger
                0x00000000        0x4 app/libapp.a(battery_charger.c.obj)
 .text          0x00000000        0x0 app/libapp.a(battery_meas.c.obj)
 .data          0x00000000        0x0 app/libapp.a(battery_meas.c.obj)
 .bss           0x00000000        0x0 app/libapp.a(battery_meas.c.obj)
 .bss.battery_def_include_once
                0x00000000        0x0 app/libapp.a(battery_meas.c.obj)
 .rodata.__module_battery_meas
                0x00000000        0x4 app/libapp.a(battery_meas.c.obj)
 .text          0x00000000        0x0 app/libapp.a(ble_state.c.obj)
 .data          0x00000000        0x0 app/libapp.a(ble_state.c.obj)
 .bss           0x00000000        0x0 app/libapp.a(ble_state.c.obj)
 .rodata.__event_subscriber_ble_peer_eventfinal_sub_redefined
                0x00000000        0x0 app/libapp.a(ble_state.c.obj)
 .text          0x00000000        0x0 app/libapp.a(ble_bond.c.obj)
 .data          0x00000000        0x0 app/libapp.a(ble_bond.c.obj)
 .bss           0x00000000        0x0 app/libapp.a(ble_bond.c.obj)
 .text          0x00000000        0x0 app/libapp.a(ble_latency.c.obj)
 .data          0x00000000        0x0 app/libapp.a(ble_latency.c.obj)
 .bss           0x00000000        0x0 app/libapp.a(ble_latency.c.obj)
 .rodata.__module_ble_latency
                0x00000000        0x4 app/libapp.a(ble_latency.c.obj)
 .text          0x00000000        0x0 app/libapp.a(ble_adv.c.obj)
 .data          0x00000000        0x0 app/libapp.a(ble_adv.c.obj)
 .bss           0x00000000        0x0 app/libapp.a(ble_adv.c.obj)
 .text          0x00000000        0x0 app/libapp.a(config.c.obj)
 .data          0x00000000        0x0 app/libapp.a(config.c.obj)
 .bss           0x00000000        0x0 app/libapp.a(config.c.obj)
 .text          0x00000000        0x0 app/libapp.a(hid_state.c.obj)
 .data          0x00000000        0x0 app/libapp.a(hid_state.c.obj)
 .bss           0x00000000        0x0 app/libapp.a(hid_state.c.obj)
 .bss.hid_keymap_def_include_once
                0x00000000        0x0 app/libapp.a(hid_state.c.obj)
 .rodata.__event_subscriber_button_eventfinal_sub_redefined
                0x00000000        0x0 app/libapp.a(hid_state.c.obj)
 .rodata.__module_hid_state
                0x00000000        0x4 app/libapp.a(hid_state.c.obj)
 .text          0x00000000        0x0 app/libapp.a(usb_state.c.obj)
 .data          0x00000000        0x0 app/libapp.a(usb_state.c.obj)
 .bss           0x00000000        0x0 app/libapp.a(usb_state.c.obj)
 .rodata.__module_usb_state
                0x00000000        0x4 app/libapp.a(usb_state.c.obj)
 .text          0x00000000        0x0 app/libapp.a(led_state.c.obj)
 .data          0x00000000        0x0 app/libapp.a(led_state.c.obj)
 .bss           0x00000000        0x0 app/libapp.a(led_state.c.obj)
 .bss.led_state_def_include_once
                0x00000000        0x0 app/libapp.a(led_state.c.obj)
 .rodata.__module_led_state
                0x00000000        0x4 app/libapp.a(led_state.c.obj)
 .text          0x00000000        0x0 app/libapp.a(led_stream.c.obj)
 .data          0x00000000        0x0 app/libapp.a(led_stream.c.obj)
 .bss           0x00000000        0x0 app/libapp.a(led_stream.c.obj)
 .rodata.__module_led_stream
                0x00000000        0x4 app/libapp.a(led_stream.c.obj)
 .text          0x00000000        0x0 app/libapp.a(power_manager.c.obj)
 .data          0x00000000        0x0 app/libapp.a(power_manager.c.obj)
 .bss           0x00000000        0x0 app/libapp.a(power_manager.c.obj)
 .rodata.__event_subscriber_power_down_eventfinal_sub_redefined
                0x00000000        0x0 app/libapp.a(power_manager.c.obj)
 .rodata.__module_power_manager
                0x00000000        0x4 app/libapp.a(power_manager.c.obj)
 .text          0x00000000        0x0 app/libapp.a(watchdog.c.obj)
 .data          0x00000000        0x0 app/libapp.a(watchdog.c.obj)
 .bss           0x00000000        0x0 app/libapp.a(watchdog.c.obj)
 .rodata.__module_watchdog
                0x00000000        0x4 app/libapp.a(watchdog.c.obj)
 .text          0x00000000        0x0 app/libapp.a(bas.c.obj)
 .data          0x00000000        0x0 app/libapp.a(bas.c.obj)
 .bss           0x00000000        0x0 app/libapp.a(bas.c.obj)
 .text          0x00000000        0x0 app/libapp.a(dev_descr.c.obj)
 .data          0x00000000        0x0 app/libapp.a(dev_descr.c.obj)
 .bss           0x00000000        0x0 app/libapp.a(dev_descr.c.obj)
 .bss.dev_descr_include_once
                0x00000000        0x0 app/libapp.a(dev_descr.c.obj)
 .text          0x00000000        0x0 app/libapp.a(hids.c.obj)
 .data          0x00000000        0x0 app/libapp.a(hids.c.obj)
 .bss           0x00000000        0x0 app/libapp.a(hids.c.obj)
 .text          0x00000000        0x0 app/libapp.a(config_channel.c.obj)
 .data          0x00000000        0x0 app/libapp.a(config_channel.c.obj)
 .bss           0x00000000        0x0 app/libapp.a(config_channel.c.obj)
 .text          0x00000000        0x0 zephyr/libzephyr.a(crc32_sw.c.obj)
 .data          0x00000000        0x0 zephyr/libzephyr.a(crc32_sw.c.obj)
 .bss           0x00000000        0x0 zephyr/libzephyr.a(crc32_sw.c.obj)
 .text.crc32_ieee
                0x00000000       0x3c zephyr/libzephyr.a(crc32_sw.c.obj)
 .text.crc32_ieee_update
                0x00000000       0x38 zephyr/libzephyr.a(crc32_sw.c.obj)
 .debug_info    0x00000000      0x1b2 zephyr/libzephyr.a(crc32_sw.c.obj)
 .debug_abbrev  0x00000000      0x103 zephyr/libzephyr.a(crc32_sw.c.obj)
 .debug_loc     0x00000000      0x299 zephyr/libzephyr.a(crc32_sw.c.obj)
 .debug_aranges
                0x00000000       0x28 zephyr/libzephyr.a(crc32_sw.c.obj)
 .debug_ranges  0x00000000       0xa8 zephyr/libzephyr.a(crc32_sw.c.obj)
 .debug_line    0x00000000      0x133 zephyr/libzephyr.a(crc32_sw.c.obj)
 .debug_str     0x00000000      0x247 zephyr/libzephyr.a(crc32_sw.c.obj)
 .comment       0x00000000       0x80 zephyr/libzephyr.a(crc32_sw.c.obj)
 .debug_frame   0x00000000       0x48 zephyr/libzephyr.a(crc32_sw.c.obj)
 .text          0x00000000        0x0 zephyr/libzephyr.a(crc16_sw.c.obj)
 .data          0x00000000        0x0 zephyr/libzephyr.a(crc16_sw.c.obj)
 .bss           0x00000000        0x0 zephyr/libzephyr.a(crc16_sw.c.obj)
 .text.crc16    0x00000000       0x68 zephyr/libzephyr.a(crc16_sw.c.obj)
 .text.crc16_ccitt
                0x00000000       0x2c zephyr/libzephyr.a(crc16_sw.c.obj)
 .text.crc16_itu_t
                0x00000000       0x2c zephyr/libzephyr.a(crc16_sw.c.obj)
 .debug_info    0x00000000      0x1f7 zephyr/libzephyr.a(crc16_sw.c.obj)
 .debug_abbrev  0x00000000       0xd1 zephyr/libzephyr.a(crc16_sw.c.obj)
 .debug_loc     0x00000000      0x26f zephyr/libzephyr.a(crc16_sw.c.obj)
 .debug_aranges
                0x00000000       0x30 zephyr/libzephyr.a(crc16_sw.c.obj)
 .debug_ranges  0x00000000       0x58 zephyr/libzephyr.a(crc16_sw.c.obj)
 .debug_line    0x00000000      0x183 zephyr/libzephyr.a(crc16_sw.c.obj)
 .debug_str     0x00000000      0x276 zephyr/libzephyr.a(crc16_sw.c.obj)
 .comment       0x00000000       0x80 zephyr/libzephyr.a(crc16_sw.c.obj)
 .debug_frame   0x00000000       0x5c zephyr/libzephyr.a(crc16_sw.c.obj)
 .text          0x00000000        0x0 zephyr/libzephyr.a(crc8_sw.c.obj)
 .data          0x00000000        0x0 zephyr/libzephyr.a(crc8_sw.c.obj)
 .bss           0x00000000        0x0 zephyr/libzephyr.a(crc8_sw.c.obj)
 .text          0x00000000        0x0 zephyr/libzephyr.a(crc7_sw.c.obj)
 .data          0x00000000        0x0 zephyr/libzephyr.a(crc7_sw.c.obj)
 .bss           0x00000000        0x0 zephyr/libzephyr.a(crc7_sw.c.obj)
 .text.crc7_be  0x00000000       0x20 zephyr/libzephyr.a(crc7_sw.c.obj)
 .debug_info    0x00000000       0xf4 zephyr/libzephyr.a(crc7_sw.c.obj)
 .debug_abbrev  0x00000000       0x97 zephyr/libzephyr.a(crc7_sw.c.obj)
 .debug_loc     0x00000000       0xab zephyr/libzephyr.a(crc7_sw.c.obj)
 .debug_aranges
                0x00000000       0x20 zephyr/libzephyr.a(crc7_sw.c.obj)
 .debug_ranges  0x00000000       0x28 zephyr/libzephyr.a(crc7_sw.c.obj)
 .debug_line    0x00000000       0xf9 zephyr/libzephyr.a(crc7_sw.c.obj)
 .debug_str     0x00000000      0x22b zephyr/libzephyr.a(crc7_sw.c.obj)
 .comment       0x00000000       0x80 zephyr/libzephyr.a(crc7_sw.c.obj)
 .debug_frame   0x00000000       0x20 zephyr/libzephyr.a(crc7_sw.c.obj)
 .text          0x00000000        0x0 zephyr/libzephyr.a(dec.c.obj)
 .data          0x00000000        0x0 zephyr/libzephyr.a(dec.c.obj)
 .bss           0x00000000        0x0 zephyr/libzephyr.a(dec.c.obj)
 .text          0x00000000        0x0 zephyr/libzephyr.a(fdtable.c.obj)
 .data          0x00000000        0x0 zephyr/libzephyr.a(fdtable.c.obj)
 .bss           0x00000000        0x0 zephyr/libzephyr.a(fdtable.c.obj)
 .text._check_fd
                0x00000000       0x24 zephyr/libzephyr.a(fdtable.c.obj)
 .text.z_get_fd_obj
                0x00000000       0x38 zephyr/libzephyr.a(fdtable.c.obj)
 .text.z_get_fd_obj_and_vtable
                0x00000000       0x28 zephyr/libzephyr.a(fdtable.c.obj)
 .text.z_reserve_fd
                0x00000000       0x4c zephyr/libzephyr.a(fdtable.c.obj)
 .text.z_finalize_fd
                0x00000000       0x18 zephyr/libzephyr.a(fdtable.c.obj)
 .text.z_free_fd
                0x00000000       0x10 zephyr/libzephyr.a(fdtable.c.obj)
 .text.z_alloc_fd
                0x00000000       0x20 zephyr/libzephyr.a(fdtable.c.obj)
 .bss.fdtable   0x00000000       0x20 zephyr/libzephyr.a(fdtable.c.obj)
 .text          0x00000000        0x0 zephyr/libzephyr.a(hex.c.obj)
 .data          0x00000000        0x0 zephyr/libzephyr.a(hex.c.obj)
 .bss           0x00000000        0x0 zephyr/libzephyr.a(hex.c.obj)
 .text.hex2char
                0x00000000       0x20 zephyr/libzephyr.a(hex.c.obj)
 .text.bin2hex  0x00000000       0x64 zephyr/libzephyr.a(hex.c.obj)
 .text          0x00000000        0x0 zephyr/libzephyr.a(mempool.c.obj)
 .data          0x00000000        0x0 zephyr/libzephyr.a(mempool.c.obj)
 .bss           0x00000000        0x0 zephyr/libzephyr.a(mempool.c.obj)
 .text.sys_mem_pool_alloc
                0x00000000       0x74 zephyr/libzephyr.a(mempool.c.obj)
 .text.sys_mem_pool_free
                0x00000000       0x4c zephyr/libzephyr.a(mempool.c.obj)
 .text.sys_mem_pool_try_expand_inplace
                0x00000000       0x2c zephyr/libzephyr.a(mempool.c.obj)
 .text          0x00000000        0x0 zephyr/libzephyr.a(rb.c.obj)
 .data          0x00000000        0x0 zephyr/libzephyr.a(rb.c.obj)
 .bss           0x00000000        0x0 zephyr/libzephyr.a(rb.c.obj)
 .text.rotate   0x00000000       0x98 zephyr/libzephyr.a(rb.c.obj)
 .text.fix_missing_black
                0x00000000      0x17c zephyr/libzephyr.a(rb.c.obj)
 .text.find_and_stack.isra.1
                0x00000000       0x3c zephyr/libzephyr.a(rb.c.obj)
 .text.z_rb_get_minmax
                0x00000000       0x20 zephyr/libzephyr.a(rb.c.obj)
 .text.rb_insert
                0x00000000      0x184 zephyr/libzephyr.a(rb.c.obj)
 .text.rb_remove
                0x00000000      0x21c zephyr/libzephyr.a(rb.c.obj)
 .text.z_rb_walk
                0x00000000       0x28 zephyr/libzephyr.a(rb.c.obj)
 .text.z_rb_child
                0x00000000       0x10 zephyr/libzephyr.a(rb.c.obj)
 .text.z_rb_is_black
                0x00000000        0x8 zephyr/libzephyr.a(rb.c.obj)
 .text.rb_contains
                0x00000000       0x38 zephyr/libzephyr.a(rb.c.obj)
 .text.z_rb_foreach_next
                0x00000000       0xc4 zephyr/libzephyr.a(rb.c.obj)
 .debug_info    0x00000000     0x217c zephyr/libzephyr.a(rb.c.obj)
 .debug_abbrev  0x00000000      0x4a4 zephyr/libzephyr.a(rb.c.obj)
 .debug_loc     0x00000000     0x1bf6 zephyr/libzephyr.a(rb.c.obj)
 .debug_aranges
                0x00000000       0x70 zephyr/libzephyr.a(rb.c.obj)
 .debug_ranges  0x00000000      0x568 zephyr/libzephyr.a(rb.c.obj)
 .debug_line    0x00000000      0x742 zephyr/libzephyr.a(rb.c.obj)
 .debug_str     0x00000000      0x870 zephyr/libzephyr.a(rb.c.obj)
 .comment       0x00000000       0x80 zephyr/libzephyr.a(rb.c.obj)
 .debug_frame   0x00000000      0x1c8 zephyr/libzephyr.a(rb.c.obj)
 .text          0x00000000        0x0 zephyr/libzephyr.a(sem.c.obj)
 .data          0x00000000        0x0 zephyr/libzephyr.a(sem.c.obj)
 .bss           0x00000000        0x0 zephyr/libzephyr.a(sem.c.obj)
 .text.sys_sem_init
                0x00000000        0xc zephyr/libzephyr.a(sem.c.obj)
 .text.sys_sem_give
                0x00000000        0xc zephyr/libzephyr.a(sem.c.obj)
 .text.sys_sem_take
                0x00000000       0x20 zephyr/libzephyr.a(sem.c.obj)
 .text.sys_sem_count_get
                0x00000000        0x4 zephyr/libzephyr.a(sem.c.obj)
 .debug_info    0x00000000      0xb07 zephyr/libzephyr.a(sem.c.obj)
 .debug_abbrev  0x00000000      0x222 zephyr/libzephyr.a(sem.c.obj)
 .debug_loc     0x00000000      0x1e1 zephyr/libzephyr.a(sem.c.obj)
 .debug_aranges
                0x00000000       0x38 zephyr/libzephyr.a(sem.c.obj)
 .debug_ranges  0x00000000       0x28 zephyr/libzephyr.a(sem.c.obj)
 .debug_line    0x00000000      0x3b6 zephyr/libzephyr.a(sem.c.obj)
 .debug_str     0x00000000      0x778 zephyr/libzephyr.a(sem.c.obj)
 .comment       0x00000000       0x80 zephyr/libzephyr.a(sem.c.obj)
 .debug_frame   0x00000000       0x68 zephyr/libzephyr.a(sem.c.obj)
 .text          0x00000000        0x0 zephyr/libzephyr.a(thread_entry.c.obj)
 .data          0x00000000        0x0 zephyr/libzephyr.a(thread_entry.c.obj)
 .bss           0x00000000        0x0 zephyr/libzephyr.a(thread_entry.c.obj)
 .text          0x00000000        0x0 zephyr/libzephyr.a(timeutil.c.obj)
 .data          0x00000000        0x0 zephyr/libzephyr.a(timeutil.c.obj)
 .bss           0x00000000        0x0 zephyr/libzephyr.a(timeutil.c.obj)
 .text.timeutil_timegm64
                0x00000000      0x1a8 zephyr/libzephyr.a(timeutil.c.obj)
 .text.timeutil_timegm
                0x00000000       0x1c zephyr/libzephyr.a(timeutil.c.obj)
 .debug_info    0x00000000      0x2b9 zephyr/libzephyr.a(timeutil.c.obj)
 .debug_abbrev  0x00000000      0x1b6 zephyr/libzephyr.a(timeutil.c.obj)
 .debug_loc     0x00000000      0x156 zephyr/libzephyr.a(timeutil.c.obj)
 .debug_aranges
                0x00000000       0x28 zephyr/libzephyr.a(timeutil.c.obj)
 .debug_ranges  0x00000000       0x60 zephyr/libzephyr.a(timeutil.c.obj)
 .debug_line    0x00000000      0x1c0 zephyr/libzephyr.a(timeutil.c.obj)
 .debug_str     0x00000000      0x2d0 zephyr/libzephyr.a(timeutil.c.obj)
 .comment       0x00000000       0x80 zephyr/libzephyr.a(timeutil.c.obj)
 .debug_frame   0x00000000       0x5c zephyr/libzephyr.a(timeutil.c.obj)
 .text          0x00000000        0x0 zephyr/libzephyr.a(work_q.c.obj)
 .data          0x00000000        0x0 zephyr/libzephyr.a(work_q.c.obj)
 .bss           0x00000000        0x0 zephyr/libzephyr.a(work_q.c.obj)
 .text.k_work_q_user_start
                0x00000000       0x54 zephyr/libzephyr.a(work_q.c.obj)
 .rodata.k_work_q_user_start.str1.4
                0x00000000        0xa zephyr/libzephyr.a(work_q.c.obj)
 .text          0x00000000        0x0 zephyr/libzephyr.a(printk.c.obj)
 .data          0x00000000        0x0 zephyr/libzephyr.a(printk.c.obj)
 .bss           0x00000000        0x0 zephyr/libzephyr.a(printk.c.obj)
 .text.__printk_hook_install
                0x00000000        0xc zephyr/libzephyr.a(printk.c.obj)
 .text.__printk_get_hook
                0x00000000        0xc zephyr/libzephyr.a(printk.c.obj)
 .text.vprintk  0x00000000       0x20 zephyr/libzephyr.a(printk.c.obj)
 .text.z_impl_k_str_out
                0x00000000       0x20 zephyr/libzephyr.a(printk.c.obj)
 .text          0x00000000        0x0 zephyr/libzephyr.a(configs.c.obj)
 .data          0x00000000        0x0 zephyr/libzephyr.a(configs.c.obj)
 .bss           0x00000000        0x0 zephyr/libzephyr.a(configs.c.obj)
 .text          0x00000000        0x0 zephyr/libzephyr.a(validate_base_addresses.c.obj)
 .data          0x00000000        0x0 zephyr/libzephyr.a(validate_base_addresses.c.obj)
 .bss           0x00000000        0x0 zephyr/libzephyr.a(validate_base_addresses.c.obj)
 .debug_info    0x00000000      0x81b zephyr/libzephyr.a(validate_base_addresses.c.obj)
 .debug_abbrev  0x00000000      0x157 zephyr/libzephyr.a(validate_base_addresses.c.obj)
 .debug_aranges
                0x00000000       0x18 zephyr/libzephyr.a(validate_base_addresses.c.obj)
 .debug_line    0x00000000      0x2d5 zephyr/libzephyr.a(validate_base_addresses.c.obj)
 .debug_str     0x00000000      0x6a4 zephyr/libzephyr.a(validate_base_addresses.c.obj)
 .comment       0x00000000       0x80 zephyr/libzephyr.a(validate_base_addresses.c.obj)
 .text          0x00000000        0x0 zephyr/libzephyr.a(utils.c.obj)
 .data          0x00000000        0x0 zephyr/libzephyr.a(utils.c.obj)
 .bss           0x00000000        0x0 zephyr/libzephyr.a(utils.c.obj)
 .text._compare
                0x00000000       0x2c zephyr/libzephyr.a(utils.c.obj)
 .text          0x00000000        0x0 zephyr/libzephyr.a(ecc_dh.c.obj)
 .data          0x00000000        0x0 zephyr/libzephyr.a(ecc_dh.c.obj)
 .bss           0x00000000        0x0 zephyr/libzephyr.a(ecc_dh.c.obj)
 .text.uECC_make_key_with_d
                0x00000000       0x68 zephyr/libzephyr.a(ecc_dh.c.obj)
 .text          0x00000000        0x0 zephyr/libzephyr.a(ecc.c.obj)
 .data          0x00000000        0x0 zephyr/libzephyr.a(ecc.c.obj)
 .bss           0x00000000        0x0 zephyr/libzephyr.a(ecc.c.obj)
 .text.uECC_set_rng
                0x00000000        0xc zephyr/libzephyr.a(ecc.c.obj)
 .text.uECC_curve_private_key_size
                0x00000000       0x10 zephyr/libzephyr.a(ecc.c.obj)
 .text.uECC_curve_public_key_size
                0x00000000        0x8 zephyr/libzephyr.a(ecc.c.obj)
 .text.uECC_vli_clear
                0x00000000       0x1c zephyr/libzephyr.a(ecc.c.obj)
 .text.uECC_vli_isZero
                0x00000000       0x28 zephyr/libzephyr.a(ecc.c.obj)
 .text.uECC_vli_testBit
                0x00000000       0x14 zephyr/libzephyr.a(ecc.c.obj)
 .text.uECC_vli_set
                0x00000000       0x20 zephyr/libzephyr.a(ecc.c.obj)
 .text.uECC_vli_cmp_unsafe
                0x00000000       0x58 zephyr/libzephyr.a(ecc.c.obj)
 .text.uECC_vli_equal
                0x00000000       0x38 zephyr/libzephyr.a(ecc.c.obj)
 .text.cond_set
                0x00000000       0x10 zephyr/libzephyr.a(ecc.c.obj)
 .text.uECC_vli_sub
                0x00000000       0x40 zephyr/libzephyr.a(ecc.c.obj)
 .text.uECC_vli_cmp
                0x00000000       0x6c zephyr/libzephyr.a(ecc.c.obj)
 .text.uECC_vli_modMult
                0x00000000       0x24 zephyr/libzephyr.a(ecc.c.obj)
 .text.uECC_vli_modMult_fast
                0x00000000       0x20 zephyr/libzephyr.a(ecc.c.obj)
 .text.uECC_secp256r1
                0x00000000        0x8 zephyr/libzephyr.a(ecc.c.obj)
 .text.uECC_generate_random_int
                0x00000000       0xa0 zephyr/libzephyr.a(ecc.c.obj)
 .text.uECC_compute_public_key
                0x00000000       0xf8 zephyr/libzephyr.a(ecc.c.obj)
 .text          0x00000000        0x0 zephyr/libzephyr.a(aes_decrypt.c.obj)
 .data          0x00000000        0x0 zephyr/libzephyr.a(aes_decrypt.c.obj)
 .bss           0x00000000        0x0 zephyr/libzephyr.a(aes_decrypt.c.obj)
 .text.tc_aes128_set_decrypt_key
                0x00000000        0x4 zephyr/libzephyr.a(aes_decrypt.c.obj)
 .text.tc_aes_decrypt
                0x00000000      0xeb8 zephyr/libzephyr.a(aes_decrypt.c.obj)
 .rodata.inv_sbox
                0x00000000      0x100 zephyr/libzephyr.a(aes_decrypt.c.obj)
 .debug_info    0x00000000      0xf5f zephyr/libzephyr.a(aes_decrypt.c.obj)
 .debug_abbrev  0x00000000      0x18d zephyr/libzephyr.a(aes_decrypt.c.obj)
 .debug_loc     0x00000000      0x527 zephyr/libzephyr.a(aes_decrypt.c.obj)
 .debug_aranges
                0x00000000       0x28 zephyr/libzephyr.a(aes_decrypt.c.obj)
 .debug_ranges  0x00000000       0xf0 zephyr/libzephyr.a(aes_decrypt.c.obj)
 .debug_line    0x00000000      0x408 zephyr/libzephyr.a(aes_decrypt.c.obj)
 .debug_str     0x00000000      0x31a zephyr/libzephyr.a(aes_decrypt.c.obj)
 .comment       0x00000000       0x80 zephyr/libzephyr.a(aes_decrypt.c.obj)
 .debug_frame   0x00000000       0x7c zephyr/libzephyr.a(aes_decrypt.c.obj)
 .text          0x00000000        0x0 zephyr/libzephyr.a(aes_encrypt.c.obj)
 .data          0x00000000        0x0 zephyr/libzephyr.a(aes_encrypt.c.obj)
 .bss           0x00000000        0x0 zephyr/libzephyr.a(aes_encrypt.c.obj)
 .text          0x00000000        0x0 zephyr/libzephyr.a(cmac_mode.c.obj)
 .data          0x00000000        0x0 zephyr/libzephyr.a(cmac_mode.c.obj)
 .bss           0x00000000        0x0 zephyr/libzephyr.a(cmac_mode.c.obj)
 .text.gf_double
                0x00000000       0x38 zephyr/libzephyr.a(cmac_mode.c.obj)
 .text.tc_cmac_erase
                0x00000000       0x10 zephyr/libzephyr.a(cmac_mode.c.obj)
 .text.tc_cmac_init
                0x00000000        0x8 zephyr/libzephyr.a(cmac_mode.c.obj)
 .rodata.gf_wrap
                0x00000000        0x1 zephyr/libzephyr.a(cmac_mode.c.obj)
 .text          0x00000000        0x0 zephyr/libzephyr.a(dis.c.obj)
 .data          0x00000000        0x0 zephyr/libzephyr.a(dis.c.obj)
 .bss           0x00000000        0x0 zephyr/libzephyr.a(dis.c.obj)
 .text          0x00000000        0x0 zephyr/libzephyr.a(fcb_append.c.obj)
 .data          0x00000000        0x0 zephyr/libzephyr.a(fcb_append.c.obj)
 .bss           0x00000000        0x0 zephyr/libzephyr.a(fcb_append.c.obj)
 .text          0x00000000        0x0 zephyr/libzephyr.a(fcb.c.obj)
 .data          0x00000000        0x0 zephyr/libzephyr.a(fcb.c.obj)
 .bss           0x00000000        0x0 zephyr/libzephyr.a(fcb.c.obj)
 .text.fcb_get_align
                0x00000000        0xc zephyr/libzephyr.a(fcb.c.obj)
 .text.fcb_is_empty
                0x00000000       0x1c zephyr/libzephyr.a(fcb.c.obj)
 .text.fcb_offset_last_n
                0x00000000       0x60 zephyr/libzephyr.a(fcb.c.obj)
 .text.fcb_clear
                0x00000000       0x20 zephyr/libzephyr.a(fcb.c.obj)
 .text          0x00000000        0x0 zephyr/libzephyr.a(fcb_elem_info.c.obj)
 .data          0x00000000        0x0 zephyr/libzephyr.a(fcb_elem_info.c.obj)
 .bss           0x00000000        0x0 zephyr/libzephyr.a(fcb_elem_info.c.obj)
 .text          0x00000000        0x0 zephyr/libzephyr.a(fcb_getnext.c.obj)
 .data          0x00000000        0x0 zephyr/libzephyr.a(fcb_getnext.c.obj)
 .bss           0x00000000        0x0 zephyr/libzephyr.a(fcb_getnext.c.obj)
 .text          0x00000000        0x0 zephyr/libzephyr.a(fcb_rotate.c.obj)
 .data          0x00000000        0x0 zephyr/libzephyr.a(fcb_rotate.c.obj)
 .bss           0x00000000        0x0 zephyr/libzephyr.a(fcb_rotate.c.obj)
 .text          0x00000000        0x0 zephyr/libzephyr.a(fcb_walk.c.obj)
 .data          0x00000000        0x0 zephyr/libzephyr.a(fcb_walk.c.obj)
 .bss           0x00000000        0x0 zephyr/libzephyr.a(fcb_walk.c.obj)
 .text.fcb_walk
                0x00000000       0x70 zephyr/libzephyr.a(fcb_walk.c.obj)
 .debug_info    0x00000000      0xba9 zephyr/libzephyr.a(fcb_walk.c.obj)
 .debug_abbrev  0x00000000      0x251 zephyr/libzephyr.a(fcb_walk.c.obj)
 .debug_loc     0x00000000      0x12a zephyr/libzephyr.a(fcb_walk.c.obj)
 .debug_aranges
                0x00000000       0x20 zephyr/libzephyr.a(fcb_walk.c.obj)
 .debug_ranges  0x00000000       0x10 zephyr/libzephyr.a(fcb_walk.c.obj)
 .debug_line    0x00000000      0x430 zephyr/libzephyr.a(fcb_walk.c.obj)
 .debug_str     0x00000000      0x84f zephyr/libzephyr.a(fcb_walk.c.obj)
 .comment       0x00000000       0x80 zephyr/libzephyr.a(fcb_walk.c.obj)
 .debug_frame   0x00000000       0x44 zephyr/libzephyr.a(fcb_walk.c.obj)
 .text          0x00000000        0x0 zephyr/libzephyr.a(addr_utils.c.obj)
 .data          0x00000000        0x0 zephyr/libzephyr.a(addr_utils.c.obj)
 .bss           0x00000000        0x0 zephyr/libzephyr.a(addr_utils.c.obj)
 .debug_line    0x00000000        0x0 zephyr/libzephyr.a(addr_utils.c.obj)
 .debug_str     0x00000000      0x19f zephyr/libzephyr.a(addr_utils.c.obj)
 .comment       0x00000000       0x80 zephyr/libzephyr.a(addr_utils.c.obj)
 .text          0x00000000        0x0 zephyr/libzephyr.a(usb_device.c.obj)
 .data          0x00000000        0x0 zephyr/libzephyr.a(usb_device.c.obj)
 .bss           0x00000000        0x0 zephyr/libzephyr.a(usb_device.c.obj)
 .text.usb_transfer_sync_cb
                0x00000000        0xc zephyr/libzephyr.a(usb_device.c.obj)
 .text.usb_deconfig
                0x00000000       0x1c zephyr/libzephyr.a(usb_device.c.obj)
 .text.usb_disable
                0x00000000       0x20 zephyr/libzephyr.a(usb_device.c.obj)
 .text.usb_read
                0x00000000        0x4 zephyr/libzephyr.a(usb_device.c.obj)
 .text.usb_ep_set_stall
                0x00000000        0x4 zephyr/libzephyr.a(usb_device.c.obj)
 .text.usb_ep_clear_stall
                0x00000000        0x4 zephyr/libzephyr.a(usb_device.c.obj)
 .text.usb_ep_read_wait
                0x00000000        0x4 zephyr/libzephyr.a(usb_device.c.obj)
 .text.usb_ep_read_continue
                0x00000000        0x4 zephyr/libzephyr.a(usb_device.c.obj)
 .text.usb_transfer_is_busy
                0x00000000       0x40 zephyr/libzephyr.a(usb_device.c.obj)
 .text.usb_transfer_ep_callback
                0x00000000       0x98 zephyr/libzephyr.a(usb_device.c.obj)
 .text.usb_transfer
                0x00000000      0x118 zephyr/libzephyr.a(usb_device.c.obj)
 .text.usb_cancel_transfer
                0x00000000       0x80 zephyr/libzephyr.a(usb_device.c.obj)
 .text.usb_transfer_sync
                0x00000000       0x44 zephyr/libzephyr.a(usb_device.c.obj)
 .text.usb_wakeup_request
                0x00000000        0x8 zephyr/libzephyr.a(usb_device.c.obj)
 .text.usb_set_config
                0x00000000       0x30 zephyr/libzephyr.a(usb_device.c.obj)
 .text          0x00000000        0x0 zephyr/libzephyr.a(usb_descriptor.c.obj)
 .data          0x00000000        0x0 zephyr/libzephyr.a(usb_descriptor.c.obj)
 .bss           0x00000000        0x0 zephyr/libzephyr.a(usb_descriptor.c.obj)
 .text.usb_get_str_descriptor_idx
                0x00000000       0x30 zephyr/libzephyr.a(usb_descriptor.c.obj)
 .text          0x00000000        0x0 zephyr/libzephyr.a(flash_map.c.obj)
 .data          0x00000000        0x0 zephyr/libzephyr.a(flash_map.c.obj)
 .bss           0x00000000        0x0 zephyr/libzephyr.a(flash_map.c.obj)
 .text.flash_area_foreach
                0x00000000       0x34 zephyr/libzephyr.a(flash_map.c.obj)
 .text.flash_area_has_driver
                0x00000000       0x14 zephyr/libzephyr.a(flash_map.c.obj)
 .text.flash_area_get_device
                0x00000000        0x8 zephyr/libzephyr.a(flash_map.c.obj)
 .text          0x00000000        0x0 zephyr/libzephyr.a(flash_map_default.c.obj)
 .data          0x00000000        0x0 zephyr/libzephyr.a(flash_map_default.c.obj)
 .bss           0x00000000        0x0 zephyr/libzephyr.a(flash_map_default.c.obj)
 .text          0x00000000        0x0 zephyr/libzephyr.a(settings_store.c.obj)
 .data          0x00000000        0x0 zephyr/libzephyr.a(settings_store.c.obj)
 .bss           0x00000000        0x0 zephyr/libzephyr.a(settings_store.c.obj)
 .text.settings_load_subtree_direct
                0x00000000       0x40 zephyr/libzephyr.a(settings_store.c.obj)
 .text.settings_save
                0x00000000       0x88 zephyr/libzephyr.a(settings_store.c.obj)
 .text          0x00000000        0x0 zephyr/libzephyr.a(settings.c.obj)
 .data          0x00000000        0x0 zephyr/libzephyr.a(settings.c.obj)
 .bss           0x00000000        0x0 zephyr/libzephyr.a(settings.c.obj)
 .text.settings_name_steq
                0x00000000       0x14 zephyr/libzephyr.a(settings.c.obj)
 .text.settings_commit
                0x00000000        0x8 zephyr/libzephyr.a(settings.c.obj)
 .text          0x00000000        0x0 zephyr/libzephyr.a(settings_init.c.obj)
 .data          0x00000000        0x0 zephyr/libzephyr.a(settings_init.c.obj)
 .bss           0x00000000        0x0 zephyr/libzephyr.a(settings_init.c.obj)
 .text          0x00000000        0x0 zephyr/libzephyr.a(settings_line.c.obj)
 .data          0x00000000        0x0 zephyr/libzephyr.a(settings_line.c.obj)
 .bss           0x00000000        0x0 zephyr/libzephyr.a(settings_line.c.obj)
 .text.settings_line_raw_read
                0x00000000       0x14 zephyr/libzephyr.a(settings_line.c.obj)
 .text.settings_line_val_read
                0x00000000       0x18 zephyr/libzephyr.a(settings_line.c.obj)
 .text.settings_line_val_get_len
                0x00000000       0x14 zephyr/libzephyr.a(settings_line.c.obj)
 .text          0x00000000        0x0 zephyr/libzephyr.a(settings_fcb.c.obj)
 .data          0x00000000        0x0 zephyr/libzephyr.a(settings_fcb.c.obj)
 .bss           0x00000000        0x0 zephyr/libzephyr.a(settings_fcb.c.obj)
 .text          0x00000000        0x0 zephyr/libzephyr.a(power.c.obj)
 .data          0x00000000        0x0 zephyr/libzephyr.a(power.c.obj)
 .bss           0x00000000        0x0 zephyr/libzephyr.a(power.c.obj)
 .text.sys_pm_dump_debug_info
                0x00000000        0x4 zephyr/libzephyr.a(power.c.obj)
 .text._sys_resume
                0x00000000       0x2c zephyr/libzephyr.a(power.c.obj)
 .text          0x00000000        0x0 zephyr/libzephyr.a(device.c.obj)
 .data          0x00000000        0x0 zephyr/libzephyr.a(device.c.obj)
 .bss           0x00000000        0x0 zephyr/libzephyr.a(device.c.obj)
 .text.sys_pm_force_suspend_devices
                0x00000000       0x7c zephyr/libzephyr.a(device.c.obj)
 .text          0x00000000        0x0 zephyr/libzephyr.a(reboot.c.obj)
 .data          0x00000000        0x0 zephyr/libzephyr.a(reboot.c.obj)
 .bss           0x00000000        0x0 zephyr/libzephyr.a(reboot.c.obj)
 .text          0x00000000        0x0 zephyr/libzephyr.a(usb_dc_nrfx.c.obj)
 .data          0x00000000        0x0 zephyr/libzephyr.a(usb_dc_nrfx.c.obj)
 .bss           0x00000000        0x0 zephyr/libzephyr.a(usb_dc_nrfx.c.obj)
 .text.usb_dc_detach
                0x00000000       0xcc zephyr/libzephyr.a(usb_dc_nrfx.c.obj)
 .text.usb_dc_reset
                0x00000000       0x28 zephyr/libzephyr.a(usb_dc_nrfx.c.obj)
 .text.usb_dc_ep_halt
                0x00000000        0x4 zephyr/libzephyr.a(usb_dc_nrfx.c.obj)
 .text.usb_dc_ep_flush
                0x00000000       0x38 zephyr/libzephyr.a(usb_dc_nrfx.c.obj)
 .text.usb_dc_wakeup_request
                0x00000000       0x14 zephyr/libzephyr.a(usb_dc_nrfx.c.obj)
 .text          0x00000000        0x0 zephyr/libzephyr.a(wdt_nrfx.c.obj)
 .data          0x00000000        0x0 zephyr/libzephyr.a(wdt_nrfx.c.obj)
 .bss           0x00000000        0x0 zephyr/libzephyr.a(wdt_nrfx.c.obj)
 .text          0x00000000        0x0 zephyr/libzephyr.a(sys_clock_init.c.obj)
 .data          0x00000000        0x0 zephyr/libzephyr.a(sys_clock_init.c.obj)
 .bss           0x00000000        0x0 zephyr/libzephyr.a(sys_clock_init.c.obj)
 .text.z_clock_driver_init
                0x00000000        0x4 zephyr/libzephyr.a(sys_clock_init.c.obj)
 .text.z_clock_set_timeout
                0x00000000        0x4 zephyr/libzephyr.a(sys_clock_init.c.obj)
 .text          0x00000000        0x0 zephyr/libzephyr.a(nrf_rtc_timer.c.obj)
 .data          0x00000000        0x0 zephyr/libzephyr.a(nrf_rtc_timer.c.obj)
 .bss           0x00000000        0x0 zephyr/libzephyr.a(nrf_rtc_timer.c.obj)
 .text          0x00000000        0x0 zephyr/libzephyr.a(gatt_pool.c.obj)
 .data          0x00000000        0x0 zephyr/libzephyr.a(gatt_pool.c.obj)
 .bss           0x00000000        0x0 zephyr/libzephyr.a(gatt_pool.c.obj)
 .text.uuid_unregister.part.4
                0x00000000       0x38 zephyr/libzephyr.a(gatt_pool.c.obj)
 .text.bt_gatt_pool_free
                0x00000000       0x98 zephyr/libzephyr.a(gatt_pool.c.obj)
 .text          0x00000000        0x0 zephyr/libzephyr.a(conn_ctx.c.obj)
 .data          0x00000000        0x0 zephyr/libzephyr.a(conn_ctx.c.obj)
 .bss           0x00000000        0x0 zephyr/libzephyr.a(conn_ctx.c.obj)
 .text.bt_conn_ctx_free_all
                0x00000000       0x2c zephyr/libzephyr.a(conn_ctx.c.obj)
 .text          0x00000000        0x0 zephyr/libzephyr.a(hids.c.obj)
 .data          0x00000000        0x0 zephyr/libzephyr.a(hids.c.obj)
 .bss           0x00000000        0x0 zephyr/libzephyr.a(hids.c.obj)
 .text.bt_gatt_hids_uninit
                0x00000000       0x38 zephyr/libzephyr.a(hids.c.obj)
 .text.bt_gatt_hids_boot_kb_inp_rep_send
                0x00000000      0x124 zephyr/libzephyr.a(hids.c.obj)
 .text          0x00000000        0x0 zephyr/libzephyr.a(event_manager.c.obj)
 .data          0x00000000        0x0 zephyr/libzephyr.a(event_manager.c.obj)
 .bss           0x00000000        0x0 zephyr/libzephyr.a(event_manager.c.obj)
 .text          0x00000000        0x0 zephyr/libzephyr.a(nrf_cc310_platform_abort_zephyr.c.obj)
 .data          0x00000000        0x0 zephyr/libzephyr.a(nrf_cc310_platform_abort_zephyr.c.obj)
 .bss           0x00000000        0x0 zephyr/libzephyr.a(nrf_cc310_platform_abort_zephyr.c.obj)
 .text          0x00000000        0x0 zephyr/libzephyr.a(nrf_cc310_platform_mutex_zephyr.c.obj)
 .data          0x00000000        0x0 zephyr/libzephyr.a(nrf_cc310_platform_mutex_zephyr.c.obj)
 .bss           0x00000000        0x0 zephyr/libzephyr.a(nrf_cc310_platform_mutex_zephyr.c.obj)
 .text          0x00000000        0x0 zephyr/arch/common/libarch__common.a(isr_tables.c.obj)
 .data          0x00000000        0x0 zephyr/arch/common/libarch__common.a(isr_tables.c.obj)
 .bss           0x00000000        0x0 zephyr/arch/common/libarch__common.a(isr_tables.c.obj)
 .text          0x00000000        0x0 zephyr/arch/common/libarch__common.a(sw_isr_common.c.obj)
 .data          0x00000000        0x0 zephyr/arch/common/libarch__common.a(sw_isr_common.c.obj)
 .bss           0x00000000        0x0 zephyr/arch/common/libarch__common.a(sw_isr_common.c.obj)
 .debug_info    0x00000000      0x1b2 zephyr/arch/common/libarch__common.a(sw_isr_common.c.obj)
 .debug_abbrev  0x00000000       0xbe zephyr/arch/common/libarch__common.a(sw_isr_common.c.obj)
 .debug_aranges
                0x00000000       0x18 zephyr/arch/common/libarch__common.a(sw_isr_common.c.obj)
 .debug_line    0x00000000      0x1a7 zephyr/arch/common/libarch__common.a(sw_isr_common.c.obj)
 .debug_str     0x00000000      0x332 zephyr/arch/common/libarch__common.a(sw_isr_common.c.obj)
 .comment       0x00000000       0x80 zephyr/arch/common/libarch__common.a(sw_isr_common.c.obj)
 .text          0x00000000        0x0 zephyr/arch/arch/arm/core/libarch__arm__core.a(exc_exit.S.obj)
 .data          0x00000000        0x0 zephyr/arch/arch/arm/core/libarch__arm__core.a(exc_exit.S.obj)
 .bss           0x00000000        0x0 zephyr/arch/arch/arm/core/libarch__arm__core.a(exc_exit.S.obj)
 .text          0x00000000        0x0 zephyr/arch/arch/arm/core/libarch__arm__core.a(swap.c.obj)
 .data          0x00000000        0x0 zephyr/arch/arch/arm/core/libarch__arm__core.a(swap.c.obj)
 .bss           0x00000000        0x0 zephyr/arch/arch/arm/core/libarch__arm__core.a(swap.c.obj)
 .text          0x00000000        0x0 zephyr/arch/arch/arm/core/libarch__arm__core.a(swap_helper.S.obj)
 .data          0x00000000        0x0 zephyr/arch/arch/arm/core/libarch__arm__core.a(swap_helper.S.obj)
 .bss           0x00000000        0x0 zephyr/arch/arch/arm/core/libarch__arm__core.a(swap_helper.S.obj)
 .text          0x00000000        0x0 zephyr/arch/arch/arm/core/libarch__arm__core.a(irq_manage.c.obj)
 .data          0x00000000        0x0 zephyr/arch/arch/arm/core/libarch__arm__core.a(irq_manage.c.obj)
 .bss           0x00000000        0x0 zephyr/arch/arch/arm/core/libarch__arm__core.a(irq_manage.c.obj)
 .text._arch_isr_direct_pm
                0x00000000       0x1c zephyr/arch/arch/arm/core/libarch__arm__core.a(irq_manage.c.obj)
 .text          0x00000000        0x0 zephyr/arch/arch/arm/core/libarch__arm__core.a(thread.c.obj)
 .data          0x00000000        0x0 zephyr/arch/arch/arm/core/libarch__arm__core.a(thread.c.obj)
 .bss           0x00000000        0x0 zephyr/arch/arch/arm/core/libarch__arm__core.a(thread.c.obj)
 .text          0x00000000        0x0 zephyr/arch/arch/arm/core/libarch__arm__core.a(cpu_idle.S.obj)
 .data          0x00000000        0x0 zephyr/arch/arch/arm/core/libarch__arm__core.a(cpu_idle.S.obj)
 .bss           0x00000000        0x0 zephyr/arch/arch/arm/core/libarch__arm__core.a(cpu_idle.S.obj)
 .text.arch_cpu_atomic_idle
                0x00000000       0x14 zephyr/arch/arch/arm/core/libarch__arm__core.a(cpu_idle.S.obj)
 .text          0x00000000        0x0 zephyr/arch/arch/arm/core/libarch__arm__core.a(fault_s.S.obj)
 .data          0x00000000        0x0 zephyr/arch/arch/arm/core/libarch__arm__core.a(fault_s.S.obj)
 .bss           0x00000000        0x0 zephyr/arch/arch/arm/core/libarch__arm__core.a(fault_s.S.obj)
 .text          0x00000000        0x0 zephyr/arch/arch/arm/core/libarch__arm__core.a(fatal.c.obj)
 .data          0x00000000        0x0 zephyr/arch/arch/arm/core/libarch__arm__core.a(fatal.c.obj)
 .bss           0x00000000        0x0 zephyr/arch/arch/arm/core/libarch__arm__core.a(fatal.c.obj)
 .text.arch_syscall_oops
                0x00000000       0x1c zephyr/arch/arch/arm/core/libarch__arm__core.a(fatal.c.obj)
 .text          0x00000000        0x0 zephyr/arch/arch/arm/core/libarch__arm__core.a(nmi.c.obj)
 .data          0x00000000        0x0 zephyr/arch/arch/arm/core/libarch__arm__core.a(nmi.c.obj)
 .bss           0x00000000        0x0 zephyr/arch/arch/arm/core/libarch__arm__core.a(nmi.c.obj)
 .text          0x00000000        0x0 zephyr/arch/arch/arm/core/libarch__arm__core.a(nmi_on_reset.S.obj)
 .data          0x00000000        0x0 zephyr/arch/arch/arm/core/libarch__arm__core.a(nmi_on_reset.S.obj)
 .bss           0x00000000        0x0 zephyr/arch/arch/arm/core/libarch__arm__core.a(nmi_on_reset.S.obj)
 .text          0x00000000        0x0 zephyr/arch/arch/arm/core/libarch__arm__core.a(prep_c.c.obj)
 .data          0x00000000        0x0 zephyr/arch/arch/arm/core/libarch__arm__core.a(prep_c.c.obj)
 .bss           0x00000000        0x0 zephyr/arch/arch/arm/core/libarch__arm__core.a(prep_c.c.obj)
 .text          0x00000000        0x0 zephyr/arch/arch/arm/core/libarch__arm__core.a(isr_wrapper.S.obj)
 .data          0x00000000        0x0 zephyr/arch/arch/arm/core/libarch__arm__core.a(isr_wrapper.S.obj)
 .bss           0x00000000        0x0 zephyr/arch/arch/arm/core/libarch__arm__core.a(isr_wrapper.S.obj)
 .text          0x00000000        0x0 zephyr/arch/arch/arm/core/cortex_m/libarch__arm__core__cortex_m.a(vector_table.S.obj)
 .data          0x00000000        0x0 zephyr/arch/arch/arm/core/cortex_m/libarch__arm__core__cortex_m.a(vector_table.S.obj)
 .bss           0x00000000        0x0 zephyr/arch/arch/arm/core/cortex_m/libarch__arm__core__cortex_m.a(vector_table.S.obj)
 .text          0x00000000        0x0 zephyr/arch/arch/arm/core/cortex_m/libarch__arm__core__cortex_m.a(reset.S.obj)
 .data          0x00000000        0x0 zephyr/arch/arch/arm/core/cortex_m/libarch__arm__core__cortex_m.a(reset.S.obj)
 .bss           0x00000000        0x0 zephyr/arch/arch/arm/core/cortex_m/libarch__arm__core__cortex_m.a(reset.S.obj)
 .text          0x00000000        0x0 zephyr/arch/arch/arm/core/cortex_m/libarch__arm__core__cortex_m.a(fault.c.obj)
 .data          0x00000000        0x0 zephyr/arch/arch/arm/core/cortex_m/libarch__arm__core__cortex_m.a(fault.c.obj)
 .bss           0x00000000        0x0 zephyr/arch/arch/arm/core/cortex_m/libarch__arm__core__cortex_m.a(fault.c.obj)
 .text          0x00000000        0x0 zephyr/arch/arch/arm/core/cortex_m/libarch__arm__core__cortex_m.a(scb.c.obj)
 .data          0x00000000        0x0 zephyr/arch/arch/arm/core/cortex_m/libarch__arm__core__cortex_m.a(scb.c.obj)
 .bss           0x00000000        0x0 zephyr/arch/arch/arm/core/cortex_m/libarch__arm__core__cortex_m.a(scb.c.obj)
 .text.sys_arch_reboot
                0x00000000       0x24 zephyr/arch/arch/arm/core/cortex_m/libarch__arm__core__cortex_m.a(scb.c.obj)
 .debug_info    0x00000000      0xa3c zephyr/arch/arch/arm/core/cortex_m/libarch__arm__core__cortex_m.a(scb.c.obj)
 .debug_abbrev  0x00000000      0x1df zephyr/arch/arch/arm/core/cortex_m/libarch__arm__core__cortex_m.a(scb.c.obj)
 .debug_aranges
                0x00000000       0x20 zephyr/arch/arch/arm/core/cortex_m/libarch__arm__core__cortex_m.a(scb.c.obj)
 .debug_ranges  0x00000000       0x10 zephyr/arch/arch/arm/core/cortex_m/libarch__arm__core__cortex_m.a(scb.c.obj)
 .debug_line    0x00000000      0x340 zephyr/arch/arch/arm/core/cortex_m/libarch__arm__core__cortex_m.a(scb.c.obj)
 .debug_str     0x00000000      0x728 zephyr/arch/arch/arm/core/cortex_m/libarch__arm__core__cortex_m.a(scb.c.obj)
 .comment       0x00000000       0x80 zephyr/arch/arch/arm/core/cortex_m/libarch__arm__core__cortex_m.a(scb.c.obj)
 .debug_frame   0x00000000       0x20 zephyr/arch/arch/arm/core/cortex_m/libarch__arm__core__cortex_m.a(scb.c.obj)
 .text          0x00000000        0x0 zephyr/arch/arch/arm/core/cortex_m/libarch__arm__core__cortex_m.a(irq_init.c.obj)
 .data          0x00000000        0x0 zephyr/arch/arch/arm/core/cortex_m/libarch__arm__core__cortex_m.a(irq_init.c.obj)
 .bss           0x00000000        0x0 zephyr/arch/arch/arm/core/cortex_m/libarch__arm__core__cortex_m.a(irq_init.c.obj)
 .text          0x00000000        0x0 zephyr/arch/arch/arm/core/cortex_m/libarch__arm__core__cortex_m.a(thread_abort.c.obj)
 .data          0x00000000        0x0 zephyr/arch/arch/arm/core/cortex_m/libarch__arm__core__cortex_m.a(thread_abort.c.obj)
 .bss           0x00000000        0x0 zephyr/arch/arch/arm/core/cortex_m/libarch__arm__core__cortex_m.a(thread_abort.c.obj)
 .text          0x00000000        0x0 zephyr/arch/arch/arm/core/cortex_m/mpu/libarch__arm__core__cortex_m__mpu.a(arm_core_mpu.c.obj)
 .data          0x00000000        0x0 zephyr/arch/arch/arm/core/cortex_m/mpu/libarch__arm__core__cortex_m__mpu.a(arm_core_mpu.c.obj)
 .bss           0x00000000        0x0 zephyr/arch/arch/arm/core/cortex_m/mpu/libarch__arm__core__cortex_m__mpu.a(arm_core_mpu.c.obj)
 .text          0x00000000        0x0 zephyr/arch/arch/arm/core/cortex_m/mpu/libarch__arm__core__cortex_m__mpu.a(arm_mpu.c.obj)
 .data          0x00000000        0x0 zephyr/arch/arch/arm/core/cortex_m/mpu/libarch__arm__core__cortex_m__mpu.a(arm_mpu.c.obj)
 .bss           0x00000000        0x0 zephyr/arch/arch/arm/core/cortex_m/mpu/libarch__arm__core__cortex_m__mpu.a(arm_mpu.c.obj)
 .text.arm_core_mpu_enable
                0x00000000       0x14 zephyr/arch/arch/arm/core/cortex_m/mpu/libarch__arm__core__cortex_m__mpu.a(arm_mpu.c.obj)
 .text.arm_core_mpu_disable
                0x00000000       0x10 zephyr/arch/arch/arm/core/cortex_m/mpu/libarch__arm__core__cortex_m__mpu.a(arm_mpu.c.obj)
 .text          0x00000000        0x0 zephyr/lib/libc/minimal/liblib__libc__minimal.a(atoi.c.obj)
 .data          0x00000000        0x0 zephyr/lib/libc/minimal/liblib__libc__minimal.a(atoi.c.obj)
 .bss           0x00000000        0x0 zephyr/lib/libc/minimal/liblib__libc__minimal.a(atoi.c.obj)
 .text.atoi     0x00000000       0x68 zephyr/lib/libc/minimal/liblib__libc__minimal.a(atoi.c.obj)
 .debug_info    0x00000000       0xeb zephyr/lib/libc/minimal/liblib__libc__minimal.a(atoi.c.obj)
 .debug_abbrev  0x00000000       0xd5 zephyr/lib/libc/minimal/liblib__libc__minimal.a(atoi.c.obj)
 .debug_loc     0x00000000       0xdd zephyr/lib/libc/minimal/liblib__libc__minimal.a(atoi.c.obj)
 .debug_aranges
                0x00000000       0x20 zephyr/lib/libc/minimal/liblib__libc__minimal.a(atoi.c.obj)
 .debug_ranges  0x00000000       0x38 zephyr/lib/libc/minimal/liblib__libc__minimal.a(atoi.c.obj)
 .debug_line    0x00000000       0xe5 zephyr/lib/libc/minimal/liblib__libc__minimal.a(atoi.c.obj)
 .debug_str     0x00000000      0x1ca zephyr/lib/libc/minimal/liblib__libc__minimal.a(atoi.c.obj)
 .comment       0x00000000       0x80 zephyr/lib/libc/minimal/liblib__libc__minimal.a(atoi.c.obj)
 .debug_frame   0x00000000       0x30 zephyr/lib/libc/minimal/liblib__libc__minimal.a(atoi.c.obj)
 .text          0x00000000        0x0 zephyr/lib/libc/minimal/liblib__libc__minimal.a(strtol.c.obj)
 .data          0x00000000        0x0 zephyr/lib/libc/minimal/liblib__libc__minimal.a(strtol.c.obj)
 .bss           0x00000000        0x0 zephyr/lib/libc/minimal/liblib__libc__minimal.a(strtol.c.obj)
 .text          0x00000000        0x0 zephyr/lib/libc/minimal/liblib__libc__minimal.a(strtoul.c.obj)
 .data          0x00000000        0x0 zephyr/lib/libc/minimal/liblib__libc__minimal.a(strtoul.c.obj)
 .bss           0x00000000        0x0 zephyr/lib/libc/minimal/liblib__libc__minimal.a(strtoul.c.obj)
 .text.strtoul  0x00000000      0x13c zephyr/lib/libc/minimal/liblib__libc__minimal.a(strtoul.c.obj)
 .debug_info    0x00000000      0x23c zephyr/lib/libc/minimal/liblib__libc__minimal.a(strtoul.c.obj)
 .debug_abbrev  0x00000000      0x100 zephyr/lib/libc/minimal/liblib__libc__minimal.a(strtoul.c.obj)
 .debug_loc     0x00000000      0x32a zephyr/lib/libc/minimal/liblib__libc__minimal.a(strtoul.c.obj)
 .debug_aranges
                0x00000000       0x20 zephyr/lib/libc/minimal/liblib__libc__minimal.a(strtoul.c.obj)
 .debug_ranges  0x00000000       0x10 zephyr/lib/libc/minimal/liblib__libc__minimal.a(strtoul.c.obj)
 .debug_line    0x00000000      0x188 zephyr/lib/libc/minimal/liblib__libc__minimal.a(strtoul.c.obj)
 .debug_str     0x00000000      0x28d zephyr/lib/libc/minimal/liblib__libc__minimal.a(strtoul.c.obj)
 .comment       0x00000000       0x80 zephyr/lib/libc/minimal/liblib__libc__minimal.a(strtoul.c.obj)
 .debug_frame   0x00000000       0x3c zephyr/lib/libc/minimal/liblib__libc__minimal.a(strtoul.c.obj)
 .text          0x00000000        0x0 zephyr/lib/libc/minimal/liblib__libc__minimal.a(malloc.c.obj)
 .data          0x00000000        0x0 zephyr/lib/libc/minimal/liblib__libc__minimal.a(malloc.c.obj)
 .bss           0x00000000        0x0 zephyr/lib/libc/minimal/liblib__libc__minimal.a(malloc.c.obj)
 .text.malloc   0x00000000       0x10 zephyr/lib/libc/minimal/liblib__libc__minimal.a(malloc.c.obj)
 .text.free     0x00000000        0x4 zephyr/lib/libc/minimal/liblib__libc__minimal.a(malloc.c.obj)
 .text.calloc   0x00000000       0x10 zephyr/lib/libc/minimal/liblib__libc__minimal.a(malloc.c.obj)
 .text.realloc  0x00000000       0x34 zephyr/lib/libc/minimal/liblib__libc__minimal.a(malloc.c.obj)
 .text.reallocarray
                0x00000000       0x20 zephyr/lib/libc/minimal/liblib__libc__minimal.a(malloc.c.obj)
 .debug_info    0x00000000      0xe6f zephyr/lib/libc/minimal/liblib__libc__minimal.a(malloc.c.obj)
 .debug_abbrev  0x00000000      0x304 zephyr/lib/libc/minimal/liblib__libc__minimal.a(malloc.c.obj)
 .debug_loc     0x00000000      0x2b4 zephyr/lib/libc/minimal/liblib__libc__minimal.a(malloc.c.obj)
 .debug_aranges
                0x00000000       0x40 zephyr/lib/libc/minimal/liblib__libc__minimal.a(malloc.c.obj)
 .debug_ranges  0x00000000       0x30 zephyr/lib/libc/minimal/liblib__libc__minimal.a(malloc.c.obj)
 .debug_line    0x00000000      0x4b6 zephyr/lib/libc/minimal/liblib__libc__minimal.a(malloc.c.obj)
 .debug_str     0x00000000      0xa90 zephyr/lib/libc/minimal/liblib__libc__minimal.a(malloc.c.obj)
 .comment       0x00000000       0x80 zephyr/lib/libc/minimal/liblib__libc__minimal.a(malloc.c.obj)
 .debug_frame   0x00000000       0x8c zephyr/lib/libc/minimal/liblib__libc__minimal.a(malloc.c.obj)
 .text          0x00000000        0x0 zephyr/lib/libc/minimal/liblib__libc__minimal.a(bsearch.c.obj)
 .data          0x00000000        0x0 zephyr/lib/libc/minimal/liblib__libc__minimal.a(bsearch.c.obj)
 .bss           0x00000000        0x0 zephyr/lib/libc/minimal/liblib__libc__minimal.a(bsearch.c.obj)
 .text.bsearch  0x00000000       0x44 zephyr/lib/libc/minimal/liblib__libc__minimal.a(bsearch.c.obj)
 .debug_info    0x00000000      0x136 zephyr/lib/libc/minimal/liblib__libc__minimal.a(bsearch.c.obj)
 .debug_abbrev  0x00000000       0xd2 zephyr/lib/libc/minimal/liblib__libc__minimal.a(bsearch.c.obj)
 .debug_loc     0x00000000      0x15c zephyr/lib/libc/minimal/liblib__libc__minimal.a(bsearch.c.obj)
 .debug_aranges
                0x00000000       0x20 zephyr/lib/libc/minimal/liblib__libc__minimal.a(bsearch.c.obj)
 .debug_ranges  0x00000000       0x10 zephyr/lib/libc/minimal/liblib__libc__minimal.a(bsearch.c.obj)
 .debug_line    0x00000000      0x129 zephyr/lib/libc/minimal/liblib__libc__minimal.a(bsearch.c.obj)
 .debug_str     0x00000000      0x1f0 zephyr/lib/libc/minimal/liblib__libc__minimal.a(bsearch.c.obj)
 .comment       0x00000000       0x80 zephyr/lib/libc/minimal/liblib__libc__minimal.a(bsearch.c.obj)
 .debug_frame   0x00000000       0x38 zephyr/lib/libc/minimal/liblib__libc__minimal.a(bsearch.c.obj)
 .text          0x00000000        0x0 zephyr/lib/libc/minimal/liblib__libc__minimal.a(exit.c.obj)
 .data          0x00000000        0x0 zephyr/lib/libc/minimal/liblib__libc__minimal.a(exit.c.obj)
 .bss           0x00000000        0x0 zephyr/lib/libc/minimal/liblib__libc__minimal.a(exit.c.obj)
 .text._exit    0x00000000       0x10 zephyr/lib/libc/minimal/liblib__libc__minimal.a(exit.c.obj)
 .rodata._exit.str1.4
                0x00000000        0x6 zephyr/lib/libc/minimal/liblib__libc__minimal.a(exit.c.obj)
 .debug_info    0x00000000      0x866 zephyr/lib/libc/minimal/liblib__libc__minimal.a(exit.c.obj)
 .debug_abbrev  0x00000000      0x1ac zephyr/lib/libc/minimal/liblib__libc__minimal.a(exit.c.obj)
 .debug_loc     0x00000000       0x21 zephyr/lib/libc/minimal/liblib__libc__minimal.a(exit.c.obj)
 .debug_aranges
                0x00000000       0x20 zephyr/lib/libc/minimal/liblib__libc__minimal.a(exit.c.obj)
 .debug_ranges  0x00000000       0x10 zephyr/lib/libc/minimal/liblib__libc__minimal.a(exit.c.obj)
 .debug_line    0x00000000      0x33a zephyr/lib/libc/minimal/liblib__libc__minimal.a(exit.c.obj)
 .debug_str     0x00000000      0x6b1 zephyr/lib/libc/minimal/liblib__libc__minimal.a(exit.c.obj)
 .comment       0x00000000       0x80 zephyr/lib/libc/minimal/liblib__libc__minimal.a(exit.c.obj)
 .debug_frame   0x00000000       0x28 zephyr/lib/libc/minimal/liblib__libc__minimal.a(exit.c.obj)
 .text          0x00000000        0x0 zephyr/lib/libc/minimal/liblib__libc__minimal.a(strncasecmp.c.obj)
 .data          0x00000000        0x0 zephyr/lib/libc/minimal/liblib__libc__minimal.a(strncasecmp.c.obj)
 .bss           0x00000000        0x0 zephyr/lib/libc/minimal/liblib__libc__minimal.a(strncasecmp.c.obj)
 .text.strncasecmp
                0x00000000       0x5c zephyr/lib/libc/minimal/liblib__libc__minimal.a(strncasecmp.c.obj)
 .debug_info    0x00000000      0x116 zephyr/lib/libc/minimal/liblib__libc__minimal.a(strncasecmp.c.obj)
 .debug_abbrev  0x00000000       0xe5 zephyr/lib/libc/minimal/liblib__libc__minimal.a(strncasecmp.c.obj)
 .debug_loc     0x00000000      0x1fa zephyr/lib/libc/minimal/liblib__libc__minimal.a(strncasecmp.c.obj)
 .debug_aranges
                0x00000000       0x20 zephyr/lib/libc/minimal/liblib__libc__minimal.a(strncasecmp.c.obj)
 .debug_ranges  0x00000000       0x58 zephyr/lib/libc/minimal/liblib__libc__minimal.a(strncasecmp.c.obj)
 .debug_line    0x00000000      0x14c zephyr/lib/libc/minimal/liblib__libc__minimal.a(strncasecmp.c.obj)
 .debug_str     0x00000000      0x1f3 zephyr/lib/libc/minimal/liblib__libc__minimal.a(strncasecmp.c.obj)
 .comment       0x00000000       0x80 zephyr/lib/libc/minimal/liblib__libc__minimal.a(strncasecmp.c.obj)
 .debug_frame   0x00000000       0x44 zephyr/lib/libc/minimal/liblib__libc__minimal.a(strncasecmp.c.obj)
 .text          0x00000000        0x0 zephyr/lib/libc/minimal/liblib__libc__minimal.a(strstr.c.obj)
 .data          0x00000000        0x0 zephyr/lib/libc/minimal/liblib__libc__minimal.a(strstr.c.obj)
 .bss           0x00000000        0x0 zephyr/lib/libc/minimal/liblib__libc__minimal.a(strstr.c.obj)
 .text.strstr   0x00000000       0x4c zephyr/lib/libc/minimal/liblib__libc__minimal.a(strstr.c.obj)
 .debug_info    0x00000000       0xfb zephyr/lib/libc/minimal/liblib__libc__minimal.a(strstr.c.obj)
 .debug_abbrev  0x00000000       0xd4 zephyr/lib/libc/minimal/liblib__libc__minimal.a(strstr.c.obj)
 .debug_loc     0x00000000       0xd3 zephyr/lib/libc/minimal/liblib__libc__minimal.a(strstr.c.obj)
 .debug_aranges
                0x00000000       0x20 zephyr/lib/libc/minimal/liblib__libc__minimal.a(strstr.c.obj)
 .debug_ranges  0x00000000       0x10 zephyr/lib/libc/minimal/liblib__libc__minimal.a(strstr.c.obj)
 .debug_line    0x00000000      0x130 zephyr/lib/libc/minimal/liblib__libc__minimal.a(strstr.c.obj)
 .debug_str     0x00000000      0x1d9 zephyr/lib/libc/minimal/liblib__libc__minimal.a(strstr.c.obj)
 .comment       0x00000000       0x80 zephyr/lib/libc/minimal/liblib__libc__minimal.a(strstr.c.obj)
 .debug_frame   0x00000000       0x30 zephyr/lib/libc/minimal/liblib__libc__minimal.a(strstr.c.obj)
 .text          0x00000000        0x0 zephyr/lib/libc/minimal/liblib__libc__minimal.a(string.c.obj)
 .data          0x00000000        0x0 zephyr/lib/libc/minimal/liblib__libc__minimal.a(string.c.obj)
 .bss           0x00000000        0x0 zephyr/lib/libc/minimal/liblib__libc__minimal.a(string.c.obj)
 .text.strncpy  0x00000000       0x30 zephyr/lib/libc/minimal/liblib__libc__minimal.a(string.c.obj)
 .text.strrchr  0x00000000       0x1c zephyr/lib/libc/minimal/liblib__libc__minimal.a(string.c.obj)
 .text.strnlen  0x00000000       0x28 zephyr/lib/libc/minimal/liblib__libc__minimal.a(string.c.obj)
 .text.strcat   0x00000000       0x44 zephyr/lib/libc/minimal/liblib__libc__minimal.a(string.c.obj)
 .text.strncat  0x00000000       0x44 zephyr/lib/libc/minimal/liblib__libc__minimal.a(string.c.obj)
 .text.memmove  0x00000000       0x34 zephyr/lib/libc/minimal/liblib__libc__minimal.a(string.c.obj)
 .text          0x00000000        0x0 zephyr/lib/libc/minimal/liblib__libc__minimal.a(strspn.c.obj)
 .data          0x00000000        0x0 zephyr/lib/libc/minimal/liblib__libc__minimal.a(strspn.c.obj)
 .bss           0x00000000        0x0 zephyr/lib/libc/minimal/liblib__libc__minimal.a(strspn.c.obj)
 .text.strspn   0x00000000       0x28 zephyr/lib/libc/minimal/liblib__libc__minimal.a(strspn.c.obj)
 .text.strcspn  0x00000000       0x28 zephyr/lib/libc/minimal/liblib__libc__minimal.a(strspn.c.obj)
 .debug_info    0x00000000      0x106 zephyr/lib/libc/minimal/liblib__libc__minimal.a(strspn.c.obj)
 .debug_abbrev  0x00000000       0xb8 zephyr/lib/libc/minimal/liblib__libc__minimal.a(strspn.c.obj)
 .debug_loc     0x00000000      0x148 zephyr/lib/libc/minimal/liblib__libc__minimal.a(strspn.c.obj)
 .debug_aranges
                0x00000000       0x28 zephyr/lib/libc/minimal/liblib__libc__minimal.a(strspn.c.obj)
 .debug_ranges  0x00000000       0x18 zephyr/lib/libc/minimal/liblib__libc__minimal.a(strspn.c.obj)
 .debug_line    0x00000000      0x13a zephyr/lib/libc/minimal/liblib__libc__minimal.a(strspn.c.obj)
 .debug_str     0x00000000      0x1e2 zephyr/lib/libc/minimal/liblib__libc__minimal.a(strspn.c.obj)
 .comment       0x00000000       0x80 zephyr/lib/libc/minimal/liblib__libc__minimal.a(strspn.c.obj)
 .debug_frame   0x00000000       0x48 zephyr/lib/libc/minimal/liblib__libc__minimal.a(strspn.c.obj)
 .text          0x00000000        0x0 zephyr/lib/libc/minimal/liblib__libc__minimal.a(prf.c.obj)
 .data          0x00000000        0x0 zephyr/lib/libc/minimal/liblib__libc__minimal.a(prf.c.obj)
 .bss           0x00000000        0x0 zephyr/lib/libc/minimal/liblib__libc__minimal.a(prf.c.obj)
 .text          0x00000000        0x0 zephyr/lib/libc/minimal/liblib__libc__minimal.a(stdout_console.c.obj)
 .data          0x00000000        0x0 zephyr/lib/libc/minimal/liblib__libc__minimal.a(stdout_console.c.obj)
 .bss           0x00000000        0x0 zephyr/lib/libc/minimal/liblib__libc__minimal.a(stdout_console.c.obj)
 .text._stdout_hook_default
                0x00000000        0x8 zephyr/lib/libc/minimal/liblib__libc__minimal.a(stdout_console.c.obj)
 .text.z_impl_zephyr_fwrite.part.0
                0x00000000       0x38 zephyr/lib/libc/minimal/liblib__libc__minimal.a(stdout_console.c.obj)
 .text.__stdout_hook_install
                0x00000000        0xc zephyr/lib/libc/minimal/liblib__libc__minimal.a(stdout_console.c.obj)
 .text.z_impl_zephyr_fputc
                0x00000000       0x14 zephyr/lib/libc/minimal/liblib__libc__minimal.a(stdout_console.c.obj)
 .text.fputc    0x00000000       0x14 zephyr/lib/libc/minimal/liblib__libc__minimal.a(stdout_console.c.obj)
 .text.fputs    0x00000000       0x2c zephyr/lib/libc/minimal/liblib__libc__minimal.a(stdout_console.c.obj)
 .text.z_impl_zephyr_fwrite
                0x00000000       0x1c zephyr/lib/libc/minimal/liblib__libc__minimal.a(stdout_console.c.obj)
 .text.fwrite   0x00000000       0x1c zephyr/lib/libc/minimal/liblib__libc__minimal.a(stdout_console.c.obj)
 .text.puts     0x00000000       0x24 zephyr/lib/libc/minimal/liblib__libc__minimal.a(stdout_console.c.obj)
 .data._stdout_hook
                0x00000000        0x4 zephyr/lib/libc/minimal/liblib__libc__minimal.a(stdout_console.c.obj)
 .debug_info    0x00000000      0x7cb zephyr/lib/libc/minimal/liblib__libc__minimal.a(stdout_console.c.obj)
 .debug_abbrev  0x00000000      0x27b zephyr/lib/libc/minimal/liblib__libc__minimal.a(stdout_console.c.obj)
 .debug_loc     0x00000000      0x821 zephyr/lib/libc/minimal/liblib__libc__minimal.a(stdout_console.c.obj)
 .debug_aranges
                0x00000000       0x60 zephyr/lib/libc/minimal/liblib__libc__minimal.a(stdout_console.c.obj)
 .debug_ranges  0x00000000       0xb0 zephyr/lib/libc/minimal/liblib__libc__minimal.a(stdout_console.c.obj)
 .debug_line    0x00000000      0x24c zephyr/lib/libc/minimal/liblib__libc__minimal.a(stdout_console.c.obj)
 .debug_str     0x00000000      0x301 zephyr/lib/libc/minimal/liblib__libc__minimal.a(stdout_console.c.obj)
 .comment       0x00000000       0x80 zephyr/lib/libc/minimal/liblib__libc__minimal.a(stdout_console.c.obj)
 .debug_frame   0x00000000       0xf0 zephyr/lib/libc/minimal/liblib__libc__minimal.a(stdout_console.c.obj)
 .text          0x00000000        0x0 zephyr/lib/libc/minimal/liblib__libc__minimal.a(sprintf.c.obj)
 .data          0x00000000        0x0 zephyr/lib/libc/minimal/liblib__libc__minimal.a(sprintf.c.obj)
 .bss           0x00000000        0x0 zephyr/lib/libc/minimal/liblib__libc__minimal.a(sprintf.c.obj)
 .text.sprintf  0x00000000       0x34 zephyr/lib/libc/minimal/liblib__libc__minimal.a(sprintf.c.obj)
 .text.vsnprintf
                0x00000000       0x2c zephyr/lib/libc/minimal/liblib__libc__minimal.a(sprintf.c.obj)
 .text.vsprintf
                0x00000000       0x28 zephyr/lib/libc/minimal/liblib__libc__minimal.a(sprintf.c.obj)
 .text          0x00000000        0x0 zephyr/lib/libc/minimal/liblib__libc__minimal.a(fprintf.c.obj)
 .data          0x00000000        0x0 zephyr/lib/libc/minimal/liblib__libc__minimal.a(fprintf.c.obj)
 .bss           0x00000000        0x0 zephyr/lib/libc/minimal/liblib__libc__minimal.a(fprintf.c.obj)
 .text.fprintf  0x00000000       0x24 zephyr/lib/libc/minimal/liblib__libc__minimal.a(fprintf.c.obj)
 .text.vfprintf
                0x00000000       0x10 zephyr/lib/libc/minimal/liblib__libc__minimal.a(fprintf.c.obj)
 .text.printf   0x00000000       0x24 zephyr/lib/libc/minimal/liblib__libc__minimal.a(fprintf.c.obj)
 .text.vprintf  0x00000000       0x10 zephyr/lib/libc/minimal/liblib__libc__minimal.a(fprintf.c.obj)
 .debug_info    0x00000000      0x223 zephyr/lib/libc/minimal/liblib__libc__minimal.a(fprintf.c.obj)
 .debug_abbrev  0x00000000      0x120 zephyr/lib/libc/minimal/liblib__libc__minimal.a(fprintf.c.obj)
 .debug_loc     0x00000000       0xd6 zephyr/lib/libc/minimal/liblib__libc__minimal.a(fprintf.c.obj)
 .debug_aranges
                0x00000000       0x38 zephyr/lib/libc/minimal/liblib__libc__minimal.a(fprintf.c.obj)
 .debug_ranges  0x00000000       0x28 zephyr/lib/libc/minimal/liblib__libc__minimal.a(fprintf.c.obj)
 .debug_line    0x00000000      0x15e zephyr/lib/libc/minimal/liblib__libc__minimal.a(fprintf.c.obj)
 .debug_str     0x00000000      0x216 zephyr/lib/libc/minimal/liblib__libc__minimal.a(fprintf.c.obj)
 .comment       0x00000000       0x80 zephyr/lib/libc/minimal/liblib__libc__minimal.a(fprintf.c.obj)
 .debug_frame   0x00000000       0x94 zephyr/lib/libc/minimal/liblib__libc__minimal.a(fprintf.c.obj)
 .text          0x00000000        0x0 zephyr/lib/libc/minimal/liblib__libc__minimal.a(gmtime.c.obj)
 .data          0x00000000        0x0 zephyr/lib/libc/minimal/liblib__libc__minimal.a(gmtime.c.obj)
 .bss           0x00000000        0x0 zephyr/lib/libc/minimal/liblib__libc__minimal.a(gmtime.c.obj)
 .text.gmtime_r
                0x00000000      0x260 zephyr/lib/libc/minimal/liblib__libc__minimal.a(gmtime.c.obj)
 .text.gmtime   0x00000000        0xc zephyr/lib/libc/minimal/liblib__libc__minimal.a(gmtime.c.obj)
 .bss.shared.3690
                0x00000000       0x24 zephyr/lib/libc/minimal/liblib__libc__minimal.a(gmtime.c.obj)
 .debug_info    0x00000000      0x312 zephyr/lib/libc/minimal/liblib__libc__minimal.a(gmtime.c.obj)
 .debug_abbrev  0x00000000      0x192 zephyr/lib/libc/minimal/liblib__libc__minimal.a(gmtime.c.obj)
 .debug_loc     0x00000000      0x3c0 zephyr/lib/libc/minimal/liblib__libc__minimal.a(gmtime.c.obj)
 .debug_aranges
                0x00000000       0x28 zephyr/lib/libc/minimal/liblib__libc__minimal.a(gmtime.c.obj)
 .debug_ranges  0x00000000       0x40 zephyr/lib/libc/minimal/liblib__libc__minimal.a(gmtime.c.obj)
 .debug_line    0x00000000      0x1ed zephyr/lib/libc/minimal/liblib__libc__minimal.a(gmtime.c.obj)
 .debug_str     0x00000000      0x2e0 zephyr/lib/libc/minimal/liblib__libc__minimal.a(gmtime.c.obj)
 .comment       0x00000000       0x80 zephyr/lib/libc/minimal/liblib__libc__minimal.a(gmtime.c.obj)
 .debug_frame   0x00000000       0x48 zephyr/lib/libc/minimal/liblib__libc__minimal.a(gmtime.c.obj)
 .text          0x00000000        0x0 zephyr/lib/posix/liblib__posix.a(pthread_common.c.obj)
 .data          0x00000000        0x0 zephyr/lib/posix/liblib__posix.a(pthread_common.c.obj)
 .bss           0x00000000        0x0 zephyr/lib/posix/liblib__posix.a(pthread_common.c.obj)
 .text.timespec_to_timeoutms
                0x00000000       0xb8 zephyr/lib/posix/liblib__posix.a(pthread_common.c.obj)
 .debug_info    0x00000000      0x98a zephyr/lib/posix/liblib__posix.a(pthread_common.c.obj)
 .debug_abbrev  0x00000000      0x1e9 zephyr/lib/posix/liblib__posix.a(pthread_common.c.obj)
 .debug_loc     0x00000000      0x115 zephyr/lib/posix/liblib__posix.a(pthread_common.c.obj)
 .debug_aranges
                0x00000000       0x20 zephyr/lib/posix/liblib__posix.a(pthread_common.c.obj)
 .debug_ranges  0x00000000       0x10 zephyr/lib/posix/liblib__posix.a(pthread_common.c.obj)
 .debug_line    0x00000000      0x428 zephyr/lib/posix/liblib__posix.a(pthread_common.c.obj)
 .debug_str     0x00000000      0x776 zephyr/lib/posix/liblib__posix.a(pthread_common.c.obj)
 .comment       0x00000000       0x80 zephyr/lib/posix/liblib__posix.a(pthread_common.c.obj)
 .debug_frame   0x00000000       0x44 zephyr/lib/posix/liblib__posix.a(pthread_common.c.obj)
 .text          0x00000000        0x0 zephyr/soc/arm/nordic_nrf/nrf52/libsoc__arm__nordic_nrf__nrf52.a(soc.c.obj)
 .data          0x00000000        0x0 zephyr/soc/arm/nordic_nrf/nrf52/libsoc__arm__nordic_nrf__nrf52.a(soc.c.obj)
 .bss           0x00000000        0x0 zephyr/soc/arm/nordic_nrf/nrf52/libsoc__arm__nordic_nrf__nrf52.a(soc.c.obj)
 .text          0x00000000        0x0 zephyr/soc/arm/nordic_nrf/nrf52/libsoc__arm__nordic_nrf__nrf52.a(power.c.obj)
 .data          0x00000000        0x0 zephyr/soc/arm/nordic_nrf/nrf52/libsoc__arm__nordic_nrf__nrf52.a(power.c.obj)
 .bss           0x00000000        0x0 zephyr/soc/arm/nordic_nrf/nrf52/libsoc__arm__nordic_nrf__nrf52.a(power.c.obj)
 .text          0x00000000        0x0 zephyr/soc/arm/nordic_nrf/nrf52/libsoc__arm__nordic_nrf__nrf52.a(mpu_regions.c.obj)
 .data          0x00000000        0x0 zephyr/soc/arm/nordic_nrf/nrf52/libsoc__arm__nordic_nrf__nrf52.a(mpu_regions.c.obj)
 .bss           0x00000000        0x0 zephyr/soc/arm/nordic_nrf/nrf52/libsoc__arm__nordic_nrf__nrf52.a(mpu_regions.c.obj)
 .text          0x00000000        0x0 zephyr/subsys/bluetooth/common/libsubsys__bluetooth__common.a(dummy.c.obj)
 .data          0x00000000        0x0 zephyr/subsys/bluetooth/common/libsubsys__bluetooth__common.a(dummy.c.obj)
 .bss           0x00000000        0x0 zephyr/subsys/bluetooth/common/libsubsys__bluetooth__common.a(dummy.c.obj)
 .debug_info    0x00000000      0x81b zephyr/subsys/bluetooth/common/libsubsys__bluetooth__common.a(dummy.c.obj)
 .debug_abbrev  0x00000000      0x157 zephyr/subsys/bluetooth/common/libsubsys__bluetooth__common.a(dummy.c.obj)
 .debug_aranges
                0x00000000       0x18 zephyr/subsys/bluetooth/common/libsubsys__bluetooth__common.a(dummy.c.obj)
 .debug_line    0x00000000      0x2d5 zephyr/subsys/bluetooth/common/libsubsys__bluetooth__common.a(dummy.c.obj)
 .debug_str     0x00000000      0x697 zephyr/subsys/bluetooth/common/libsubsys__bluetooth__common.a(dummy.c.obj)
 .comment       0x00000000       0x80 zephyr/subsys/bluetooth/common/libsubsys__bluetooth__common.a(dummy.c.obj)
 .text          0x00000000        0x0 zephyr/subsys/bluetooth/common/libsubsys__bluetooth__common.a(log.c.obj)
 .data          0x00000000        0x0 zephyr/subsys/bluetooth/common/libsubsys__bluetooth__common.a(log.c.obj)
 .bss           0x00000000        0x0 zephyr/subsys/bluetooth/common/libsubsys__bluetooth__common.a(log.c.obj)
 .text.bt_hex_real
                0x00000000       0x4c zephyr/subsys/bluetooth/common/libsubsys__bluetooth__common.a(log.c.obj)
 .text.bt_addr_str_real
                0x00000000       0x34 zephyr/subsys/bluetooth/common/libsubsys__bluetooth__common.a(log.c.obj)
 .text.bt_addr_le_str_real
                0x00000000       0x84 zephyr/subsys/bluetooth/common/libsubsys__bluetooth__common.a(log.c.obj)
 .bss.str.9986  0x00000000       0x81 zephyr/subsys/bluetooth/common/libsubsys__bluetooth__common.a(log.c.obj)
 .bss.str.9995  0x00000000       0x12 zephyr/subsys/bluetooth/common/libsubsys__bluetooth__common.a(log.c.obj)
 .bss.str.9999  0x00000000       0x1e zephyr/subsys/bluetooth/common/libsubsys__bluetooth__common.a(log.c.obj)
 .rodata.bt_addr_le_str_real.str1.4
                0x00000000       0x53 zephyr/subsys/bluetooth/common/libsubsys__bluetooth__common.a(log.c.obj)
 .rodata.bt_addr_str_real.str1.4
                0x00000000       0x1e zephyr/subsys/bluetooth/common/libsubsys__bluetooth__common.a(log.c.obj)
 .rodata.hex.9985
                0x00000000       0x11 zephyr/subsys/bluetooth/common/libsubsys__bluetooth__common.a(log.c.obj)
 .debug_info    0x00000000      0xddf zephyr/subsys/bluetooth/common/libsubsys__bluetooth__common.a(log.c.obj)
 .debug_abbrev  0x00000000      0x2a9 zephyr/subsys/bluetooth/common/libsubsys__bluetooth__common.a(log.c.obj)
 .debug_loc     0x00000000      0x1b8 zephyr/subsys/bluetooth/common/libsubsys__bluetooth__common.a(log.c.obj)
 .debug_aranges
                0x00000000       0x30 zephyr/subsys/bluetooth/common/libsubsys__bluetooth__common.a(log.c.obj)
 .debug_ranges  0x00000000       0x40 zephyr/subsys/bluetooth/common/libsubsys__bluetooth__common.a(log.c.obj)
 .debug_line    0x00000000      0x41e zephyr/subsys/bluetooth/common/libsubsys__bluetooth__common.a(log.c.obj)
 .debug_str     0x00000000      0x7d2 zephyr/subsys/bluetooth/common/libsubsys__bluetooth__common.a(log.c.obj)
 .comment       0x00000000       0x80 zephyr/subsys/bluetooth/common/libsubsys__bluetooth__common.a(log.c.obj)
 .debug_frame   0x00000000       0x7c zephyr/subsys/bluetooth/common/libsubsys__bluetooth__common.a(log.c.obj)
 .text          0x00000000        0x0 zephyr/subsys/bluetooth/common/libsubsys__bluetooth__common.a(rpa.c.obj)
 .data          0x00000000        0x0 zephyr/subsys/bluetooth/common/libsubsys__bluetooth__common.a(rpa.c.obj)
 .bss           0x00000000        0x0 zephyr/subsys/bluetooth/common/libsubsys__bluetooth__common.a(rpa.c.obj)
 .text.bt_rpa_create
                0x00000000        0x8 zephyr/subsys/bluetooth/common/libsubsys__bluetooth__common.a(rpa.c.obj)
 .text          0x00000000        0x0 zephyr/subsys/bluetooth/host/libsubsys__bluetooth__host.a(hci_ecc.c.obj)
 .data          0x00000000        0x0 zephyr/subsys/bluetooth/host/libsubsys__bluetooth__host.a(hci_ecc.c.obj)
 .bss           0x00000000        0x0 zephyr/subsys/bluetooth/host/libsubsys__bluetooth__host.a(hci_ecc.c.obj)
 .text          0x00000000        0x0 zephyr/subsys/bluetooth/host/libsubsys__bluetooth__host.a(settings.c.obj)
 .data          0x00000000        0x0 zephyr/subsys/bluetooth/host/libsubsys__bluetooth__host.a(settings.c.obj)
 .bss           0x00000000        0x0 zephyr/subsys/bluetooth/host/libsubsys__bluetooth__host.a(settings.c.obj)
 .text          0x00000000        0x0 zephyr/subsys/bluetooth/host/libsubsys__bluetooth__host.a(uuid.c.obj)
 .data          0x00000000        0x0 zephyr/subsys/bluetooth/host/libsubsys__bluetooth__host.a(uuid.c.obj)
 .bss           0x00000000        0x0 zephyr/subsys/bluetooth/host/libsubsys__bluetooth__host.a(uuid.c.obj)
 .text          0x00000000        0x0 zephyr/subsys/bluetooth/host/libsubsys__bluetooth__host.a(hci_core.c.obj)
 .data          0x00000000        0x0 zephyr/subsys/bluetooth/host/libsubsys__bluetooth__host.a(hci_core.c.obj)
 .bss           0x00000000        0x0 zephyr/subsys/bluetooth/host/libsubsys__bluetooth__host.a(hci_core.c.obj)
 .text.bt_lookup_id_addr
                0x00000000       0x14 zephyr/subsys/bluetooth/host/libsubsys__bluetooth__host.a(hci_core.c.obj)
 .text.bt_addr_from_str
                0x00000000       0x84 zephyr/subsys/bluetooth/host/libsubsys__bluetooth__host.a(hci_core.c.obj)
 .text.bt_addr_le_from_str
                0x00000000       0xac zephyr/subsys/bluetooth/host/libsubsys__bluetooth__host.a(hci_core.c.obj)
 .text.bt_hci_get_conn_handle
                0x00000000       0x14 zephyr/subsys/bluetooth/host/libsubsys__bluetooth__host.a(hci_core.c.obj)
 .text.bt_addr_le_create_nrpa
                0x00000000       0x1c zephyr/subsys/bluetooth/host/libsubsys__bluetooth__host.a(hci_core.c.obj)
 .text.bt_addr_le_create_static
                0x00000000       0x1c zephyr/subsys/bluetooth/host/libsubsys__bluetooth__host.a(hci_core.c.obj)
 .text.bt_set_name
                0x00000000        0x8 zephyr/subsys/bluetooth/host/libsubsys__bluetooth__host.a(hci_core.c.obj)
 .text.bt_set_id_addr
                0x00000000       0x38 zephyr/subsys/bluetooth/host/libsubsys__bluetooth__host.a(hci_core.c.obj)
 .text.bt_id_delete
                0x00000000       0xb0 zephyr/subsys/bluetooth/host/libsubsys__bluetooth__host.a(hci_core.c.obj)
 .text.bt_le_whitelist_rem
                0x00000000       0x48 zephyr/subsys/bluetooth/host/libsubsys__bluetooth__host.a(hci_core.c.obj)
 .text.bt_le_set_chan_map
                0x00000000        0x8 zephyr/subsys/bluetooth/host/libsubsys__bluetooth__host.a(hci_core.c.obj)
 .text.bt_le_oob_get_local
                0x00000000       0x2c zephyr/subsys/bluetooth/host/libsubsys__bluetooth__host.a(hci_core.c.obj)
 .text.bt_le_oob_set_sc_data
                0x00000000        0x4 zephyr/subsys/bluetooth/host/libsubsys__bluetooth__host.a(hci_core.c.obj)
 .text.bt_le_oob_get_sc_data
                0x00000000        0x4 zephyr/subsys/bluetooth/host/libsubsys__bluetooth__host.a(hci_core.c.obj)
 .rodata.bt_addr_le_from_str.str1.4
                0x00000000       0x58 zephyr/subsys/bluetooth/host/libsubsys__bluetooth__host.a(hci_core.c.obj)
 .text          0x00000000        0x0 zephyr/subsys/bluetooth/host/libsubsys__bluetooth__host.a(conn.c.obj)
 .data          0x00000000        0x0 zephyr/subsys/bluetooth/host/libsubsys__bluetooth__host.a(conn.c.obj)
 .bss           0x00000000        0x0 zephyr/subsys/bluetooth/host/libsubsys__bluetooth__host.a(conn.c.obj)
 .text.bt_conn_le_start_encryption
                0x00000000       0x7c zephyr/subsys/bluetooth/host/libsubsys__bluetooth__host.a(conn.c.obj)
 .text.bt_conn_enc_key_size
                0x00000000       0x10 zephyr/subsys/bluetooth/host/libsubsys__bluetooth__host.a(conn.c.obj)
 .text.bt_conn_create_slave_le
                0x00000000       0xd0 zephyr/subsys/bluetooth/host/libsubsys__bluetooth__host.a(conn.c.obj)
 .text.bt_conn_auth_cb_register
                0x00000000       0x3c zephyr/subsys/bluetooth/host/libsubsys__bluetooth__host.a(conn.c.obj)
 .text.bt_conn_auth_passkey_entry
                0x00000000       0x20 zephyr/subsys/bluetooth/host/libsubsys__bluetooth__host.a(conn.c.obj)
 .text.bt_conn_auth_passkey_confirm
                0x00000000       0x1c zephyr/subsys/bluetooth/host/libsubsys__bluetooth__host.a(conn.c.obj)
 .text.bt_conn_auth_cancel
                0x00000000       0x1c zephyr/subsys/bluetooth/host/libsubsys__bluetooth__host.a(conn.c.obj)
 .text.bt_conn_auth_pairing_confirm
                0x00000000       0x1c zephyr/subsys/bluetooth/host/libsubsys__bluetooth__host.a(conn.c.obj)
 .text.bt_conn_lookup_id
                0x00000000       0x34 zephyr/subsys/bluetooth/host/libsubsys__bluetooth__host.a(conn.c.obj)
 .text          0x00000000        0x0 zephyr/subsys/bluetooth/host/libsubsys__bluetooth__host.a(l2cap.c.obj)
 .data          0x00000000        0x0 zephyr/subsys/bluetooth/host/libsubsys__bluetooth__host.a(l2cap.c.obj)
 .bss           0x00000000        0x0 zephyr/subsys/bluetooth/host/libsubsys__bluetooth__host.a(l2cap.c.obj)
 .text.bt_l2cap_chan_state_str
                0x00000000       0x18 zephyr/subsys/bluetooth/host/libsubsys__bluetooth__host.a(l2cap.c.obj)
 .text.bt_l2cap_chan_add
                0x00000000       0x28 zephyr/subsys/bluetooth/host/libsubsys__bluetooth__host.a(l2cap.c.obj)
 .rodata.CSWTCH.115
                0x00000000       0x14 zephyr/subsys/bluetooth/host/libsubsys__bluetooth__host.a(l2cap.c.obj)
 .rodata.bt_l2cap_chan_state_str.str1.4
                0x00000000        0x8 zephyr/subsys/bluetooth/host/libsubsys__bluetooth__host.a(l2cap.c.obj)
 .rodata.str1.4
                0x00000000       0x37 zephyr/subsys/bluetooth/host/libsubsys__bluetooth__host.a(l2cap.c.obj)
 .text          0x00000000        0x0 zephyr/subsys/bluetooth/host/libsubsys__bluetooth__host.a(att.c.obj)
 .data          0x00000000        0x0 zephyr/subsys/bluetooth/host/libsubsys__bluetooth__host.a(att.c.obj)
 .bss           0x00000000        0x0 zephyr/subsys/bluetooth/host/libsubsys__bluetooth__host.a(att.c.obj)
 .text.bt_att_get_mtu
                0x00000000       0x10 zephyr/subsys/bluetooth/host/libsubsys__bluetooth__host.a(att.c.obj)
 .text.bt_att_req_cancel
                0x00000000       0x7c zephyr/subsys/bluetooth/host/libsubsys__bluetooth__host.a(att.c.obj)
 .text          0x00000000        0x0 zephyr/subsys/bluetooth/host/libsubsys__bluetooth__host.a(gatt.c.obj)
 .data          0x00000000        0x0 zephyr/subsys/bluetooth/host/libsubsys__bluetooth__host.a(gatt.c.obj)
 .bss           0x00000000        0x0 zephyr/subsys/bluetooth/host/libsubsys__bluetooth__host.a(gatt.c.obj)
 .text.get_service_handles
                0x00000000       0x48 zephyr/subsys/bluetooth/host/libsubsys__bluetooth__host.a(gatt.c.obj)
 .text.find_next
                0x00000000        0x8 zephyr/subsys/bluetooth/host/libsubsys__bluetooth__host.a(gatt.c.obj)
 .text.bt_gatt_service_unregister
                0x00000000       0x68 zephyr/subsys/bluetooth/host/libsubsys__bluetooth__host.a(gatt.c.obj)
 .text.bt_gatt_attr_read_included
                0x00000000       0xf0 zephyr/subsys/bluetooth/host/libsubsys__bluetooth__host.a(gatt.c.obj)
 .text.bt_gatt_attr_next
                0x00000000       0x90 zephyr/subsys/bluetooth/host/libsubsys__bluetooth__host.a(gatt.c.obj)
 .text.bt_gatt_attr_read_cep
                0x00000000       0x38 zephyr/subsys/bluetooth/host/libsubsys__bluetooth__host.a(gatt.c.obj)
 .text.bt_gatt_attr_read_cud
                0x00000000       0x3c zephyr/subsys/bluetooth/host/libsubsys__bluetooth__host.a(gatt.c.obj)
 .text.bt_gatt_attr_read_cpf
                0x00000000       0x2c zephyr/subsys/bluetooth/host/libsubsys__bluetooth__host.a(gatt.c.obj)
 .text.bt_gatt_get_mtu
                0x00000000        0x4 zephyr/subsys/bluetooth/host/libsubsys__bluetooth__host.a(gatt.c.obj)
 .text.bt_gatt_is_subscribed
                0x00000000       0xb0 zephyr/subsys/bluetooth/host/libsubsys__bluetooth__host.a(gatt.c.obj)
 .text          0x00000000        0x0 zephyr/subsys/bluetooth/host/libsubsys__bluetooth__host.a(smp.c.obj)
 .data          0x00000000        0x0 zephyr/subsys/bluetooth/host/libsubsys__bluetooth__host.a(smp.c.obj)
 .bss           0x00000000        0x0 zephyr/subsys/bluetooth/host/libsubsys__bluetooth__host.a(smp.c.obj)
 .text.bt_set_bondable
                0x00000000        0xc zephyr/subsys/bluetooth/host/libsubsys__bluetooth__host.a(smp.c.obj)
 .text.bt_set_oob_data_flag
                0x00000000        0xc zephyr/subsys/bluetooth/host/libsubsys__bluetooth__host.a(smp.c.obj)
 .text.bt_smp_auth_passkey_entry
                0x00000000       0xf0 zephyr/subsys/bluetooth/host/libsubsys__bluetooth__host.a(smp.c.obj)
 .text.bt_smp_auth_passkey_confirm
                0x00000000       0xa4 zephyr/subsys/bluetooth/host/libsubsys__bluetooth__host.a(smp.c.obj)
 .text.bt_smp_le_oob_generate_sc_data
                0x00000000       0x48 zephyr/subsys/bluetooth/host/libsubsys__bluetooth__host.a(smp.c.obj)
 .text.bt_smp_le_oob_set_sc_data
                0x00000000       0xe0 zephyr/subsys/bluetooth/host/libsubsys__bluetooth__host.a(smp.c.obj)
 .text.bt_smp_le_oob_get_sc_data
                0x00000000       0x3c zephyr/subsys/bluetooth/host/libsubsys__bluetooth__host.a(smp.c.obj)
 .text.bt_smp_auth_cancel
                0x00000000       0x70 zephyr/subsys/bluetooth/host/libsubsys__bluetooth__host.a(smp.c.obj)
 .text.bt_smp_auth_pairing_confirm
                0x00000000       0x8c zephyr/subsys/bluetooth/host/libsubsys__bluetooth__host.a(smp.c.obj)
 .text          0x00000000        0x0 zephyr/subsys/bluetooth/host/libsubsys__bluetooth__host.a(keys.c.obj)
 .data          0x00000000        0x0 zephyr/subsys/bluetooth/host/libsubsys__bluetooth__host.a(keys.c.obj)
 .bss           0x00000000        0x0 zephyr/subsys/bluetooth/host/libsubsys__bluetooth__host.a(keys.c.obj)
 .text          0x00000000        0x0 zephyr/subsys/net/libsubsys__net.a(buf.c.obj)
 .data          0x00000000        0x0 zephyr/subsys/net/libsubsys__net.a(buf.c.obj)
 .bss           0x00000000        0x0 zephyr/subsys/net/libsubsys__net.a(buf.c.obj)
 .text.generic_data_ref
                0x00000000       0x10 zephyr/subsys/net/libsubsys__net.a(buf.c.obj)
 .text.mem_pool_data_alloc
                0x00000000       0x40 zephyr/subsys/net/libsubsys__net.a(buf.c.obj)
 .text.heap_data_unref
                0x00000000       0x18 zephyr/subsys/net/libsubsys__net.a(buf.c.obj)
 .text.heap_data_alloc
                0x00000000       0x14 zephyr/subsys/net/libsubsys__net.a(buf.c.obj)
 .text.mem_pool_data_unref
                0x00000000       0x2c zephyr/subsys/net/libsubsys__net.a(buf.c.obj)
 .text.net_buf_id
                0x00000000       0x20 zephyr/subsys/net/libsubsys__net.a(buf.c.obj)
 .text.net_buf_reset
                0x00000000        0xc zephyr/subsys/net/libsubsys__net.a(buf.c.obj)
 .text.net_buf_alloc_with_data
                0x00000000       0x20 zephyr/subsys/net/libsubsys__net.a(buf.c.obj)
 .text.net_buf_slist_put
                0x00000000       0x48 zephyr/subsys/net/libsubsys__net.a(buf.c.obj)
 .text.net_buf_slist_get
                0x00000000       0x84 zephyr/subsys/net/libsubsys__net.a(buf.c.obj)
 .text.net_buf_clone
                0x00000000       0xd8 zephyr/subsys/net/libsubsys__net.a(buf.c.obj)
 .text.net_buf_frag_last
                0x00000000        0xc zephyr/subsys/net/libsubsys__net.a(buf.c.obj)
 .text.net_buf_frag_insert
                0x00000000       0x1c zephyr/subsys/net/libsubsys__net.a(buf.c.obj)
 .text.net_buf_frag_add
                0x00000000       0x1c zephyr/subsys/net/libsubsys__net.a(buf.c.obj)
 .text.net_buf_frag_del
                0x00000000       0x18 zephyr/subsys/net/libsubsys__net.a(buf.c.obj)
 .text.net_buf_linearize
                0x00000000       0x6c zephyr/subsys/net/libsubsys__net.a(buf.c.obj)
 .text.net_buf_append_bytes
                0x00000000       0x78 zephyr/subsys/net/libsubsys__net.a(buf.c.obj)
 .text.net_buf_simple_clone
                0x00000000        0xc zephyr/subsys/net/libsubsys__net.a(buf.c.obj)
 .text.net_buf_simple_add_le16
                0x00000000       0x18 zephyr/subsys/net/libsubsys__net.a(buf.c.obj)
 .text.net_buf_simple_add_be16
                0x00000000       0x18 zephyr/subsys/net/libsubsys__net.a(buf.c.obj)
 .text.net_buf_simple_add_le32
                0x00000000       0x20 zephyr/subsys/net/libsubsys__net.a(buf.c.obj)
 .text.net_buf_simple_add_be32
                0x00000000       0x20 zephyr/subsys/net/libsubsys__net.a(buf.c.obj)
 .text.net_buf_simple_push_le16
                0x00000000       0x1c zephyr/subsys/net/libsubsys__net.a(buf.c.obj)
 .text.net_buf_simple_push_be16
                0x00000000       0x1c zephyr/subsys/net/libsubsys__net.a(buf.c.obj)
 .text.net_buf_simple_push_u8
                0x00000000       0x18 zephyr/subsys/net/libsubsys__net.a(buf.c.obj)
 .text.net_buf_simple_pull_u8
                0x00000000       0x14 zephyr/subsys/net/libsubsys__net.a(buf.c.obj)
 .text.net_buf_simple_pull_be16
                0x00000000       0x1c zephyr/subsys/net/libsubsys__net.a(buf.c.obj)
 .text.net_buf_simple_pull_le32
                0x00000000       0x14 zephyr/subsys/net/libsubsys__net.a(buf.c.obj)
 .text.net_buf_simple_pull_be32
                0x00000000       0x14 zephyr/subsys/net/libsubsys__net.a(buf.c.obj)
 .rodata.net_buf_heap_alloc
                0x00000000        0x8 zephyr/subsys/net/libsubsys__net.a(buf.c.obj)
 .rodata.net_buf_heap_cb
                0x00000000        0xc zephyr/subsys/net/libsubsys__net.a(buf.c.obj)
 .rodata.net_buf_var_cb
                0x00000000        0xc zephyr/subsys/net/libsubsys__net.a(buf.c.obj)
 .text          0x00000000        0x0 zephyr/subsys/usb/class/hid/libsubsys__usb__class__hid.a(core.c.obj)
 .data          0x00000000        0x0 zephyr/subsys/usb/class/hid/libsubsys__usb__class__hid.a(core.c.obj)
 .bss           0x00000000        0x0 zephyr/subsys/usb/class/hid/libsubsys__usb__class__hid.a(core.c.obj)
 .text.hid_int_ep_read
                0x00000000        0x8 zephyr/subsys/usb/class/hid/libsubsys__usb__class__hid.a(core.c.obj)
 .text          0x00000000        0x0 zephyr/subsys/random/libsubsys__random.a(rand32_entropy_device.c.obj)
 .data          0x00000000        0x0 zephyr/subsys/random/libsubsys__random.a(rand32_entropy_device.c.obj)
 .bss           0x00000000        0x0 zephyr/subsys/random/libsubsys__random.a(rand32_entropy_device.c.obj)
 .text.rand_get
                0x00000000       0x64 zephyr/subsys/random/libsubsys__random.a(rand32_entropy_device.c.obj)
 .text.sys_rand_get
                0x00000000        0x4 zephyr/subsys/random/libsubsys__random.a(rand32_entropy_device.c.obj)
 .text.sys_csrand_get
                0x00000000        0xc zephyr/subsys/random/libsubsys__random.a(rand32_entropy_device.c.obj)
 .text          0x00000000        0x0 zephyr/drivers/adc/libdrivers__adc.a(adc_nrfx_saadc.c.obj)
 .data          0x00000000        0x0 zephyr/drivers/adc/libdrivers__adc.a(adc_nrfx_saadc.c.obj)
 .bss           0x00000000        0x0 zephyr/drivers/adc/libdrivers__adc.a(adc_nrfx_saadc.c.obj)
 .text          0x00000000        0x0 zephyr/drivers/gpio/libdrivers__gpio.a(gpio_nrfx.c.obj)
 .data          0x00000000        0x0 zephyr/drivers/gpio/libdrivers__gpio.a(gpio_nrfx.c.obj)
 .bss           0x00000000        0x0 zephyr/drivers/gpio/libdrivers__gpio.a(gpio_nrfx.c.obj)
 .text          0x00000000        0x0 zephyr/drivers/pwm/libdrivers__pwm.a(pwm_nrfx.c.obj)
 .data          0x00000000        0x0 zephyr/drivers/pwm/libdrivers__pwm.a(pwm_nrfx.c.obj)
 .bss           0x00000000        0x0 zephyr/drivers/pwm/libdrivers__pwm.a(pwm_nrfx.c.obj)
 .text          0x00000000        0x0 zephyr/drivers/sensor/qdec_nrfx/libdrivers__sensor__qdec_nrfx.a(qdec_nrfx.c.obj)
 .data          0x00000000        0x0 zephyr/drivers/sensor/qdec_nrfx/libdrivers__sensor__qdec_nrfx.a(qdec_nrfx.c.obj)
 .bss           0x00000000        0x0 zephyr/drivers/sensor/qdec_nrfx/libdrivers__sensor__qdec_nrfx.a(qdec_nrfx.c.obj)
 .text          0x00000000        0x0 zephyr/drivers/sensor/nrf5/libdrivers__sensor__nrf5.a(temp_nrf5.c.obj)
 .data          0x00000000        0x0 zephyr/drivers/sensor/nrf5/libdrivers__sensor__nrf5.a(temp_nrf5.c.obj)
 .bss           0x00000000        0x0 zephyr/drivers/sensor/nrf5/libdrivers__sensor__nrf5.a(temp_nrf5.c.obj)
 .text          0x00000000        0x0 zephyr/drivers/spi/libdrivers__spi.a(spi_nrfx_spim.c.obj)
 .data          0x00000000        0x0 zephyr/drivers/spi/libdrivers__spi.a(spi_nrfx_spim.c.obj)
 .bss           0x00000000        0x0 zephyr/drivers/spi/libdrivers__spi.a(spi_nrfx_spim.c.obj)
 .text          0x00000000        0x0 zephyr/drivers/flash/libdrivers__flash.a(flash_page_layout.c.obj)
 .data          0x00000000        0x0 zephyr/drivers/flash/libdrivers__flash.a(flash_page_layout.c.obj)
 .bss           0x00000000        0x0 zephyr/drivers/flash/libdrivers__flash.a(flash_page_layout.c.obj)
 .text.flash_get_page_info
                0x00000000       0xa4 zephyr/drivers/flash/libdrivers__flash.a(flash_page_layout.c.obj)
 .text.z_impl_flash_get_page_info_by_offs
                0x00000000        0x8 zephyr/drivers/flash/libdrivers__flash.a(flash_page_layout.c.obj)
 .text.z_impl_flash_get_page_info_by_idx
                0x00000000        0x8 zephyr/drivers/flash/libdrivers__flash.a(flash_page_layout.c.obj)
 .text.z_impl_flash_get_page_count
                0x00000000       0x34 zephyr/drivers/flash/libdrivers__flash.a(flash_page_layout.c.obj)
 .text          0x00000000        0x0 zephyr/drivers/flash/libdrivers__flash.a(flash_ll_nrfxlib.c.obj)
 .data          0x00000000        0x0 zephyr/drivers/flash/libdrivers__flash.a(flash_ll_nrfxlib.c.obj)
 .bss           0x00000000        0x0 zephyr/drivers/flash/libdrivers__flash.a(flash_ll_nrfxlib.c.obj)
 .text          0x00000000        0x0 zephyr/drivers/entropy/libdrivers__entropy.a(entropy_ll_nrfxlib.c.obj)
 .data          0x00000000        0x0 zephyr/drivers/entropy/libdrivers__entropy.a(entropy_ll_nrfxlib.c.obj)
 .bss           0x00000000        0x0 zephyr/drivers/entropy/libdrivers__entropy.a(entropy_ll_nrfxlib.c.obj)
 .text          0x00000000        0x0 zephyr/modules/nrf/lib/multithreading_lock/lib..__nrf__lib__multithreading_lock.a(multithreading_lock.c.obj)
 .data          0x00000000        0x0 zephyr/modules/nrf/lib/multithreading_lock/lib..__nrf__lib__multithreading_lock.a(multithreading_lock.c.obj)
 .bss           0x00000000        0x0 zephyr/modules/nrf/lib/multithreading_lock/lib..__nrf__lib__multithreading_lock.a(multithreading_lock.c.obj)
 .text          0x00000000        0x0 zephyr/modules/nrf/subsys/bluetooth/controller/lib..__nrf__subsys__bluetooth__controller.a(hci_driver.c.obj)
 .data          0x00000000        0x0 zephyr/modules/nrf/subsys/bluetooth/controller/lib..__nrf__subsys__bluetooth__controller.a(hci_driver.c.obj)
 .bss           0x00000000        0x0 zephyr/modules/nrf/subsys/bluetooth/controller/lib..__nrf__subsys__bluetooth__controller.a(hci_driver.c.obj)
 .text          0x00000000        0x0 zephyr/modules/nrf/subsys/bluetooth/controller/lib..__nrf__subsys__bluetooth__controller.a(crypto.c.obj)
 .data          0x00000000        0x0 zephyr/modules/nrf/subsys/bluetooth/controller/lib..__nrf__subsys__bluetooth__controller.a(crypto.c.obj)
 .bss           0x00000000        0x0 zephyr/modules/nrf/subsys/bluetooth/controller/lib..__nrf__subsys__bluetooth__controller.a(crypto.c.obj)
 .text.bt_encrypt_be
                0x00000000       0x2c zephyr/modules/nrf/subsys/bluetooth/controller/lib..__nrf__subsys__bluetooth__controller.a(crypto.c.obj)
 .text          0x00000000        0x0 zephyr/modules/nrf/drivers/sensor/pmw3360/lib..__nrf__drivers__sensor__pmw3360.a(pmw3360.c.obj)
 .data          0x00000000        0x0 zephyr/modules/nrf/drivers/sensor/pmw3360/lib..__nrf__drivers__sensor__pmw3360.a(pmw3360.c.obj)
 .bss           0x00000000        0x0 zephyr/modules/nrf/drivers/sensor/pmw3360/lib..__nrf__drivers__sensor__pmw3360.a(pmw3360.c.obj)
 .text          0x00000000        0x0 zephyr/modules/nrf/drivers/sensor/pmw3360/lib..__nrf__drivers__sensor__pmw3360.a(pmw3360_priv.c.obj)
 .data          0x00000000        0x0 zephyr/modules/nrf/drivers/sensor/pmw3360/lib..__nrf__drivers__sensor__pmw3360.a(pmw3360_priv.c.obj)
 .bss           0x00000000        0x0 zephyr/modules/nrf/drivers/sensor/pmw3360/lib..__nrf__drivers__sensor__pmw3360.a(pmw3360_priv.c.obj)
 .text          0x00000000        0x0 zephyr/modules/nrf/drivers/clock_control/lib..__nrf__drivers__clock_control.a(clock_control_nrfxlib.c.obj)
 .data          0x00000000        0x0 zephyr/modules/nrf/drivers/clock_control/lib..__nrf__drivers__clock_control.a(clock_control_nrfxlib.c.obj)
 .bss           0x00000000        0x0 zephyr/modules/nrf/drivers/clock_control/lib..__nrf__drivers__clock_control.a(clock_control_nrfxlib.c.obj)
 .text          0x00000000        0x0 zephyr/modules/nrf/drivers/hw_cc310/lib..__nrf__drivers__hw_cc310.a(hw_cc310.c.obj)
 .data          0x00000000        0x0 zephyr/modules/nrf/drivers/hw_cc310/lib..__nrf__drivers__hw_cc310.a(hw_cc310.c.obj)
 .bss           0x00000000        0x0 zephyr/modules/nrf/drivers/hw_cc310/lib..__nrf__drivers__hw_cc310.a(hw_cc310.c.obj)
 .text          0x00000000        0x0 zephyr/modules/nordic/lib..__modules__hal__nordic.a(system_nrf52840.c.obj)
 .data          0x00000000        0x0 zephyr/modules/nordic/lib..__modules__hal__nordic.a(system_nrf52840.c.obj)
 .bss           0x00000000        0x0 zephyr/modules/nordic/lib..__modules__hal__nordic.a(system_nrf52840.c.obj)
 .text.SystemCoreClockUpdate
                0x00000000       0x10 zephyr/modules/nordic/lib..__modules__hal__nordic.a(system_nrf52840.c.obj)
 .text          0x00000000        0x0 zephyr/modules/nordic/lib..__modules__hal__nordic.a(nrfx_glue.c.obj)
 .data          0x00000000        0x0 zephyr/modules/nordic/lib..__modules__hal__nordic.a(nrfx_glue.c.obj)
 .bss           0x00000000        0x0 zephyr/modules/nordic/lib..__modules__hal__nordic.a(nrfx_glue.c.obj)
 .text.nrfx_busy_wait
                0x00000000        0x4 zephyr/modules/nordic/lib..__modules__hal__nordic.a(nrfx_glue.c.obj)
 .text          0x00000000        0x0 zephyr/modules/nordic/lib..__modules__hal__nordic.a(nrfx_nvmc.c.obj)
 .data          0x00000000        0x0 zephyr/modules/nordic/lib..__modules__hal__nordic.a(nrfx_nvmc.c.obj)
 .bss           0x00000000        0x0 zephyr/modules/nordic/lib..__modules__hal__nordic.a(nrfx_nvmc.c.obj)
 .text.nrfx_nvmc_page_erase
                0x00000000       0x40 zephyr/modules/nordic/lib..__modules__hal__nordic.a(nrfx_nvmc.c.obj)
 .text.nrfx_nvmc_uicr_erase
                0x00000000       0x2c zephyr/modules/nordic/lib..__modules__hal__nordic.a(nrfx_nvmc.c.obj)
 .text.nrfx_nvmc_all_erase
                0x00000000       0x24 zephyr/modules/nordic/lib..__modules__hal__nordic.a(nrfx_nvmc.c.obj)
 .text.nrfx_nvmc_page_partial_erase_init
                0x00000000       0x40 zephyr/modules/nordic/lib..__modules__hal__nordic.a(nrfx_nvmc.c.obj)
 .text.nrfx_nvmc_page_partial_erase_continue
                0x00000000       0x48 zephyr/modules/nordic/lib..__modules__hal__nordic.a(nrfx_nvmc.c.obj)
 .text.nrfx_nvmc_byte_writable_check
                0x00000000       0x10 zephyr/modules/nordic/lib..__modules__hal__nordic.a(nrfx_nvmc.c.obj)
 .text.nrfx_nvmc_word_writable_check
                0x00000000       0x10 zephyr/modules/nordic/lib..__modules__hal__nordic.a(nrfx_nvmc.c.obj)
 .text.nrfx_nvmc_byte_write
                0x00000000       0x44 zephyr/modules/nordic/lib..__modules__hal__nordic.a(nrfx_nvmc.c.obj)
 .text.nrfx_nvmc_word_write
                0x00000000       0x24 zephyr/modules/nordic/lib..__modules__hal__nordic.a(nrfx_nvmc.c.obj)
 .text.nrfx_nvmc_bytes_write
                0x00000000       0xd0 zephyr/modules/nordic/lib..__modules__hal__nordic.a(nrfx_nvmc.c.obj)
 .text.nrfx_nvmc_words_write
                0x00000000       0x40 zephyr/modules/nordic/lib..__modules__hal__nordic.a(nrfx_nvmc.c.obj)
 .bss.m_partial_erase_time_elapsed
                0x00000000        0x4 zephyr/modules/nordic/lib..__modules__hal__nordic.a(nrfx_nvmc.c.obj)
 .data.m_partial_erase_page_addr
                0x00000000        0x4 zephyr/modules/nordic/lib..__modules__hal__nordic.a(nrfx_nvmc.c.obj)
 .text          0x00000000        0x0 zephyr/modules/nordic/lib..__modules__hal__nordic.a(nrfx_pwm.c.obj)
 .data          0x00000000        0x0 zephyr/modules/nordic/lib..__modules__hal__nordic.a(nrfx_pwm.c.obj)
 .bss           0x00000000        0x0 zephyr/modules/nordic/lib..__modules__hal__nordic.a(nrfx_pwm.c.obj)
 .text.irq_handler
                0x00000000       0xac zephyr/modules/nordic/lib..__modules__hal__nordic.a(nrfx_pwm.c.obj)
 .text.nrfx_pwm_complex_playback
                0x00000000       0x68 zephyr/modules/nordic/lib..__modules__hal__nordic.a(nrfx_pwm.c.obj)
 .text.nrfx_pwm_0_irq_handler
                0x00000000       0x10 zephyr/modules/nordic/lib..__modules__hal__nordic.a(nrfx_pwm.c.obj)
 .text.nrfx_pwm_1_irq_handler
                0x00000000       0x10 zephyr/modules/nordic/lib..__modules__hal__nordic.a(nrfx_pwm.c.obj)
 .text          0x00000000        0x0 zephyr/modules/nordic/lib..__modules__hal__nordic.a(nrfx_qdec.c.obj)
 .data          0x00000000        0x0 zephyr/modules/nordic/lib..__modules__hal__nordic.a(nrfx_qdec.c.obj)
 .bss           0x00000000        0x0 zephyr/modules/nordic/lib..__modules__hal__nordic.a(nrfx_qdec.c.obj)
 .text          0x00000000        0x0 zephyr/modules/nordic/lib..__modules__hal__nordic.a(nrfx_spim.c.obj)
 .data          0x00000000        0x0 zephyr/modules/nordic/lib..__modules__hal__nordic.a(nrfx_spim.c.obj)
 .bss           0x00000000        0x0 zephyr/modules/nordic/lib..__modules__hal__nordic.a(nrfx_spim.c.obj)
 .text.nrfx_spim_abort
                0x00000000       0x24 zephyr/modules/nordic/lib..__modules__hal__nordic.a(nrfx_spim.c.obj)
 .text.nrfx_spim_start_task_get
                0x00000000        0x8 zephyr/modules/nordic/lib..__modules__hal__nordic.a(nrfx_spim.c.obj)
 .text.nrfx_spim_end_event_get
                0x00000000        0x8 zephyr/modules/nordic/lib..__modules__hal__nordic.a(nrfx_spim.c.obj)
 .text          0x00000000        0x0 zephyr/modules/nordic/lib..__modules__hal__nordic.a(nrfx_systick.c.obj)
 .data          0x00000000        0x0 zephyr/modules/nordic/lib..__modules__hal__nordic.a(nrfx_systick.c.obj)
 .bss           0x00000000        0x0 zephyr/modules/nordic/lib..__modules__hal__nordic.a(nrfx_systick.c.obj)
 .text.nrfx_systick_init
                0x00000000       0x14 zephyr/modules/nordic/lib..__modules__hal__nordic.a(nrfx_systick.c.obj)
 .text.nrfx_systick_get
                0x00000000        0xc zephyr/modules/nordic/lib..__modules__hal__nordic.a(nrfx_systick.c.obj)
 .text.nrfx_systick_test
                0x00000000       0x38 zephyr/modules/nordic/lib..__modules__hal__nordic.a(nrfx_systick.c.obj)
 .text.nrfx_systick_delay_ticks
                0x00000000       0x18 zephyr/modules/nordic/lib..__modules__hal__nordic.a(nrfx_systick.c.obj)
 .text.nrfx_systick_delay_ms
                0x00000000       0x58 zephyr/modules/nordic/lib..__modules__hal__nordic.a(nrfx_systick.c.obj)
 .text          0x00000000        0x0 zephyr/modules/nordic/lib..__modules__hal__nordic.a(nrfx_usbd.c.obj)
 .data          0x00000000        0x0 zephyr/modules/nordic/lib..__modules__hal__nordic.a(nrfx_usbd.c.obj)
 .bss           0x00000000        0x0 zephyr/modules/nordic/lib..__modules__hal__nordic.a(nrfx_usbd.c.obj)
 .text.nrfx_usbd_isoinconfig_set
                0x00000000        0xc zephyr/modules/nordic/lib..__modules__hal__nordic.a(nrfx_usbd.c.obj)
 .text.nrfx_usbd_isoinconfig_get
                0x00000000       0x10 zephyr/modules/nordic/lib..__modules__hal__nordic.a(nrfx_usbd.c.obj)
 .text.nrfx_usbd_is_initialized
                0x00000000       0x10 zephyr/modules/nordic/lib..__modules__hal__nordic.a(nrfx_usbd.c.obj)
 .text.nrfx_usbd_is_started
                0x00000000       0x20 zephyr/modules/nordic/lib..__modules__hal__nordic.a(nrfx_usbd.c.obj)
 .text.nrfx_usbd_wakeup_req
                0x00000000       0x80 zephyr/modules/nordic/lib..__modules__hal__nordic.a(nrfx_usbd.c.obj)
 .text.nrfx_usbd_suspend_check
                0x00000000       0x14 zephyr/modules/nordic/lib..__modules__hal__nordic.a(nrfx_usbd.c.obj)
 .text.nrfx_usbd_suspend_irq_config
                0x00000000       0x14 zephyr/modules/nordic/lib..__modules__hal__nordic.a(nrfx_usbd.c.obj)
 .text.nrfx_usbd_active_irq_config
                0x00000000       0x14 zephyr/modules/nordic/lib..__modules__hal__nordic.a(nrfx_usbd.c.obj)
 .text.nrfx_usbd_bus_suspend_check
                0x00000000        0xc zephyr/modules/nordic/lib..__modules__hal__nordic.a(nrfx_usbd.c.obj)
 .text.nrfx_usbd_force_bus_wakeup
                0x00000000        0xc zephyr/modules/nordic/lib..__modules__hal__nordic.a(nrfx_usbd.c.obj)
 .text.nrfx_usbd_ep_max_packet_size_get
                0x00000000       0x20 zephyr/modules/nordic/lib..__modules__hal__nordic.a(nrfx_usbd.c.obj)
 .text.nrfx_usbd_ep_enable_check
                0x00000000       0x20 zephyr/modules/nordic/lib..__modules__hal__nordic.a(nrfx_usbd.c.obj)
 .text.nrfx_usbd_ep_default_config
                0x00000000       0x24 zephyr/modules/nordic/lib..__modules__hal__nordic.a(nrfx_usbd.c.obj)
 .text.nrfx_usbd_ep_handled_transfer
                0x00000000       0xc4 zephyr/modules/nordic/lib..__modules__hal__nordic.a(nrfx_usbd.c.obj)
 .text.nrfx_usbd_feeder_buffer_get
                0x00000000        0x8 zephyr/modules/nordic/lib..__modules__hal__nordic.a(nrfx_usbd.c.obj)
 .text.nrfx_usbd_epout_size_get
                0x00000000       0x28 zephyr/modules/nordic/lib..__modules__hal__nordic.a(nrfx_usbd.c.obj)
 .text.nrfx_usbd_ep_is_busy
                0x00000000       0x34 zephyr/modules/nordic/lib..__modules__hal__nordic.a(nrfx_usbd.c.obj)
 .text.nrfx_usbd_ep_dtoggle_clear
                0x00000000       0x18 zephyr/modules/nordic/lib..__modules__hal__nordic.a(nrfx_usbd.c.obj)
 .text.nrfx_usbd_ep_abort
                0x00000000      0x130 zephyr/modules/nordic/lib..__modules__hal__nordic.a(nrfx_usbd.c.obj)
 .text          0x00000000        0x0 zephyr/modules/nordic/lib..__modules__hal__nordic.a(nrfx_wdt.c.obj)
 .data          0x00000000        0x0 zephyr/modules/nordic/lib..__modules__hal__nordic.a(nrfx_wdt.c.obj)
 .bss           0x00000000        0x0 zephyr/modules/nordic/lib..__modules__hal__nordic.a(nrfx_wdt.c.obj)
 .text.nrfx_wdt_feed
                0x00000000       0x30 zephyr/modules/nordic/lib..__modules__hal__nordic.a(nrfx_wdt.c.obj)
 .text          0x00000000        0x0 zephyr/kernel/libkernel.a(device.c.obj)
 .data          0x00000000        0x0 zephyr/kernel/libkernel.a(device.c.obj)
 .bss           0x00000000        0x0 zephyr/kernel/libkernel.a(device.c.obj)
 .text.device_any_busy_check
                0x00000000       0x34 zephyr/kernel/libkernel.a(device.c.obj)
 .text.device_busy_check
                0x00000000       0x3c zephyr/kernel/libkernel.a(device.c.obj)
 .text.device_busy_set
                0x00000000       0x44 zephyr/kernel/libkernel.a(device.c.obj)
 .text.device_busy_clear
                0x00000000       0x44 zephyr/kernel/libkernel.a(device.c.obj)
 .text          0x00000000        0x0 zephyr/kernel/libkernel.a(errno.c.obj)
 .data          0x00000000        0x0 zephyr/kernel/libkernel.a(errno.c.obj)
 .bss           0x00000000        0x0 zephyr/kernel/libkernel.a(errno.c.obj)
 .text          0x00000000        0x0 zephyr/kernel/libkernel.a(fatal.c.obj)
 .data          0x00000000        0x0 zephyr/kernel/libkernel.a(fatal.c.obj)
 .bss           0x00000000        0x0 zephyr/kernel/libkernel.a(fatal.c.obj)
 .text.k_fatal_halt
                0x00000000        0x8 zephyr/kernel/libkernel.a(fatal.c.obj)
 .text          0x00000000        0x0 zephyr/kernel/libkernel.a(idle.c.obj)
 .data          0x00000000        0x0 zephyr/kernel/libkernel.a(idle.c.obj)
 .bss           0x00000000        0x0 zephyr/kernel/libkernel.a(idle.c.obj)
 .text._sys_resume_from_deep_sleep
                0x00000000        0x4 zephyr/kernel/libkernel.a(idle.c.obj)
 .text          0x00000000        0x0 zephyr/kernel/libkernel.a(init.c.obj)
 .data          0x00000000        0x0 zephyr/kernel/libkernel.a(init.c.obj)
 .bss           0x00000000        0x0 zephyr/kernel/libkernel.a(init.c.obj)
 .text.main     0x00000000        0x4 zephyr/kernel/libkernel.a(init.c.obj)
 .text.z_early_boot_rand32_get
                0x00000000       0x68 zephyr/kernel/libkernel.a(init.c.obj)
 .rodata.z_early_boot_rand32_get.str1.4
                0x00000000        0xa zephyr/kernel/libkernel.a(init.c.obj)
 .text          0x00000000        0x0 zephyr/kernel/libkernel.a(mem_slab.c.obj)
 .data          0x00000000        0x0 zephyr/kernel/libkernel.a(mem_slab.c.obj)
 .bss           0x00000000        0x0 zephyr/kernel/libkernel.a(mem_slab.c.obj)
 .text          0x00000000        0x0 zephyr/kernel/libkernel.a(mempool.c.obj)
 .data          0x00000000        0x0 zephyr/kernel/libkernel.a(mempool.c.obj)
 .bss           0x00000000        0x0 zephyr/kernel/libkernel.a(mempool.c.obj)
 .text.k_calloc
                0x00000000       0x28 zephyr/kernel/libkernel.a(mempool.c.obj)
 .text.k_thread_system_pool_assign
                0x00000000        0xc zephyr/kernel/libkernel.a(mempool.c.obj)
 .text          0x00000000        0x0 zephyr/kernel/libkernel.a(mutex.c.obj)
 .data          0x00000000        0x0 zephyr/kernel/libkernel.a(mutex.c.obj)
 .bss           0x00000000        0x0 zephyr/kernel/libkernel.a(mutex.c.obj)
 .text          0x00000000        0x0 zephyr/kernel/libkernel.a(queue.c.obj)
 .data          0x00000000        0x0 zephyr/kernel/libkernel.a(queue.c.obj)
 .bss           0x00000000        0x0 zephyr/kernel/libkernel.a(queue.c.obj)
 .text.z_queue_node_peek
                0x00000000       0x1c zephyr/kernel/libkernel.a(queue.c.obj)
 .text.z_impl_k_queue_cancel_wait
                0x00000000       0x2c zephyr/kernel/libkernel.a(queue.c.obj)
 .text.k_queue_insert
                0x00000000        0x8 zephyr/kernel/libkernel.a(queue.c.obj)
 .text.z_impl_k_queue_alloc_append
                0x00000000        0xc zephyr/kernel/libkernel.a(queue.c.obj)
 .text.z_impl_k_queue_alloc_prepend
                0x00000000        0xc zephyr/kernel/libkernel.a(queue.c.obj)
 .text.k_queue_merge_slist
                0x00000000       0x14 zephyr/kernel/libkernel.a(queue.c.obj)
 .text          0x00000000        0x0 zephyr/kernel/libkernel.a(sched.c.obj)
 .data          0x00000000        0x0 zephyr/kernel/libkernel.a(sched.c.obj)
 .bss           0x00000000        0x0 zephyr/kernel/libkernel.a(sched.c.obj)
 .text.z_reset_time_slice
                0x00000000       0x10 zephyr/kernel/libkernel.a(sched.c.obj)
 .text.z_priq_dumb_add
                0x00000000       0x48 zephyr/kernel/libkernel.a(sched.c.obj)
 .text.z_pend_thread
                0x00000000        0x4 zephyr/kernel/libkernel.a(sched.c.obj)
 .text.z_thread_priority_set
                0x00000000       0x30 zephyr/kernel/libkernel.a(sched.c.obj)
 .text.z_priq_rb_lessthan
                0x00000000       0x24 zephyr/kernel/libkernel.a(sched.c.obj)
 .text.z_priq_rb_add
                0x00000000       0x60 zephyr/kernel/libkernel.a(sched.c.obj)
 .text.z_priq_rb_remove
                0x00000000       0x14 zephyr/kernel/libkernel.a(sched.c.obj)
 .text.z_priq_rb_best
                0x00000000        0x8 zephyr/kernel/libkernel.a(sched.c.obj)
 .text.z_priq_mq_add
                0x00000000       0x30 zephyr/kernel/libkernel.a(sched.c.obj)
 .text.z_priq_mq_remove
                0x00000000       0x3c zephyr/kernel/libkernel.a(sched.c.obj)
 .text.z_priq_mq_best
                0x00000000       0x24 zephyr/kernel/libkernel.a(sched.c.obj)
 .text.z_impl_k_thread_priority_get
                0x00000000        0x8 zephyr/kernel/libkernel.a(sched.c.obj)
 .text.z_impl_k_thread_priority_set
                0x00000000        0x4 zephyr/kernel/libkernel.a(sched.c.obj)
 .text.z_impl_k_usleep
                0x00000000       0x38 zephyr/kernel/libkernel.a(sched.c.obj)
 .text.z_impl_k_wakeup
                0x00000000       0x58 zephyr/kernel/libkernel.a(sched.c.obj)
 .text.z_impl_k_is_preempt_thread
                0x00000000       0x20 zephyr/kernel/libkernel.a(sched.c.obj)
 .text          0x00000000        0x0 zephyr/kernel/libkernel.a(sem.c.obj)
 .data          0x00000000        0x0 zephyr/kernel/libkernel.a(sem.c.obj)
 .bss           0x00000000        0x0 zephyr/kernel/libkernel.a(sem.c.obj)
 .text          0x00000000        0x0 zephyr/kernel/libkernel.a(system_work_q.c.obj)
 .data          0x00000000        0x0 zephyr/kernel/libkernel.a(system_work_q.c.obj)
 .bss           0x00000000        0x0 zephyr/kernel/libkernel.a(system_work_q.c.obj)
 .text          0x00000000        0x0 zephyr/kernel/libkernel.a(thread.c.obj)
 .data          0x00000000        0x0 zephyr/kernel/libkernel.a(thread.c.obj)
 .bss           0x00000000        0x0 zephyr/kernel/libkernel.a(thread.c.obj)
 .text.k_thread_foreach
                0x00000000        0x4 zephyr/kernel/libkernel.a(thread.c.obj)
 .text.z_thread_essential_set
                0x00000000       0x14 zephyr/kernel/libkernel.a(thread.c.obj)
 .text.z_thread_essential_clear
                0x00000000       0x14 zephyr/kernel/libkernel.a(thread.c.obj)
 .text.z_is_thread_essential
                0x00000000       0x10 zephyr/kernel/libkernel.a(thread.c.obj)
 .text.k_thread_name_get
                0x00000000        0x4 zephyr/kernel/libkernel.a(thread.c.obj)
 .text.z_impl_k_thread_name_copy
                0x00000000        0x8 zephyr/kernel/libkernel.a(thread.c.obj)
 .text.k_thread_state_str
                0x00000000       0x18 zephyr/kernel/libkernel.a(thread.c.obj)
 .text.z_thread_single_resume
                0x00000000       0x18 zephyr/kernel/libkernel.a(thread.c.obj)
 .text.z_impl_k_thread_resume
                0x00000000       0x28 zephyr/kernel/libkernel.a(thread.c.obj)
 .text.z_init_thread_base
                0x00000000       0x14 zephyr/kernel/libkernel.a(thread.c.obj)
 .text.k_thread_user_mode_enter
                0x00000000       0x1c zephyr/kernel/libkernel.a(thread.c.obj)
 .text.z_impl_k_float_disable
                0x00000000        0x8 zephyr/kernel/libkernel.a(thread.c.obj)
 .rodata.CSWTCH.50
                0x00000000      0x104 zephyr/kernel/libkernel.a(thread.c.obj)
 .rodata.k_thread_state_str.str1.4
                0x00000000        0x8 zephyr/kernel/libkernel.a(thread.c.obj)
 .rodata.str1.4
                0x00000000       0x43 zephyr/kernel/libkernel.a(thread.c.obj)
 .text          0x00000000        0x0 zephyr/kernel/libkernel.a(work_q.c.obj)
 .data          0x00000000        0x0 zephyr/kernel/libkernel.a(work_q.c.obj)
 .bss           0x00000000        0x0 zephyr/kernel/libkernel.a(work_q.c.obj)
 .text          0x00000000        0x0 zephyr/kernel/libkernel.a(timeout.c.obj)
 .data          0x00000000        0x0 zephyr/kernel/libkernel.a(timeout.c.obj)
 .bss           0x00000000        0x0 zephyr/kernel/libkernel.a(timeout.c.obj)
 .text          0x00000000        0x0 zephyr/kernel/libkernel.a(timer.c.obj)
 .data          0x00000000        0x0 zephyr/kernel/libkernel.a(timer.c.obj)
 .bss           0x00000000        0x0 zephyr/kernel/libkernel.a(timer.c.obj)
 .text.k_timer_init
                0x00000000       0x1c zephyr/kernel/libkernel.a(timer.c.obj)
 .text.z_impl_k_timer_status_get
                0x00000000       0x24 zephyr/kernel/libkernel.a(timer.c.obj)
 .text.z_impl_k_timer_status_sync
                0x00000000       0x50 zephyr/kernel/libkernel.a(timer.c.obj)
 .bss.lock      0x00000000        0x0 zephyr/kernel/libkernel.a(timer.c.obj)
 .text          0x00000000        0x0 zephyr/kernel/libkernel.a(poll.c.obj)
 .data          0x00000000        0x0 zephyr/kernel/libkernel.a(poll.c.obj)
 .bss           0x00000000        0x0 zephyr/kernel/libkernel.a(poll.c.obj)
 .text.triggered_work_expiration_handler
                0x00000000       0x48 zephyr/kernel/libkernel.a(poll.c.obj)
 .text.triggered_work_poller_cb
                0x00000000       0x4c zephyr/kernel/libkernel.a(poll.c.obj)
 .text.triggered_work_handler
                0x00000000       0x90 zephyr/kernel/libkernel.a(poll.c.obj)
 .text.z_impl_k_poll_signal_init
                0x00000000        0xc zephyr/kernel/libkernel.a(poll.c.obj)
 .text.z_impl_k_poll_signal_check
                0x00000000        0xc zephyr/kernel/libkernel.a(poll.c.obj)
 .text.k_work_poll_init
                0x00000000       0x1c zephyr/kernel/libkernel.a(poll.c.obj)
 .text.k_work_poll_submit_to_queue
                0x00000000      0x448 zephyr/kernel/libkernel.a(poll.c.obj)
 .text.k_work_poll_cancel
                0x00000000       0xb0 zephyr/kernel/libkernel.a(poll.c.obj)
 .text          0x00000000        0x0 zephyr/CMakeFiles/offsets.dir/arch/arm/core/offsets/offsets.c.obj
 .data          0x00000000        0x0 zephyr/CMakeFiles/offsets.dir/arch/arm/core/offsets/offsets.c.obj
 .bss           0x00000000        0x0 zephyr/CMakeFiles/offsets.dir/arch/arm/core/offsets/offsets.c.obj
 .text          0x00000000       0xa0 c:/program files (x86)/gnu tools arm embedded/7 2018-q2-update/bin/../lib/gcc/arm-none-eabi/7.3.1/thumb/v7e-m\libgcc.a(_aeabi_ldivmod.o)
 .data          0x00000000        0x0 c:/program files (x86)/gnu tools arm embedded/7 2018-q2-update/bin/../lib/gcc/arm-none-eabi/7.3.1/thumb/v7e-m\libgcc.a(_aeabi_ldivmod.o)
 .bss           0x00000000        0x0 c:/program files (x86)/gnu tools arm embedded/7 2018-q2-update/bin/../lib/gcc/arm-none-eabi/7.3.1/thumb/v7e-m\libgcc.a(_aeabi_ldivmod.o)
 .debug_frame   0x00000000       0x44 c:/program files (x86)/gnu tools arm embedded/7 2018-q2-update/bin/../lib/gcc/arm-none-eabi/7.3.1/thumb/v7e-m\libgcc.a(_aeabi_ldivmod.o)
 .data          0x00000000        0x0 c:/program files (x86)/gnu tools arm embedded/7 2018-q2-update/bin/../lib/gcc/arm-none-eabi/7.3.1/thumb/v7e-m\libgcc.a(_aeabi_uldivmod.o)
 .bss           0x00000000        0x0 c:/program files (x86)/gnu tools arm embedded/7 2018-q2-update/bin/../lib/gcc/arm-none-eabi/7.3.1/thumb/v7e-m\libgcc.a(_aeabi_uldivmod.o)
 .data          0x00000000        0x0 c:/program files (x86)/gnu tools arm embedded/7 2018-q2-update/bin/../lib/gcc/arm-none-eabi/7.3.1/thumb/v7e-m\libgcc.a(_udivmoddi4.o)
 .bss           0x00000000        0x0 c:/program files (x86)/gnu tools arm embedded/7 2018-q2-update/bin/../lib/gcc/arm-none-eabi/7.3.1/thumb/v7e-m\libgcc.a(_udivmoddi4.o)
 .ARM.extab     0x00000000        0x0 c:/program files (x86)/gnu tools arm embedded/7 2018-q2-update/bin/../lib/gcc/arm-none-eabi/7.3.1/thumb/v7e-m\libgcc.a(_udivmoddi4.o)
 .data          0x00000000        0x0 c:/program files (x86)/gnu tools arm embedded/7 2018-q2-update/bin/../lib/gcc/arm-none-eabi/7.3.1/thumb/v7e-m\libgcc.a(_dvmd_tls.o)
 .bss           0x00000000        0x0 c:/program files (x86)/gnu tools arm embedded/7 2018-q2-update/bin/../lib/gcc/arm-none-eabi/7.3.1/thumb/v7e-m\libgcc.a(_dvmd_tls.o)
 .text          0x00000000        0x0 C:/ncs.sojkk/nrfxlib/crypto/nrf_cc310_platform/lib/cortex-m4/soft-float/no-interrupts/libnrf_cc310_platform_0.9.1.a(nrf_cc310_platform.c.obj)
 .data          0x00000000        0x0 C:/ncs.sojkk/nrfxlib/crypto/nrf_cc310_platform/lib/cortex-m4/soft-float/no-interrupts/libnrf_cc310_platform_0.9.1.a(nrf_cc310_platform.c.obj)
 .bss           0x00000000        0x0 C:/ncs.sojkk/nrfxlib/crypto/nrf_cc310_platform/lib/cortex-m4/soft-float/no-interrupts/libnrf_cc310_platform_0.9.1.a(nrf_cc310_platform.c.obj)
 .text.nrf_cc310_platform_init
                0x00000000       0x44 C:/ncs.sojkk/nrfxlib/crypto/nrf_cc310_platform/lib/cortex-m4/soft-float/no-interrupts/libnrf_cc310_platform_0.9.1.a(nrf_cc310_platform.c.obj)
 .text.nrf_cc310_platform_deinit
                0x00000000       0x1c C:/ncs.sojkk/nrfxlib/crypto/nrf_cc310_platform/lib/cortex-m4/soft-float/no-interrupts/libnrf_cc310_platform_0.9.1.a(nrf_cc310_platform.c.obj)
 .text.nrf_cc310_platform_is_initialized
                0x00000000       0x14 C:/ncs.sojkk/nrfxlib/crypto/nrf_cc310_platform/lib/cortex-m4/soft-float/no-interrupts/libnrf_cc310_platform_0.9.1.a(nrf_cc310_platform.c.obj)
 .text.nrf_cc310_platform_rng_is_initialized
                0x00000000       0x14 C:/ncs.sojkk/nrfxlib/crypto/nrf_cc310_platform/lib/cortex-m4/soft-float/no-interrupts/libnrf_cc310_platform_0.9.1.a(nrf_cc310_platform.c.obj)
 .bss.nrf_cc310_platform_rng_initialized
                0x00000000        0x4 C:/ncs.sojkk/nrfxlib/crypto/nrf_cc310_platform/lib/cortex-m4/soft-float/no-interrupts/libnrf_cc310_platform_0.9.1.a(nrf_cc310_platform.c.obj)
 .text          0x00000000        0x0 C:/ncs.sojkk/nrfxlib/crypto/nrf_cc310_platform/lib/cortex-m4/soft-float/no-interrupts/libnrf_cc310_platform_0.9.1.a(nrf_cc310_platform_abort.c.obj)
 .data          0x00000000        0x0 C:/ncs.sojkk/nrfxlib/crypto/nrf_cc310_platform/lib/cortex-m4/soft-float/no-interrupts/libnrf_cc310_platform_0.9.1.a(nrf_cc310_platform_abort.c.obj)
 .bss           0x00000000        0x0 C:/ncs.sojkk/nrfxlib/crypto/nrf_cc310_platform/lib/cortex-m4/soft-float/no-interrupts/libnrf_cc310_platform_0.9.1.a(nrf_cc310_platform_abort.c.obj)
 .text          0x00000000        0x0 C:/ncs.sojkk/nrfxlib/crypto/nrf_cc310_platform/lib/cortex-m4/soft-float/no-interrupts/libnrf_cc310_platform_0.9.1.a(nrf_cc310_platform_mutex.c.obj)
 .data          0x00000000        0x0 C:/ncs.sojkk/nrfxlib/crypto/nrf_cc310_platform/lib/cortex-m4/soft-float/no-interrupts/libnrf_cc310_platform_0.9.1.a(nrf_cc310_platform_mutex.c.obj)
 .bss           0x00000000        0x0 C:/ncs.sojkk/nrfxlib/crypto/nrf_cc310_platform/lib/cortex-m4/soft-float/no-interrupts/libnrf_cc310_platform_0.9.1.a(nrf_cc310_platform_mutex.c.obj)
 .text          0x00000000        0x0 C:/ncs.sojkk/nrfxlib/crypto/nrf_cc310_platform/lib/cortex-m4/soft-float/no-interrupts/libnrf_cc310_platform_0.9.1.a(cc_lib.c.obj)
 .data          0x00000000        0x0 C:/ncs.sojkk/nrfxlib/crypto/nrf_cc310_platform/lib/cortex-m4/soft-float/no-interrupts/libnrf_cc310_platform_0.9.1.a(cc_lib.c.obj)
 .bss           0x00000000        0x0 C:/ncs.sojkk/nrfxlib/crypto/nrf_cc310_platform/lib/cortex-m4/soft-float/no-interrupts/libnrf_cc310_platform_0.9.1.a(cc_lib.c.obj)
 .text.CC_LibFini
                0x00000000       0x18 C:/ncs.sojkk/nrfxlib/crypto/nrf_cc310_platform/lib/cortex-m4/soft-float/no-interrupts/libnrf_cc310_platform_0.9.1.a(cc_lib.c.obj)
 .text.CC_LibInitRngModule
                0x00000000       0xb8 C:/ncs.sojkk/nrfxlib/crypto/nrf_cc310_platform/lib/cortex-m4/soft-float/no-interrupts/libnrf_cc310_platform_0.9.1.a(cc_lib.c.obj)
 .text.CC_LibInit
                0x00000000       0x84 C:/ncs.sojkk/nrfxlib/crypto/nrf_cc310_platform/lib/cortex-m4/soft-float/no-interrupts/libnrf_cc310_platform_0.9.1.a(cc_lib.c.obj)
 .text.__cyg_profile_func_enter
                0x00000000        0x4 C:/ncs.sojkk/nrfxlib/crypto/nrf_cc310_platform/lib/cortex-m4/soft-float/no-interrupts/libnrf_cc310_platform_0.9.1.a(cc_lib.c.obj)
 .text.__cyg_profile_func_exit
                0x00000000        0x4 C:/ncs.sojkk/nrfxlib/crypto/nrf_cc310_platform/lib/cortex-m4/soft-float/no-interrupts/libnrf_cc310_platform_0.9.1.a(cc_lib.c.obj)
 .rodata.CC_LibInitRngModule.str1.4
                0x00000000       0x6d C:/ncs.sojkk/nrfxlib/crypto/nrf_cc310_platform/lib/cortex-m4/soft-float/no-interrupts/libnrf_cc310_platform_0.9.1.a(cc_lib.c.obj)
 .text          0x00000000        0x0 C:/ncs.sojkk/nrfxlib/crypto/nrf_cc310_platform/lib/cortex-m4/soft-float/no-interrupts/libnrf_cc310_platform_0.9.1.a(cc_hal.c.obj)
 .data          0x00000000        0x0 C:/ncs.sojkk/nrfxlib/crypto/nrf_cc310_platform/lib/cortex-m4/soft-float/no-interrupts/libnrf_cc310_platform_0.9.1.a(cc_hal.c.obj)
 .bss           0x00000000        0x0 C:/ncs.sojkk/nrfxlib/crypto/nrf_cc310_platform/lib/cortex-m4/soft-float/no-interrupts/libnrf_cc310_platform_0.9.1.a(cc_hal.c.obj)
 .text.CC_HalClearInterruptBit
                0x00000000       0x1c C:/ncs.sojkk/nrfxlib/crypto/nrf_cc310_platform/lib/cortex-m4/soft-float/no-interrupts/libnrf_cc310_platform_0.9.1.a(cc_hal.c.obj)
 .text.CC_HalClearInterruptBitRNG
                0x00000000        0xc C:/ncs.sojkk/nrfxlib/crypto/nrf_cc310_platform/lib/cortex-m4/soft-float/no-interrupts/libnrf_cc310_platform_0.9.1.a(cc_hal.c.obj)
 .text.CC_HalMaskInterrupt
                0x00000000        0xc C:/ncs.sojkk/nrfxlib/crypto/nrf_cc310_platform/lib/cortex-m4/soft-float/no-interrupts/libnrf_cc310_platform_0.9.1.a(cc_hal.c.obj)
 .text.CC_HalWaitInterrupt
                0x00000000        0xc C:/ncs.sojkk/nrfxlib/crypto/nrf_cc310_platform/lib/cortex-m4/soft-float/no-interrupts/libnrf_cc310_platform_0.9.1.a(cc_hal.c.obj)
 .text.CC_HalWaitInterruptRND
                0x00000000        0xc C:/ncs.sojkk/nrfxlib/crypto/nrf_cc310_platform/lib/cortex-m4/soft-float/no-interrupts/libnrf_cc310_platform_0.9.1.a(cc_hal.c.obj)
 .text          0x00000000        0x0 C:/ncs.sojkk/nrfxlib/crypto/nrf_cc310_platform/lib/cortex-m4/soft-float/no-interrupts/libnrf_cc310_platform_0.9.1.a(cc_pal.c.obj)
 .data          0x00000000        0x0 C:/ncs.sojkk/nrfxlib/crypto/nrf_cc310_platform/lib/cortex-m4/soft-float/no-interrupts/libnrf_cc310_platform_0.9.1.a(cc_pal.c.obj)
 .bss           0x00000000        0x0 C:/ncs.sojkk/nrfxlib/crypto/nrf_cc310_platform/lib/cortex-m4/soft-float/no-interrupts/libnrf_cc310_platform_0.9.1.a(cc_pal.c.obj)
 .text          0x00000000        0x0 C:/ncs.sojkk/nrfxlib/crypto/nrf_cc310_platform/lib/cortex-m4/soft-float/no-interrupts/libnrf_cc310_platform_0.9.1.a(cc_pal_dma.c.obj)
 .data          0x00000000        0x0 C:/ncs.sojkk/nrfxlib/crypto/nrf_cc310_platform/lib/cortex-m4/soft-float/no-interrupts/libnrf_cc310_platform_0.9.1.a(cc_pal_dma.c.obj)
 .bss           0x00000000        0x0 C:/ncs.sojkk/nrfxlib/crypto/nrf_cc310_platform/lib/cortex-m4/soft-float/no-interrupts/libnrf_cc310_platform_0.9.1.a(cc_pal_dma.c.obj)
 .text          0x00000000        0x0 C:/ncs.sojkk/nrfxlib/crypto/nrf_cc310_platform/lib/cortex-m4/soft-float/no-interrupts/libnrf_cc310_platform_0.9.1.a(cc_pal_interrupt_ctrl.c.obj)
 .data          0x00000000        0x0 C:/ncs.sojkk/nrfxlib/crypto/nrf_cc310_platform/lib/cortex-m4/soft-float/no-interrupts/libnrf_cc310_platform_0.9.1.a(cc_pal_interrupt_ctrl.c.obj)
 .bss           0x00000000        0x0 C:/ncs.sojkk/nrfxlib/crypto/nrf_cc310_platform/lib/cortex-m4/soft-float/no-interrupts/libnrf_cc310_platform_0.9.1.a(cc_pal_interrupt_ctrl.c.obj)
 .text.CC_PalWaitInterruptRND
                0x00000000       0x34 C:/ncs.sojkk/nrfxlib/crypto/nrf_cc310_platform/lib/cortex-m4/soft-float/no-interrupts/libnrf_cc310_platform_0.9.1.a(cc_pal_interrupt_ctrl.c.obj)
 .text.CC_PalWaitInterrupt
                0x00000000       0x1c C:/ncs.sojkk/nrfxlib/crypto/nrf_cc310_platform/lib/cortex-m4/soft-float/no-interrupts/libnrf_cc310_platform_0.9.1.a(cc_pal_interrupt_ctrl.c.obj)
 .comment       0x00000000       0x80 C:/ncs.sojkk/nrfxlib/crypto/nrf_cc310_platform/lib/cortex-m4/soft-float/no-interrupts/libnrf_cc310_platform_0.9.1.a(cc_pal_interrupt_ctrl.c.obj)
 .text          0x00000000        0x0 C:/ncs.sojkk/nrfxlib/crypto/nrf_cc310_platform/lib/cortex-m4/soft-float/no-interrupts/libnrf_cc310_platform_0.9.1.a(cc_pal_mutex.c.obj)
 .data          0x00000000        0x0 C:/ncs.sojkk/nrfxlib/crypto/nrf_cc310_platform/lib/cortex-m4/soft-float/no-interrupts/libnrf_cc310_platform_0.9.1.a(cc_pal_mutex.c.obj)
 .bss           0x00000000        0x0 C:/ncs.sojkk/nrfxlib/crypto/nrf_cc310_platform/lib/cortex-m4/soft-float/no-interrupts/libnrf_cc310_platform_0.9.1.a(cc_pal_mutex.c.obj)
 .text.CC_PalMutexLock
                0x00000000       0x10 C:/ncs.sojkk/nrfxlib/crypto/nrf_cc310_platform/lib/cortex-m4/soft-float/no-interrupts/libnrf_cc310_platform_0.9.1.a(cc_pal_mutex.c.obj)
 .text.CC_PalMutexUnlock
                0x00000000       0x14 C:/ncs.sojkk/nrfxlib/crypto/nrf_cc310_platform/lib/cortex-m4/soft-float/no-interrupts/libnrf_cc310_platform_0.9.1.a(cc_pal_mutex.c.obj)
 .text          0x00000000        0x0 C:/ncs.sojkk/nrfxlib/crypto/nrf_cc310_platform/lib/cortex-m4/soft-float/no-interrupts/libnrf_cc310_platform_0.9.1.a(cc_pal_pm.c.obj)
 .data          0x00000000        0x0 C:/ncs.sojkk/nrfxlib/crypto/nrf_cc310_platform/lib/cortex-m4/soft-float/no-interrupts/libnrf_cc310_platform_0.9.1.a(cc_pal_pm.c.obj)
 .bss           0x00000000        0x0 C:/ncs.sojkk/nrfxlib/crypto/nrf_cc310_platform/lib/cortex-m4/soft-float/no-interrupts/libnrf_cc310_platform_0.9.1.a(cc_pal_pm.c.obj)
 .text.CC_PalPowerSaveModeStatus
                0x00000000        0xc C:/ncs.sojkk/nrfxlib/crypto/nrf_cc310_platform/lib/cortex-m4/soft-float/no-interrupts/libnrf_cc310_platform_0.9.1.a(cc_pal_pm.c.obj)
 .text          0x00000000        0x0 C:/ncs.sojkk/nrfxlib/crypto/nrf_cc310_platform/lib/cortex-m4/soft-float/no-interrupts/libnrf_cc310_platform_0.9.1.a(llf_rnd_trng90b.c.obj)
 .data          0x00000000        0x0 C:/ncs.sojkk/nrfxlib/crypto/nrf_cc310_platform/lib/cortex-m4/soft-float/no-interrupts/libnrf_cc310_platform_0.9.1.a(llf_rnd_trng90b.c.obj)
 .bss           0x00000000        0x0 C:/ncs.sojkk/nrfxlib/crypto/nrf_cc310_platform/lib/cortex-m4/soft-float/no-interrupts/libnrf_cc310_platform_0.9.1.a(llf_rnd_trng90b.c.obj)
 .text.LLF_RND_StartTrngHW
                0x00000000      0x128 C:/ncs.sojkk/nrfxlib/crypto/nrf_cc310_platform/lib/cortex-m4/soft-float/no-interrupts/libnrf_cc310_platform_0.9.1.a(llf_rnd_trng90b.c.obj)
 .text.LLF_RND_RepetitionCounterTest
                0x00000000       0x58 C:/ncs.sojkk/nrfxlib/crypto/nrf_cc310_platform/lib/cortex-m4/soft-float/no-interrupts/libnrf_cc310_platform_0.9.1.a(llf_rnd_trng90b.c.obj)
 .text.LLF_RND_AdaptiveProportionTest
                0x00000000       0x80 C:/ncs.sojkk/nrfxlib/crypto/nrf_cc310_platform/lib/cortex-m4/soft-float/no-interrupts/libnrf_cc310_platform_0.9.1.a(llf_rnd_trng90b.c.obj)
 .text.getTrngSource
                0x00000000      0x4b0 C:/ncs.sojkk/nrfxlib/crypto/nrf_cc310_platform/lib/cortex-m4/soft-float/no-interrupts/libnrf_cc310_platform_0.9.1.a(llf_rnd_trng90b.c.obj)
 .text.LLF_RND_GetTrngSource
                0x00000000       0x88 C:/ncs.sojkk/nrfxlib/crypto/nrf_cc310_platform/lib/cortex-m4/soft-float/no-interrupts/libnrf_cc310_platform_0.9.1.a(llf_rnd_trng90b.c.obj)
 .text.LLF_RND_RunTrngStartupTest
                0x00000000       0x1c C:/ncs.sojkk/nrfxlib/crypto/nrf_cc310_platform/lib/cortex-m4/soft-float/no-interrupts/libnrf_cc310_platform_0.9.1.a(llf_rnd_trng90b.c.obj)
 .rodata.LLF_RND_GetTrngSource.str1.4
                0x00000000       0x6f C:/ncs.sojkk/nrfxlib/crypto/nrf_cc310_platform/lib/cortex-m4/soft-float/no-interrupts/libnrf_cc310_platform_0.9.1.a(llf_rnd_trng90b.c.obj)
 .comment       0x00000000       0x80 C:/ncs.sojkk/nrfxlib/crypto/nrf_cc310_platform/lib/cortex-m4/soft-float/no-interrupts/libnrf_cc310_platform_0.9.1.a(llf_rnd_trng90b.c.obj)
 .text          0x00000000        0x0 C:/ncs.sojkk/nrfxlib/crypto/nrf_cc310_platform/lib/cortex-m4/soft-float/no-interrupts/libnrf_cc310_platform_0.9.1.a(cc_rng_plat.c.obj)
 .data          0x00000000        0x0 C:/ncs.sojkk/nrfxlib/crypto/nrf_cc310_platform/lib/cortex-m4/soft-float/no-interrupts/libnrf_cc310_platform_0.9.1.a(cc_rng_plat.c.obj)
 .bss           0x00000000        0x0 C:/ncs.sojkk/nrfxlib/crypto/nrf_cc310_platform/lib/cortex-m4/soft-float/no-interrupts/libnrf_cc310_platform_0.9.1.a(cc_rng_plat.c.obj)
 .text.RNG_PLAT_SetUserRngParameters
                0x00000000       0x7c C:/ncs.sojkk/nrfxlib/crypto/nrf_cc310_platform/lib/cortex-m4/soft-float/no-interrupts/libnrf_cc310_platform_0.9.1.a(cc_rng_plat.c.obj)
 .comment       0x00000000       0x80 C:/ncs.sojkk/nrfxlib/crypto/nrf_cc310_platform/lib/cortex-m4/soft-float/no-interrupts/libnrf_cc310_platform_0.9.1.a(cc_rng_plat.c.obj)
 .text          0x00000000        0x0 C:/ncs.sojkk/nrfxlib/crypto/nrf_cc310_platform/lib/cortex-m4/soft-float/no-interrupts/libnrf_cc310_platform_0.9.1.a(cc_pal_mem.c.obj)
 .data          0x00000000        0x0 C:/ncs.sojkk/nrfxlib/crypto/nrf_cc310_platform/lib/cortex-m4/soft-float/no-interrupts/libnrf_cc310_platform_0.9.1.a(cc_pal_mem.c.obj)
 .bss           0x00000000        0x0 C:/ncs.sojkk/nrfxlib/crypto/nrf_cc310_platform/lib/cortex-m4/soft-float/no-interrupts/libnrf_cc310_platform_0.9.1.a(cc_pal_mem.c.obj)
 .text.CC_PalSecMemCmp
                0x00000000       0x30 C:/ncs.sojkk/nrfxlib/crypto/nrf_cc310_platform/lib/cortex-m4/soft-float/no-interrupts/libnrf_cc310_platform_0.9.1.a(cc_pal_mem.c.obj)
 .text.CC_PalMemCmpPlat
                0x00000000        0x4 C:/ncs.sojkk/nrfxlib/crypto/nrf_cc310_platform/lib/cortex-m4/soft-float/no-interrupts/libnrf_cc310_platform_0.9.1.a(cc_pal_mem.c.obj)
 .text.CC_PalMemCopyPlat
                0x00000000        0x4 C:/ncs.sojkk/nrfxlib/crypto/nrf_cc310_platform/lib/cortex-m4/soft-float/no-interrupts/libnrf_cc310_platform_0.9.1.a(cc_pal_mem.c.obj)
 .text.CC_PalMemMovePlat
                0x00000000        0x4 C:/ncs.sojkk/nrfxlib/crypto/nrf_cc310_platform/lib/cortex-m4/soft-float/no-interrupts/libnrf_cc310_platform_0.9.1.a(cc_pal_mem.c.obj)
 .text.CC_PalMemSetPlat
                0x00000000        0x4 C:/ncs.sojkk/nrfxlib/crypto/nrf_cc310_platform/lib/cortex-m4/soft-float/no-interrupts/libnrf_cc310_platform_0.9.1.a(cc_pal_mem.c.obj)
 .text.CC_PalMemSetZeroPlat
                0x00000000        0x8 C:/ncs.sojkk/nrfxlib/crypto/nrf_cc310_platform/lib/cortex-m4/soft-float/no-interrupts/libnrf_cc310_platform_0.9.1.a(cc_pal_mem.c.obj)
 .text.CC_PalMemMallocPlat
                0x00000000        0x4 C:/ncs.sojkk/nrfxlib/crypto/nrf_cc310_platform/lib/cortex-m4/soft-float/no-interrupts/libnrf_cc310_platform_0.9.1.a(cc_pal_mem.c.obj)
 .text.CC_PalMemReallocPlat
                0x00000000        0x4 C:/ncs.sojkk/nrfxlib/crypto/nrf_cc310_platform/lib/cortex-m4/soft-float/no-interrupts/libnrf_cc310_platform_0.9.1.a(cc_pal_mem.c.obj)
 .text.CC_PalMemFreePlat
                0x00000000        0x4 C:/ncs.sojkk/nrfxlib/crypto/nrf_cc310_platform/lib/cortex-m4/soft-float/no-interrupts/libnrf_cc310_platform_0.9.1.a(cc_pal_mem.c.obj)
 .comment       0x00000000       0x80 C:/ncs.sojkk/nrfxlib/crypto/nrf_cc310_platform/lib/cortex-m4/soft-float/no-interrupts/libnrf_cc310_platform_0.9.1.a(cc_pal_mem.c.obj)
 .text          0x00000000        0x0 C:/ncs.sojkk/nrfxlib/crypto/nrf_cc310_platform/lib/cortex-m4/soft-float/no-interrupts/libnrf_cc310_platform_0.9.1.a(cc_pal_trng.c.obj)
 .data          0x00000000        0x0 C:/ncs.sojkk/nrfxlib/crypto/nrf_cc310_platform/lib/cortex-m4/soft-float/no-interrupts/libnrf_cc310_platform_0.9.1.a(cc_pal_trng.c.obj)
 .bss           0x00000000        0x0 C:/ncs.sojkk/nrfxlib/crypto/nrf_cc310_platform/lib/cortex-m4/soft-float/no-interrupts/libnrf_cc310_platform_0.9.1.a(cc_pal_trng.c.obj)
 .text.CC_PalTrngParamGet
                0x00000000       0xa8 C:/ncs.sojkk/nrfxlib/crypto/nrf_cc310_platform/lib/cortex-m4/soft-float/no-interrupts/libnrf_cc310_platform_0.9.1.a(cc_pal_trng.c.obj)
 .comment       0x00000000       0x80 C:/ncs.sojkk/nrfxlib/crypto/nrf_cc310_platform/lib/cortex-m4/soft-float/no-interrupts/libnrf_cc310_platform_0.9.1.a(cc_pal_trng.c.obj)
 .text          0x00000000        0x0 C:/ncs.sojkk/nrfxlib/crypto/nrf_cc310_platform/lib/cortex-m4/soft-float/no-interrupts/libnrf_cc310_platform_0.9.1.a(llf_rnd.c.obj)
 .data          0x00000000        0x0 C:/ncs.sojkk/nrfxlib/crypto/nrf_cc310_platform/lib/cortex-m4/soft-float/no-interrupts/libnrf_cc310_platform_0.9.1.a(llf_rnd.c.obj)
 .bss           0x00000000        0x0 C:/ncs.sojkk/nrfxlib/crypto/nrf_cc310_platform/lib/cortex-m4/soft-float/no-interrupts/libnrf_cc310_platform_0.9.1.a(llf_rnd.c.obj)
 .text.Mult32x32
                0x00000000       0x4c C:/ncs.sojkk/nrfxlib/crypto/nrf_cc310_platform/lib/cortex-m4/soft-float/no-interrupts/libnrf_cc310_platform_0.9.1.a(llf_rnd.c.obj)
 .text.Mult48x16
                0x00000000       0x34 C:/ncs.sojkk/nrfxlib/crypto/nrf_cc310_platform/lib/cortex-m4/soft-float/no-interrupts/libnrf_cc310_platform_0.9.1.a(llf_rnd.c.obj)
 .text.LLF_RND_EntropyEstimateFull
                0x00000000      0x56c C:/ncs.sojkk/nrfxlib/crypto/nrf_cc310_platform/lib/cortex-m4/soft-float/no-interrupts/libnrf_cc310_platform_0.9.1.a(llf_rnd.c.obj)
 .text.LLF_RND_WaitRngInterrupt
                0x00000000       0x20 C:/ncs.sojkk/nrfxlib/crypto/nrf_cc310_platform/lib/cortex-m4/soft-float/no-interrupts/libnrf_cc310_platform_0.9.1.a(llf_rnd.c.obj)
 .text.LLF_RND_GetRoscSampleCnt
                0x00000000       0x3c C:/ncs.sojkk/nrfxlib/crypto/nrf_cc310_platform/lib/cortex-m4/soft-float/no-interrupts/libnrf_cc310_platform_0.9.1.a(llf_rnd.c.obj)
 .text.LLF_RND_GetFastestRosc
                0x00000000       0x20 C:/ncs.sojkk/nrfxlib/crypto/nrf_cc310_platform/lib/cortex-m4/soft-float/no-interrupts/libnrf_cc310_platform_0.9.1.a(llf_rnd.c.obj)
 .text.LLF_RND_GetCountRoscs
                0x00000000       0x18 C:/ncs.sojkk/nrfxlib/crypto/nrf_cc310_platform/lib/cortex-m4/soft-float/no-interrupts/libnrf_cc310_platform_0.9.1.a(llf_rnd.c.obj)
 .text.LLF_RND_TurnOffTrng
                0x00000000       0x1c C:/ncs.sojkk/nrfxlib/crypto/nrf_cc310_platform/lib/cortex-m4/soft-float/no-interrupts/libnrf_cc310_platform_0.9.1.a(llf_rnd.c.obj)
 .text.LLF_RND_RndCprngt
                0x00000000       0x58 C:/ncs.sojkk/nrfxlib/crypto/nrf_cc310_platform/lib/cortex-m4/soft-float/no-interrupts/libnrf_cc310_platform_0.9.1.a(llf_rnd.c.obj)
 .comment       0x00000000       0x80 C:/ncs.sojkk/nrfxlib/crypto/nrf_cc310_platform/lib/cortex-m4/soft-float/no-interrupts/libnrf_cc310_platform_0.9.1.a(llf_rnd.c.obj)
 __ARM_common_memcpy4_5
                0x00000000        0x8 C:/ncs.sojkk/nrfxlib/ble_controller/lib/cortex-m4/soft-float/libble_controller_s140.a(libble_controller_debug_s140_soft_nrf52__obfuscated.elf)
 __ARM_common_memclr4_6
                0x00000000        0x8 C:/ncs.sojkk/nrfxlib/ble_controller/lib/cortex-m4/soft-float/libble_controller_s140.a(libble_controller_debug_s140_soft_nrf52__obfuscated.elf)
 __ARM_common_memclr4_8
                0x00000000        0x8 C:/ncs.sojkk/nrfxlib/ble_controller/lib/cortex-m4/soft-float/libble_controller_s140.a(libble_controller_debug_s140_soft_nrf52__obfuscated.elf)
 __ARM_common_memcpy4_6
                0x00000000        0x8 C:/ncs.sojkk/nrfxlib/ble_controller/lib/cortex-m4/soft-float/libble_controller_s140.a(libble_controller_debug_s140_soft_nrf52__obfuscated.elf)
 __ARM_common_memclr4_5
                0x00000000        0x8 C:/ncs.sojkk/nrfxlib/ble_controller/lib/cortex-m4/soft-float/libble_controller_s140.a(libble_controller_debug_s140_soft_nrf52__obfuscated.elf)
 __ARM_common_memcpy4_10
                0x00000000        0x8 C:/ncs.sojkk/nrfxlib/ble_controller/lib/cortex-m4/soft-float/libble_controller_s140.a(libble_controller_debug_s140_soft_nrf52__obfuscated.elf)
 __ARM_common_memclr4_9
                0x00000000        0x8 C:/ncs.sojkk/nrfxlib/ble_controller/lib/cortex-m4/soft-float/libble_controller_s140.a(libble_controller_debug_s140_soft_nrf52__obfuscated.elf)
 .text          0x00000000      0x11c C:/ncs.sojkk/nrfxlib/ble_controller/lib/cortex-m4/soft-float/libble_controller_s140.a(libble_controller_debug_s140_soft_nrf52__obfuscated.elf)
 .text          0x00000000      0x11c C:/ncs.sojkk/nrfxlib/ble_controller/lib/cortex-m4/soft-float/libble_controller_s140.a(libble_controller_debug_s140_soft_nrf52__obfuscated.elf)
 .text          0x00000000      0x236 C:/ncs.sojkk/nrfxlib/ble_controller/lib/cortex-m4/soft-float/libble_controller_s140.a(libble_controller_debug_s140_soft_nrf52__obfuscated.elf)
 .text          0x00000000       0x34 C:/ncs.sojkk/nrfxlib/ble_controller/lib/cortex-m4/soft-float/libble_controller_s140.a(libble_controller_debug_s140_soft_nrf52__obfuscated.elf)
 .text          0x00000000       0xb8 C:/ncs.sojkk/nrfxlib/ble_controller/lib/cortex-m4/soft-float/libble_controller_s140.a(libble_controller_debug_s140_soft_nrf52__obfuscated.elf)
 .text          0x00000000       0x30 C:/ncs.sojkk/nrfxlib/ble_controller/lib/cortex-m4/soft-float/libble_controller_s140.a(libble_controller_debug_s140_soft_nrf52__obfuscated.elf)
 .text          0x00000000       0xbc C:/ncs.sojkk/nrfxlib/ble_controller/lib/cortex-m4/soft-float/libble_controller_s140.a(libble_controller_debug_s140_soft_nrf52__obfuscated.elf)
 .text          0x00000000        0x4 C:/ncs.sojkk/nrfxlib/ble_controller/lib/cortex-m4/soft-float/libble_controller_s140.a(libble_controller_debug_s140_soft_nrf52__obfuscated.elf)
 .text          0x00000000        0xc C:/ncs.sojkk/nrfxlib/ble_controller/lib/cortex-m4/soft-float/libble_controller_s140.a(libble_controller_debug_s140_soft_nrf52__obfuscated.elf)
 .text          0x00000000       0x74 C:/ncs.sojkk/nrfxlib/ble_controller/lib/cortex-m4/soft-float/libble_controller_s140.a(libble_controller_debug_s140_soft_nrf52__obfuscated.elf)
 .text          0x00000000       0x28 C:/ncs.sojkk/nrfxlib/ble_controller/lib/cortex-m4/soft-float/libble_controller_s140.a(libble_controller_debug_s140_soft_nrf52__obfuscated.elf)
 .text          0x00000000       0x18 C:/ncs.sojkk/nrfxlib/ble_controller/lib/cortex-m4/soft-float/libble_controller_s140.a(libble_controller_debug_s140_soft_nrf52__obfuscated.elf)
 .text          0x00000000        0x2 C:/ncs.sojkk/nrfxlib/ble_controller/lib/cortex-m4/soft-float/libble_controller_s140.a(libble_controller_debug_s140_soft_nrf52__obfuscated.elf)
 .text          0x00000000        0xe C:/ncs.sojkk/nrfxlib/ble_controller/lib/cortex-m4/soft-float/libble_controller_s140.a(libble_controller_debug_s140_soft_nrf52__obfuscated.elf)
 .text          0x00000000       0x10 C:/ncs.sojkk/nrfxlib/ble_controller/lib/cortex-m4/soft-float/libble_controller_s140.a(libble_controller_debug_s140_soft_nrf52__obfuscated.elf)
 .text          0x00000000       0x28 C:/ncs.sojkk/nrfxlib/ble_controller/lib/cortex-m4/soft-float/libble_controller_s140.a(libble_controller_debug_s140_soft_nrf52__obfuscated.elf)
 .text          0x00000000       0x10 C:/ncs.sojkk/nrfxlib/ble_controller/lib/cortex-m4/soft-float/libble_controller_s140.a(libble_controller_debug_s140_soft_nrf52__obfuscated.elf)
 .text          0x00000000       0x1a C:/ncs.sojkk/nrfxlib/ble_controller/lib/cortex-m4/soft-float/libble_controller_s140.a(libble_controller_debug_s140_soft_nrf52__obfuscated.elf)
 .text          0x00000000       0x1a C:/ncs.sojkk/nrfxlib/ble_controller/lib/cortex-m4/soft-float/libble_controller_s140.a(libble_controller_debug_s140_soft_nrf52__obfuscated.elf)

Memory Configuration

Name             Origin             Length             Attributes
FLASH            0x00000000         0x00100000         xr
SRAM             0x20000000         0x00040000         xw
IDT_LIST         0x20040000         0x00000800         xw
*default*        0x00000000         0xffffffff

Linker script and memory map

LOAD zephyr/CMakeFiles/zephyr_prebuilt.dir/misc/empty_file.c.obj
                0x00000020                _region_min_align = 0x20

.rel.plt        0x00000000        0x0
 *(SORT_BY_ALIGNMENT(.rel.plt))
                [!provide]                PROVIDE (__rel_iplt_start = .)
 *(SORT_BY_ALIGNMENT(.rel.iplt))
 .rel.iplt      0x00000000        0x0 app/libapp.a(main.c.obj)
                [!provide]                PROVIDE (__rel_iplt_end = .)

.rela.plt       0x00000000        0x0
 *(SORT_BY_ALIGNMENT(.rela.plt))
                [!provide]                PROVIDE (__rela_iplt_start = .)
 *(SORT_BY_ALIGNMENT(.rela.iplt))
                [!provide]                PROVIDE (__rela_iplt_end = .)

.rel.dyn
 *(SORT_BY_ALIGNMENT(.rel.*))

.rela.dyn
 *(SORT_BY_ALIGNMENT(.rela.*))

/DISCARD/
 *(SORT_BY_ALIGNMENT(.plt))
 *(SORT_BY_ALIGNMENT(.iplt))
 *(SORT_BY_ALIGNMENT(.got.plt))
 *(SORT_BY_ALIGNMENT(.igot.plt))
 *(SORT_BY_ALIGNMENT(.got))
 *(SORT_BY_ALIGNMENT(.igot))
 *(SORT_BY_ALIGNMENT(.note.GNU-stack))
                0x00000000                _image_rom_start = 0x0

text            0x00000000      0x100
                0x00000000                . = 0x0
                0x00000000                _vector_start = .
 *(SORT_BY_ALIGNMENT(.exc_vector_table))
 *(SORT_BY_ALIGNMENT(.exc_vector_table.*))
 .exc_vector_table._vector_table_section
                0x00000000       0x40 zephyr/arch/arch/arm/core/cortex_m/libarch__arm__core__cortex_m.a(vector_table.S.obj)
                0x00000000                _vector_table
 *(SORT_BY_ALIGNMENT(.gnu.linkonce.irq_vector_table))
 .gnu.linkonce.irq_vector_table
                0x00000040       0xc0 zephyr/arch/common/libarch__common.a(isr_tables.c.obj)
                0x00000040                _irq_vector_table
 *(SORT_BY_ALIGNMENT(.vectors))
 *(SORT_BY_ALIGNMENT(.openocd_dbg))
 *(SORT_BY_ALIGNMENT(.openocd_dbg.*))
                0x00000100                _vector_end = .

_TEXT_SECTION_NAME_2
                0x00000100    0x41dd8
                0x00000100                _image_text_start = .
 *(SORT_BY_ALIGNMENT(.text))
 .text          0x00000100       0x30 c:/program files (x86)/gnu tools arm embedded/7 2018-q2-update/bin/../lib/gcc/arm-none-eabi/7.3.1/thumb/v7e-m\libgcc.a(_aeabi_uldivmod.o)
                0x00000100                __aeabi_uldivmod
 .text          0x00000130      0x2cc c:/program files (x86)/gnu tools arm embedded/7 2018-q2-update/bin/../lib/gcc/arm-none-eabi/7.3.1/thumb/v7e-m\libgcc.a(_udivmoddi4.o)
                0x00000130                __udivmoddi4
 .text          0x000003fc        0x4 c:/program files (x86)/gnu tools arm embedded/7 2018-q2-update/bin/../lib/gcc/arm-none-eabi/7.3.1/thumb/v7e-m\libgcc.a(_dvmd_tls.o)
                0x000003fc                __aeabi_idiv0
                0x000003fc                __aeabi_ldiv0
 .text          0x00000400    0x1c0d8 C:/ncs.sojkk/nrfxlib/ble_controller/lib/cortex-m4/soft-float/libble_controller_s140.a(libble_controller_debug_s140_soft_nrf52__obfuscated.elf)
                0x00000400                sym_Q4LNTOAEIUHWOHGFQA3GG32O27PTCCSKIRAFE2A
                0x00000462                ble_controller_init
                0x000004ce                ble_controller_cfg_set
                0x00000522                ble_controller_enable
                0x00000584                ble_controller_disable
                0x00000592                ble_controller_build_revision_get
                0x000005ba                ble_controller_low_prio_tasks_process
                0x000005ee                ble_controller_RADIO_IRQHandler
                0x000005f2                ble_controller_RTC0_IRQHandler
                0x000005f6                ble_controller_TIMER0_IRQHandler
                0x000005fa                ble_controller_RNG_IRQHandler
                0x000005fe                ble_controller_POWER_CLOCK_IRQHandler
                0x00000698                hci_cmd_put
                0x000006aa                hci_data_put
                0x000006bc                hci_evt_get
                0x000006e8                hci_data_get
                0x0000077c                hci_vs_cmd_llpm_mode_set
                0x0000078c                hci_vs_cmd_conn_update
                0x000007e0                hci_vs_cmd_conn_event_extend
                0x000007f0                hci_vs_cmd_qos_conn_event_report_enable
                0x000007fc                sym_Y6OL6I7Q5ZNLLTYPUHMBVHHAEU2CKKDM5D2ZE4I
                0x00000832                sym_QU66FPZHOF7VOGSX2MQZGKARPFMT3JUIECECA5I
                0x00000846                ble_controller_flash_write
                0x00000862                ble_controller_flash_page_erase
                0x00000880                ble_controller_rand_vector_get
                0x000008a2                ble_controller_rand_vector_get_blocking
                0x000008d4                ble_controller_ecb_block_encrypt
                0x0000090e                ble_controller_hf_clock_request
                0x00000926                ble_controller_hf_clock_release
                0x00000936                ble_controller_hf_clock_is_running
                0x00000956                ble_controller_temp_get
                0x000009b8                sym_NPQDUYFTUPBLXPOWWXHABXDAV4HZ6GFI2S3DC7Y
                0x00000a18                sym_NR4U27V3FDBNHHFKNTBIXT2XBSM3YV2DL5PTHOA
                0x00000a86                timeslot_session_open
                0x00000aa6                timeslot_session_close
                0x00000ab6                timeslot_request
                0x00000ae8                sym_ZDELGBBGXKKR7NGIWRPHMKWC6NE3WSZKHJ2UUDY
                0x00000aec                sym_4IISVSOLVFJB5JBTYDAEGXSTM4YG5MOTRTRY33A
                0x00000b18                sym_DUIEI4YTK3TJQ2V3W7PLOGVTWVPNDBBG4WJWTAQ
                0x00000b88                sym_PVKZWZJ5CJJGE5FITE5FOMMY5J4BUV2COWMQKSY
                0x00000bac                sym_J4YPB5V427LGVECR3WQM2YMQSYACGT77QKJSI3I
                0x00000d22                sym_FAUAXK4R6Z2D3YMI3QMOFKBAYHZMP3X3KQMEBYI
                0x00001026                sym_5YZTP3DXGDB66ABBR6HIGTQUGBDPDSS5OQUWAII
                0x000017de                sym_X5A7ZVMJT6Z2AU2JNCZYZBNIMWD3BIY6BVVFUYA
                0x000021ca                sym_BR3ZWQHTEOP3TTXZR25GQZOEPSGL2XNSEOFSTEI
                0x0000220a                sym_CNH7SD2WCGFAHI2ANQOF3HHV2F3WYQDABEB6D2I
                0x00002264                sym_JHRCBUHHFX5L4LCHTP2UIHB7HAO2VCZNCILRUZA
                0x0000227c                sym_WTDR2CH3DHY37APGFFYCM3HFV2XNHA3H7A6JZDY
                0x000024aa                sym_QMF6WGBSHHRI7BTYKZGNY3YBGTOTAZDDWYJFVQQ
                0x000024f8                sym_XMQQMVD4MD6DRWNW2DWSCGOMJHFY3IX7NXUHTGI
                0x0000305c                sym_BRDBHQXFNW37EPIG3H6VMDMF5Z2C7TGGPAZ4FTI
                0x00003458                sym_QRSWJYAUGCUTSNV752A4GIIL7L22XYV5W56PANI
                0x0000351c                sym_E56LW5YVGUG6HP2OML5URHI7K2KCWX5ULQKQOKY
                0x0000352c                sym_A7PVZLRTORLFMETW3GOBE4DG32WTH46LP2SW5QQ
                0x000035be                sym_SSKIYGWPVDNEN7KR2D37H7PSUNCWATTS2JUNCZI
                0x000035c4                sym_WUFSW46PFN4L7BFD5JVSA5HUDVSYC7JXKJFB2DI
                0x000035c8                sym_XCF2HHS4DO2JW2ILCF4RJW66HXXYOROBK7NUPMY
                0x00003672                sym_TDLIKQLE652KPCFAMYL33G6BKGPHRLYLWNEOTHQ
                0x000036ec                sym_47GVMLF7NXDJBYC2TPU2ES3ZL6CP4GIPWKYYWBI
                0x00003760                sym_UOYZDE3MDLGPDL5S5WKUFLPYH4DJIMF3BJSBDYA
                0x000037e6                sym_AGKH6DJXHZN325DC6K3C4NU6N7PERJHJNP4AFDI
                0x00003880                sym_PTZ4EWNTFK5S5TZGCBNFETDF37P4DBX7VGM33II
                0x0000390c                sym_B62EJKCCJ4JFC5I4BFTUJG7GNOKGWQ4KKFBS6RI
                0x0000391a                sym_WHJLTAWCA7L5AI7ZKZA7BNI7MYWDHIXTL45XGEI
                0x00003948                sym_4WKKRRMMNLQOCTRGC2MVIREG5QOCFUEL67TBUQY
                0x000039a4                sym_4DUZAAZKVNAL6VUHN4XAFX35FQKJS4D7DISLHDI
                0x00003a60                sym_3LZ364FVGUVSOSH6XGIFMW5SY36X7BQXDOES46Y
                0x00003b90                sym_RZ3AO5KZJYCPFG5YW4CBZQF5SRGN3BPTEGBY47I
                0x00003bda                sym_DY52YMZFQPMDNFDSVZDQLPFIWKOSXIQIEKUVZNY
                0x00003bfc                sym_UGCHKXSGQKYP7AA6DYAYKZLZPKBR3MUYV5JFFTY
                0x00003c76                sym_BZ7Z4RQ3DCP67RU5HKR6L76AI2EU62TP34WUI5Q
                0x00003ce8                sym_KYAZRCYN475PHPCZD6L3YCVO72SQVA3SBOAY44Q
                0x00003d5c                sym_UPAEGKLCM3QW7VHROMMVD5MIRBTM2NGCYENWSLI
                0x00003d60                sym_IIGHUG4ZTDZIUQDMSC6KDDGMEISDJVABLHB6WDI
                0x00003e48                sym_Q4EW623JZHY67RB7U4Z2L2SMI5ENWIDFL23JZHQ
                0x00003ebc                sym_W4P456NK4DQPUF5QVP3W7JSFZJTVGAOKAMSTNSQ
                0x00003eca                sym_LIYGXI2UGDXBB3WZBJYHTKFR7X66AHBTSGA7ZTA
                0x00003eea                sym_56BVXVVSYPZZTDFBHBV4MJAFTYIS7HMITNWUEZQ
                0x00003f12                sym_4Z7443SGSMJBRM7TLEVRIFXZXBZ34MHB7IK5ETY
                0x00003f1e                sym_ZOHQLKBCZOR3A7YQVK6MVD6IEOARIBONHUTW4FY
                0x00003f46                sym_R6CL5LQUGQ5LWRLXHAYTBENAGPDSLSYDGQXGKCA
                0x00003f94                sym_T2KVJXUKBW7E6DZMIXB2ENUQYG6P2TBYLXO3PAY
                0x00003fc2                sym_4FRIF7JGOVTE7JZ3KYQVPKX5PKSXGKCIHE6GQDY
                0x00003fe0                sym_JTNP7UFMKYWSFCHJEA5IASO3QVW3HK4YV6YOJYQ
                0x0000403e                sym_B627VJPECYREV5OY4VJ652ISBA4XGPKVOUJ747A
                0x00004058                sym_BFLBCCCQAS3HYTJNHWIU2N7L5BIXGAAUWQU3LGI
                0x0000408a                sym_U6F62KMCYCGJUEXYTTS2MRS7LHMVKB63M7YBHMA
                0x000040c0                sym_CFXVKXX7QVGSEYDK42CHWNMAOZZS7SRTELRN2AI
                0x000040fc                sym_2U6ZM4AGXT5LURZV6SIFXXI4SAENTTDL37TPMAA
                0x00004136                sym_MT7ZXLR3Z6F5YKFYLYRJ4W5Z7KADBUJZB5D5FAA
                0x00004174                sym_DHUOI3PMXEAVFAX4C4XBBDBURCK3I2GDYGNPA5I
                0x000041a8                sym_EQ53CEL7EDVHMFMHMFPRRQU46C5YKKFEBAACFOA
                0x000042c6                sym_6I4XEOIW7LI2E3Z53L54ZHQQHYICXR4H4JQWXLA
                0x00004314                sym_3SKPFA625PNDCAQQU2M5BY77GYLRCXEEFZ5JBTY
                0x00004338                sym_4F7LPUXSCTOCH5INAFX4H2INQYD4GQNEVBQ7OPY
                0x000043b0                sym_XHE47EZYHONCPR22HUAZULMCALDJINMYREOFDEI
                0x000043c6                sym_ODHUN6Y7H3NJAYDQ6WXZXKRG7LCUUKXATCFM4JA
                0x0000449a                sym_OI7FPIL2UJXSAD2WV5X3CLQKKTNGLRTOQUNCDTY
                0x000044a8                sym_QSUAMFEDJMVCYQUJNPHGXEKEFULJEH46BNC5SLA
                0x00004564                sym_7JFC7IFAJQVPYCQHAIUKZ626ISM3VUWBEEXY7WI
                0x0000460e                sym_5X75WALYYBUWN4XT5LYOZBIGSZHVNFKF5J4CSQI
                0x00004632                sym_4AWF7EXI3MMHUULTY73E756U3IY5DEXOZ265MZY
                0x000046ac                sym_WDNTHBFS7DQM3AR7WDCR7ZEICFH5ZM5PJ35BRPY
                0x000046d4                sym_6DYG6C6ROXZA67GZINNB2XIQHL3KE2RCKK4QFXA
                0x00004744                sym_24NU2MJKHN4R2Z7HXHMPDWTTDYSB32VL6HEQPZA
                0x00004802                sym_3QFBRH4ZSIA64QP2I3K547Y5WIALGQTCBP5Y5SQ
                0x00004864                sym_NOQRMQ5IH6SQFJEPI5A3UBMITO54HG4WO4DTTXA
                0x000048d8                sym_YNBBHT54WKEGUNVC6TSBMRGLF67VFWBOYEMKGTQ
                0x00004902                sym_35ZAQW4ABRMBYES2ZHPK63BHZAFFFC4WMGEJ6NA
                0x00004a7c                sym_SQPGLB3F2LGDTL5ZVQ5UD5AXCWTDT7ZLWVQFDEI
                0x00004af6                sym_E5WZNPP2DINHF6K4PHXLYLX5AXTYBQYGQESRSGQ
                0x00004b28                sym_T2WGCKXTT3AQKC37WUCKG6LFMKIXXWS3R6ESLQQ
                0x00004b48                sym_5XKHERCBM4HDLOSQIIF6ONIZ3VPJAC273QAQJIQ
                0x00004ba8                sym_SGG2WPHWNAVPUNRA5PUSFQWLVXWMVACAYN4CY7A
                0x00004bba                sym_O4FUGGNCJSIN5TSQZ6HIGS5MBZ2R5JHUFVOHOOY
                0x00004bcc                sym_OZ56JFWYHG7U2LFPIVODMYPSVJGCB25OKJZ3PIY
                0x00004bde                sym_DM4JGIT6S3TNMO5AFCVWIOUVSDWG6BPR4DFBQNA
                0x00004c08                sym_RZ4KEX57U2ASIFFSRQDHBCB7WVJNTOCZSYKJFSA
                0x00004c2c                sym_2ZCOT6ZEUU54S36NE627GOZVLBS26AFIUJKNLBI
                0x00004cea                sym_Z3VWUOEMSEBO5U4J37OPDKJEH7CE47B46CE6NSI
                0x00004d3c                sym_GZE6QJRFTCG2MERGOKENHWFRYSCC5S3WEXUU47A
                0x00004d74                sym_YRXVGCYVFXOSIQO43AC5UEELHEXP2A4UAFUQRPI
                0x00004dbc                sym_EVEKB6WOAWYIXV2CYR4SE2FWGIGUZFJWNRXZLMA
                0x00004ddc                sym_FRQCN2KJNNZFYMAUJKFDGLFKE5V5FBD7HJ4IAKQ
                0x00004df4                sym_7YLXP6BHTAWWWMXLB5XOZU3Q27WEPTH5PONOKOI
                0x00004e00                sym_E7UQIKHCXDNZQUNY52BJSGQJOLHB5NYKZPMIGJY
                0x00004e14                sym_O2AFZAWKVBYRIBDK67CHKRSMY4WR2S6V2VOPETI
                0x00004fca                sym_GUOPDLX5R4S6NJ366BHBSIF5JQUFVHBAZBWBAWY
                0x0000508e                sym_GEVX2ITPXP7UL5BJ376FS4WUGWC7FKOTNAIMADY
                0x000050ea                sym_MSDDP3EWU2FTBTPVQDOXVJMLDHAPNPXLB73QV3Y
                0x0000517c                sym_TQOU6M5FOJGYBQ73ADAMFJFBW345AJHKSTMZKNQ
                0x000051a2                sym_7DWOD7SEMRDQN25QQBA7GL633DRWMBBVYEHKOKA
                0x000051b4                sym_ZXM7KZCJVXF5JQS53RSDXIJ4HMUIELSZ3E43YFQ
                0x000051bc                sym_EYIHOGBWBCMB5KSAAVLK6V2XC2PNYI4CUGUZRMY
                0x000051e6                sym_VOWAB7CX7QR3QZO4BOMEFRG3OQVIEDUOTXDSIZQ
                0x00005204                sym_44PAL7VRDLM7JAHHE46SH64ZILJVRWB7LYZHG4I
                0x00005236                sym_G37M6IIXFP43ACRKNNFX4CIGVJGGHQJ62ZJ5TTI
                0x000053cc                sym_VWMAAPGCLGQ5Z6CD2KI474B7NPI64O5JSYC4IQA
                0x000053da                sym_EDWYWWOVPTPFV3Z55MASQ7NBMJ6VJV2YJ5NJFXY
                0x000053e8                sym_5A4EA5LJXLZOQZVCMJ3B5WHRWAZTDPPT4FTLURQ
                0x000053f6                sym_RFWZ5R5CI3HW4R2PKHFDZ37NU6CJLG6TTVVZVKA
                0x00005404                sym_JQM2WWJI7S66CVG6R2NEXVWVCT2O6CZPDZZ5KNA
                0x00005410                sym_VJNRGHIR7ELVJENCYQC5RIPCUPX2VX4A3IEKHHY
                0x0000541c                sym_VTMDBGLZE2WGLHZSX7JBXYGLFSBQ7AMM2A5ZTSQ
                0x0000542a                sym_L6XFXLQGH6TRVL3WLLHFB2XFRTL7I2CR4PFZAMI
                0x00005438                sym_VPLDJVLJZRXEBZPXZSZBIUFXNPOM4J3WUQDCDDA
                0x0000545c                sym_6UIPLHUAUDJDPQ252CIFYJ554MCYAGHVY4SE2BA
                0x00005468                sym_SO737I3L3T3BRL64Q6O2SHIU2IXOPXH3VLQBGYA
                0x000054c8                sym_Z5S77DHO7IJ2OAPETZGDFM767AVP4X3TD6IL7LQ
                0x000054d2                sym_R4LHXCKUCCG3GH46LEUM4IEXUVEH7XT37EDSJXA
                0x000054da                sym_3U65HWWDD4BIASUBTLJQLCDWNJOYR7HI5DO5OSQ
                0x000054f4                sym_FXQJRT7N5NIAYY272CA2IROBP3TV2MPM52QOW4A
                0x00005500                sym_6KMYB7KROZMEMT6YSIVF42VABROFGUFPC6PPWZY
                0x00005536                sym_XTRFJPTXAQ4KX2C3XBZMMK7FUJHSIZPMOYQ2ATI
                0x00005556                sym_5HSM2RKVEPKF7FUGKJWHS4URHGR4AH6BCAWXM7Y
                0x00005574                sym_ESUJIO36FEHZTUKSIGLRTZRDN4G6B5RDPJLYQZA
                0x00005582                sym_EJUZ2VVRQOLKKO2K4REVFWHUO7ZMATHAV4ITWIY
                0x00005590                sym_SQEG5KYGT55HZVXQ4IJXR5W7NX2W67NSE3SYCWQ
                0x000055a0                sym_R4FJUAT4RW7E7E43LFJASMP3OJR3I5G2CUFXAQA
                0x000055b8                sym_GLWDICGKUEZXGEK5BKUURG7OTDG4LSRCSXB2S6Q
                0x000055d0                sym_K7EURBEHHCYZ3YLCGEGPGO6ADLN2XNVXD7Y3CKI
                0x000055e6                sym_B7PQ6ZZKCMFWKW2IVLSLV4DPIZOIVTQ6BUWQBZI
                0x000055fc                sym_HILCLKD2LD4QR6HGJ6XX7GZXOTPEPAA4CY7UU5Q
                0x00005612                sym_TEFIALEYGDWZNVCI6J2TWNGI7MKU467ZDEG2H4A
                0x00005628                sym_E4VPLC7J3FAWSHJRVSLGHG62SP7YJ42FQEEG3TY
                0x00005678                sym_EIVL4KKZPHMST47HBVKXLDQR6UIGQCQZHNSSO3A
                0x00005690                sym_RC45MM7ZSJ5FOWOPKX2JLTR2BLAMICBDHZRWZKA
                0x000056a8                sym_ST76TO4WQHPER5HWK4E5RWSDMRIAFCLJD2S6RTY
                0x000056c0                sym_QENYTAHS6ZILHM3DSYGRREQXVESB6OSLVO52TCI
                0x000056f0                sym_DXGJ52CM5T74Z3OJ6E5PYUSQ34NXCN6MJXSOKDQ
                0x00005718                sym_SUZA2344HDTRBAWMLWOVMZVDGXORN7EHZFROHQQ
                0x00005742                sym_6HYG22DBQAOSSB5HUY6KXHVLMJRSV5LJY3ZPVOQ
                0x00005776                sym_6RULORPNPYSTIA3K2O2L2WMXNENAQQ5QZEMFIOY
                0x000057ac                sym_OWCN34CNBSBY2AKY7FUEE3AO7OJVWKFQTXWJE3Y
                0x00005808                sym_NLPIWM4VTYIZWDFQH2WPLEIHTIGNMYMZHECY45Q
                0x00005876                sym_4SVQMPT754VXN2AWYY6JE7KITHSHSLYTNUBSWZA
                0x000058b2                sym_L2Q2RRM2AUTHKDBBOOJKGD25HNDEXGOAO2RVWJY
                0x000058b6                sym_D6WSZJGHBVSNS7ZN6DCIU7W37KOBRFZ3D7V2IKQ
                0x000058bc                sym_5J64OSX6B5PYXNSLHXY64ZK4MCPU4BDFR5B2EQI
                0x000058c4                sym_CMMUKBFEN34RLIIRSEFPKBIQJWPQDEIT6AI6BXA
                0x000058c8                sym_Z532D623Y7HDGW5WU344Z73EWIA3AYTZGWVFKIY
                0x000058d0                sym_P6K4PWFIUTLB5PEOIIMIJKUC3RGJ5ERWNYQK34Y
                0x000058da                sym_TAMTS6KFPTMUNJ2XT7RULIERVD6RGZJIJAAWKVY
                0x000058e2                sym_PFTIZWCMDXYMWR5F66OU2IHFLKVK2YXENEPZB6A
                0x000058f4                sym_EOE7RCWYZTQTYLZCEHNYGGK5PGBGDVX2QYNB2UY
                0x0000590e                sym_MCAMJAIBJDD4JPS3OAKE3HA4IEMPLSTZ46SLXYY
                0x00005958                sym_UW7UHI7YXZEM7ILBVUNOPL56EYZPKQPCGAGT25Y
                0x00005a68                sym_7CQPRIENPSEG44TGL6Z3BVGO7DIMXJIZVLL4DWI
                0x00005a6c                sym_NQQTFSL3WCN6SCQIPUVO7DESTG2ECC7O2VV3DYY
                0x00005a70                sym_F6STTA77YYPZPUF6WQY6DL7T46CQCVFBGWEXIOI
                0x00005a74                sym_RFDF52I45CER5LUFD5R474FWGPTOSAHNLW6EPTI
                0x00005a7e                sym_LEYIZPBOI2PKG47UR5J6WFU4T4IX5ZZDLADCRLY
                0x00005b1c                sym_2OJG5YFPYDHL3VUNYVXHH6Y27KE7XHUFLBHQWZA
                0x00005b44                sym_IMK3IZ3C7NOJ5XZPSVYNCWOTZ2IVUCMP6BNCRXY
                0x00005b66                sym_CC6ASXFDKOM4QD4FYSKVEFIPQGONA3EMOYNZ2CA
                0x00005c2e                sym_QQ3PNV3RVDSV6LEDQXN4XXRZP7VPXW2GS5NYXLI
                0x00005c72                sym_AD2RQWSCG2GVJEMXBHRIZTWGHZXL2ZWCR5XI3EY
                0x00005cac                sym_BFIPXLLFAR5HE6DSBETJG7QCJNIU7WQQ6Q7ZS6Q
                0x00005cb8                sym_263K46O3P43QFYIFDGUP3ELMIEUR5F67EKYH3SQ
                0x00005cc8                sym_3YAJK645W6YZNYRGQMDJ4T4R3VYDFLOYMI6SG7A
                0x00005cda                sym_72GD6I5ODAURVVRK5WLBXAV5HJMLB6S36IX5NCY
                0x00005d10                sym_MJCF2WRL4I323V23HKVENOJWV5IXH54R5X6LJRY
                0x00005d42                sym_QXKT3PVMDTZRAAU2QNTWO5VOUEZ4NW6TWISREXY
                0x00005d74                sym_XNKGJJJE2Q3TLFOQ33MV3C2OFGYRXHDPBWQAJTY
                0x00005d76                sym_TI23NT47JHAASZYSOMMS56PY7FURBPLZCWALPBA
                0x00005d8e                sym_REO6MG4FRJTNQQ56RDJDYGEWFEO5TFVYGRW6OLI
                0x00005da6                sym_TAEXPHNSP26UANNL6HZCGY5BI4KC2QDZUBGOR7Y
                0x00005dac                sym_NKFCLZ5HTE6KVHDV5DGZ6TJP4KSZI43SYBECPRY
                0x00005db2                sym_65LA7GM3MU7DDFQKTB75BYTZMPMROSWKS3VXCNI
                0x00005dd8                sym_AGWGY6I3YKHHV6TMAWL24HN4IKGOB7PZYXPWBRA
                0x00005df8                sym_IXGTNRGKILIZPWG2NJIZ2ALUPW2IM3XFVCGJW2I
                0x00005dfe                sym_JHXS4T25BAYOMDDZMWPX3HMPENRV73GSV2RYHAI
                0x00005e1c                sym_54CHYGRI3UHSVLN5ZOGJESXNRISJW5CS4IYBN7Y
                0x00005e40                sym_V7MOOXL5SOLISKFFGWJC7M3XDITU574WBQOXGWY
                0x00005e68                sym_BGPX36PUCNVPV3544HQ5RQFY5WG7CJAFVVBI7AY
                0x00005e6a                sym_QKSVBALUN2V4XT4OCC56LE75IAYLDFRRIVLBZ2Q
                0x00005e90                sym_WCOWXKSKBH7DOKKKINFZAPWXKW4NYAUCJWTUKBI
                0x00005ebc                sym_AO3U45UEGFLUPMT565ZR5UWUQUONF5AKILLCT3A
                0x00005ed8                sym_SKMZWIM7P4M3RGOEIN3DTVMYPDZXQTMHZI7K3AQ
                0x00005f3c                sym_BLMJ5IIKWMCUMGRAJC47JTAD5DUGOY4TIBII5HY
                0x00005fac                sym_FEGTISSRZOTQRK4SD4MRDIWBV3TTZYGCCKXTY4Y
                0x0000603c                sym_J4NWMRMCG7RYO342PTMJRJ2HQEKT7SCETMBVQDA
                0x00006162                sym_LH2VB7IMRXMGTCCJDOMH7JXYZ5MZLQ2OSANOJDA
                0x00006178                sym_4WIY2RAFLOZNOS4O5BEVWEYHIO3NV42IZ2Q2NWQ
                0x000061d6                sym_KC3JIKE7HTERE3Q3BXMRUIDPAENUZKVBIDO6ODY
                0x0000623a                sym_WGJLFS2PDN6RZG7JWUITZ3W5MGJYYXFXIKI3GGQ
                0x0000624a                sym_NGJGZTNK6YIH3QX2NKB6A6MT7N5AOKWA6ZOOANQ
                0x00006258                sym_UEZ3FVWFJ5XVLQBVVAHW7UTXVCC77F7ZYGOMLTQ
                0x000065f4                sym_BDDELQSYWHVCCHSF6HGFFAORZOC56R54KIF45KY
                0x00006602                sym_3NMQXTBVJ27TN5IIVET3BSKEAUONNKTPZTYP2HY
                0x00006698                sym_XRU76NANM3C4EMKWQU3DF6CELSRNDV6766IKPJI
                0x000066a6                sym_GNUIHYMK3THJZQYGL7BBI74HDMHN6SBQQRVNSAY
                0x000066fc                sym_RYQA5YFFRJZLTYB2ISC2Y3WUY3XB3LBBL37F22Q
                0x00006704                sym_H6NC6L6VJY74V6C72Y6E5P4HGSZIVJQXMUOQZ5Y
                0x00006714                sym_NFQK2HO6DBYRYVUCFLRI766EKAAKCM57FJRRS5Y
                0x00006748                sym_YF2VQNE3SPU5YKB3A3LOAMSL2CYGM7IACZ4YDTQ
                0x0000674e                sym_LSTFJ65CQ656SFAAVKHI4V2BNMWQDFFM7SDFFSQ
                0x00006758                sym_JIJASGQH4XEEPZL7D35VQHVPKKLANGDBS2M46NQ
                0x000068ce                sym_DHO7Y3FCK3ECIBBMN3G3LT7QHASZMT4HA4AV45A
                0x000068e2                sym_JBKNOQ33X56TRK2HA7ZYWX2J7DO6XM6C65TQTKY
                0x000068ec                sym_L2IWXNCKXJIQJRTEIIW7HGFEPJAQM34TKD2GOIA
                0x00006a30                sym_7M3JUUGD5O2FPMBCNLYSNKUZ5ZOQOWLN7Y6RMLQ
                0x00006a3e                sym_U7WTPI24N35WTMGPC25KDS7Q3PHHHS7M5KI6IPY
                0x00006a6e                sym_M7OTIJAFMGS6XNOB3KIKP2PSIWVW5IRGENKBGTA
                0x00006a90                sym_DG6VHZEFRVR44ESTRZM42ZEBJG4KXT7IVJESA4Y
                0x00006aa8                sym_MXQMR7VCP3XNNN4HEDJCNZSQSRWPC4I3ZWRZMHQ
                0x00006aba                sym_VD45NAZNLOGGVVD5JTOGXKZNINHWZNPETQGEFXA
                0x00006ad2                sym_DZ4VHVOVANVDVX7ECCNFNRACUFPY2WIUPGGZ27Y
                0x00006aea                sym_IFZUCMLNS5HF2FR34NZQEFEGWMVFNSDP65GNZJI
                0x00006af4                sym_OZGTVJXQN6XJTJPRKYKZISECFQGRJ7H2NVUOZCY
                0x00006afe                sym_2T6B57C7Z3NDT5ASKUJUGCCL3DBEO2AO4XX23BI
                0x00006b08                sym_YU3HMHUZPM7PR5DUQBMKDUTAWNSSB25QLMUQA6Y
                0x00006b12                sym_L5UCRJFFWEVVII5IYG6PAKIQHXM34B62KO6ERPY
                0x00006b1c                sym_TPWVJBQKX2TXZDZ4IZ6XDJYVEDFBPIX3TMZMRCQ
                0x00006b2a                sym_JWG2K5Z2IDS7IGZ34EUMCNHIOV34425FH263YQQ
                0x00006b4a                sym_4BHBBQGG3Z4AATH4MTZL2WFYY6WPEFHF75U64WQ
                0x00006b5a                sym_4HDCBJCT2JOHNORERPDEH2A3V47FOX6NCTAKLUA
                0x0000715c                sym_PY5KUATPBYOYJBMP6H7AVRPSEO7BZX2JK524O6A
                0x000074a2                sym_4FKJZF4AXR7RHM7IPPZMVUWU7W6MFHLX726TPNY
                0x00007942                sym_ID5SI2L6AD3KMSDR72YSJZGVIA6DEYQZU7WJI3I
                0x00007980                sym_Q6GAU4BFTV2AAXKYT7U5TUCFIHG7FGFBKKMXADA
                0x00007a7a                sym_RPDYS5TXULS3Z2BQR7IFNSOINXPPN4LN764SRIY
                0x00007ac6                sym_WAXMY55QAGCTLTIDQV34FPT2PPSDRT5VDN7EYYY
                0x00007ad0                sym_TLG2M35OYZCODNY6E6IVWNDSU5WUYD7HFRWHTKI
                0x00007cd8                sym_2MDRKMUWBEEGOFJZQJIGMGJR6YC75WQP2YUNEVA
                0x00007cdc                sym_Y75ZCU5NRHPUITF5X4ESQPM2JQCHATFZIXNZFKA
                0x00007ecc                sym_AYQJ46SPQWAWKKTPFPVEGTM7EKLUEVOAMA4CZEA
                0x000083ae                sym_MNJXNOHRYYYYPVI3TEE6XCIVRAJXIW7CMDDPWMY
                0x00008558                sym_32MURW7CSXICOYPMCVOPRARLMRLK4UASNCF4JWQ
                0x00008568                sym_YZ554N3225FHWC7CK3UNRUMI3O4SGFLKXVRCFXA
                0x0000856c                sym_XD3FX5TVO57NBJG4QV33FUOBCL7SNGB4OOT7C3Y
                0x0000859a                sym_UEYPZKGY2IF5BYZ3QDKK4LEW4OE7NWR6DH5XEZQ
                0x000085a4                sym_GDGGQ5EKEJNZBTEWASFQ2LUSL4TZGNXHPD7BDQA
                0x0000862a                sym_4U2RA2RXIRU5BEMWZTHT3PETZK6K62P2SAJVWHA
                0x00008670                sym_STP6UONGXHZIIGYZLLHSWZFO5DU7227CCUKBTDQ
                0x00008690                sym_PNT32LSDJE46MSUTWPAH2HUWQRO5OFWDB3SHPSY
                0x0000871c                sym_WI2RDLNIWKOV64CKFZ2EF2DRND265I3CYCBNK6A
                0x00008722                sym_ILVOLFEEJCI66RN2YEICR66DMMTD4LTX63YPZIQ
                0x00008f92                sym_3ZNIOFG7XMX7YS4WHN4QVNG3AVWN2QVSTHUWDXQ
                0x00008ffa                sym_RPU47CELOEFE6QEDGTIIWZGB4XELPLNKO5IHKTA
                0x0000904c                sym_FY3JF6XBXLAG22E42UPFUU55A3QFAFZDUGSPAPY
                0x00009590                sym_IWCITVPPUY332JRWMVJAKISCC47TLWX26E2MXOI
                0x000095d8                sym_6PZGCXLPPNIPYHSAJRHQXJCKUI2SGZWI2B4DQZA
                0x000096d8                sym_2MTQAETLPZUE4ZJFGJBDUADTDDEDQL67CNLDYRY
                0x000096f0                sym_24SKLESBEZEAQ7XSDAQVJQD35IVFROKORCGBXPI
                0x000096f6                sym_5AXOP4FMWSDQG27BL6BIS5GAVXQZMPGL37SAGQA
                0x00009818                sym_WMA2OWGJYGOIIQV6R2LKF37IWYQHWWBT5LUJG6A
                0x0000981e                sym_TNVKCCE6LDZVHPQKTT3GUL7GTCM3S4JH32OCN3Y
                0x00009824                sym_FQCHK2QLF7THGK7G4A4OWWNXI3K2TVYTTB4U4GY
                0x00009886                sym_ECB5OPSXODMU7WL2DW3J4QJROFZEABPT2LGZ33A
                0x000098dc                sym_YK6IWY5GKQZZ2ZDYABW3XAEZQGAECOAED3HHDPY
                0x000099be                sym_EXAZKO22MNOFNIXIFHQ2Z4GAYMKBCE2UPJ6JSVI
                0x00009ab2                sym_NMGL3VPCLS5FWN6J5OP2RHYNADKEJ7ARTBZB45A
                0x00009bd8                sym_7XLJMDJLN3HFZ62N4AZADQFCXDQ5POE6FAL5P2Q
                0x00009bec                sym_6LWBEVS5N6UBFJ6K5O4DUS3F7KTJBABC35DWXIY
                0x00009c06                sym_GWLFBYMUVMRXAWJAYXMEGM7D57QYGUJF3J77TCA
                0x0000a97c                sym_KI22E7SNUU4SSUGQ7PUDMBEHERNXLLCCBKOZDTY
                0x0000a992                sym_PDDLBAI7RAK2OQ7ZHFU33L5KMJV5YKPLX5ITXAY
                0x0000a996                sym_I4MPPJWE5TYSC2ELQNUWYVNFYJKDDDI4E2NHKYA
                0x0000ab72                sym_OTZAOT4DEZSL3R4MXRNUS2BIBKPPCOEO2SMZYAI
                0x0000ab7e                sym_FIYSAC63N2FF462LEI76F5US34JKFTAQDSI2LXA
                0x0000ab94                sym_IYZQNCOB4T4XO27DREWRIWJFVHVS355NEDBEGEQ
                0x0000b344                sym_GRKUQI62F6CK2HPCZKZRWSZ3PZVCGXTWPZAIMJA
                0x0000b694                sym_RUQGL7Y7CEVCWXKLY62UGVRWLQYUPKUGTSH7NVY
                0x0000b6aa                sym_FHPTOTNL5PBAQCIRZIVTO2K4BEEFJ476CWP3LUY
                0x0000b6b0                sym_UFX5YQMS76OVX4LZ7T6GRG5R56NF5732ZNTZZJA
                0x0000b6bc                sym_KKOQ5JUJEALRBHUIWAQKNAAQOJ2UQAA7ECYDWQQ
                0x0000b6c4                sym_LNZ32QECMX4PB4V2EHP7VRKJTYS3GVVUKEYJ2ZQ
                0x0000b6ca                sym_HT64RIVISXSWFJE3LL26YHKQRTRRXKVEDBUUUOQ
                0x0000bf58                sym_CZFK26FRDZ53FUV75DOIMFWVD4RTHYB6I22U4LA
                0x0000bf64                sym_ULQ236TSMK6UJATLJCXSX5JBKSVB4ZM2NNU74PA
                0x0000bf7a                sym_4OWM6DBJ6JLAWH2MVU52MKC56VOOJLN34T33LQA
                0x0000c2de                sym_SQINY6V2VHFAHM5HL3H753H3QE3VQ7FWHCIJ57Q
                0x0000c5a4                sym_WCN6C6ROB2XGQKTGXN5OMY5TLRX5IYOWNO7A6PQ
                0x0000c5f0                sym_Y7AVZMA56ZL7YUO4EH7QCTNH6P3ZXX2D4F33L2I
                0x0000c62e                sym_4UMPVHCMNEM5ENBBHCLGXZREGEKKHKHZOKNMH2I
                0x0000c634                sym_JRMPLJGTTPBHRRZI5ILINDEERL6BQMJEDQSYRPI
                0x0000c656                sym_OYNZTQ3AECHJOG4PUK7RC5NT3NO6I7RHL4JJYYA
                0x0000c658                sym_Q3RLGT2MQM6S4H2ODVJHPDU44HGSYVXJV7676ZY
                0x0000c65e                sym_IHWHOAENEU2EYZP2UWQTUC6SSXGS5NNQSIFSEAQ
                0x0000c664                sym_ZULXSERCAZOVB2ZZ7BC6764V73TJQV72ZPWILSQ
                0x0000c66c                sym_P6ESEOOF3E3ZRYNBCJWJZXMT4EPJJMHF472YBMQ
                0x0000c792                sym_MLR5CH7STOYI2LOXCQCZOKSWTLBZCMI2UACPF3Y
                0x0000c842                sym_GO6SMKR2HVVODMDUG6XHGMJRVEQJ2XL3QPE3HDA
                0x0000cadc                sym_XVHXHV2OYNTH3WTK4RY4WYONB327AFUFXB3IZDQ
                0x0000ccc0                sym_BAUTABQSJLBAZ6GNH7KOF4MJMAA6NF7CDAZNOEQ
                0x0000ccd2                sym_62DUXM4M5AM4URNPP7IKDX3NCPAODBT4BMADGAY
                0x0000ccfa                sym_GHVM34OXBYILMDKR3F5DVNCQCBMJUJL5PW2RQYQ
                0x0000cd70                sym_JAE5CJ34QIQM34DAKQFWDERFAUN5NXFJM57HRLY
                0x0000cd86                sym_JQOBED6Y6P46KNYF2UD53QPDVNRPPOKMQL6EEBY
                0x0000cd8c                sym_WPF5GN3T7F3CCL7OKOL6G2LW47JA44MC6XIU4NQ
                0x0000cd92                sym_KO3VCNGABVWM4325342CFFPZBSXFKFARUCMURAY
                0x0000ce44                sym_PLOW4TMGVQT52FP2ERNRL6S5EELE2YO563WRPJA
                0x0000ce56                sym_EFQGKM4FX4KOCTBEYNRZUVU5UGVDDD6DFLNBQVY
                0x0000cede                sym_2BBXDFQPFHMF76VOSFEBZ3IJMFY4GHDOALWDT2Y
                0x0000cf2a                sym_PG4FIYI7KEO2JZ6TO5RU4VZFZM7HP3VZIGKXMGQ
                0x0000cf30                sym_Z3745JZ5MC4MMBP2LFCOSP7OKPPVFDOPIURJWVQ
                0x0000cff8                sym_G6YVAU2J75AOT237PVQAC5AEQMWPZ6OKE6ASZAI
                0x0000d034                sym_FLX2PIIVHO3CLB5CJ7E7YSNFE2YWATNH27BL53A
                0x0000d18a                sym_VXCJNGKLJFGRH3VNNXSZXYVATPWGTSQFZJQ54RQ
                0x0000d190                sym_R5RFYNEZN3LQHKUKJDN3JLSNHLY4DPKXW3KZMYA
                0x0000d196                sym_WHSZ4VQHSDNZTVWJWAYGMNU7AWSUZKLKTBUNDPY
                0x0000d19c                sym_62B4NCI2CQZLPPINCQVCHO6SYLZVDAWVVCHWS3I
                0x0000d1b2                sym_RHRHCWPUPZHCOID576WBS7QZ2KAUT2GASS2T3QY
                0x0000d1b8                sym_QW6JOH7RCJIC2YFNJEURX5QNB5EIQT646EHIWEA
                0x0000d1f0                sym_F2LWAH27IT4H2IA7TZWGNABUCWINGT6MWXH2WIA
                0x0000d202                sym_YAOI5BW7G2C6EUUY2B4S7A3CWX63A6MP2T3O5KA
                0x0000d230                sym_4PXEOX4NDOTQDEECVX4DCK2R6DQ2UUS2CNP3ILA
                0x0000d248                sym_CCC6EEE4PTYUVAUTN2E6PEPXYLYHOIY6DAICDCA
                0x0000d26e                sym_CMDXCVZHYNPLMTHXOO2UL3QOD6EXLAZP5GS7LRI
                0x0000d2a4                sym_GKUVQYGVTZ7DKWBNC3M5TXN4XZ4Q6TUJFSFOWBA
                0x0000d2ba                sym_L5NT4KXGEDXZTIBIF6PJMXWXQJC7UYUXJYCCW3Y
                0x0000d2be                sym_IJTA37LCLZMYZVQ3I74HRUK4JDZEZR23VU3JFJI
                0x0000d2de                sym_NCQ5WTBCV7DGPK3QI3SSY5XGKOI2SE3XFCTKQKY
                0x0000d376                sym_ZTNYVYBM2UM3CH2NF2DF4CYN3OTLVACDURSUDOQ
                0x0000d3c6                sym_O5LFW2MVYNJQ6RDJGQZC3ICALFSS6P3N3TKPARA
                0x0000d3de                sym_NILI2ETYIVMR32XQ6WFMUWXYMXNONBSH2DACBCQ
                0x0000d3fa                sym_2X6ZBBHQKFJV27I6OQZLD4IRAL5JANEGA5N34WA
                0x0000d41a                sym_GV7ZEDU63KACGR6K3NXW7W7XARTADNTCQ3P2HLA
                0x0000d432                sym_EV54ITVX6ZJNRIULZTHEWNSCWW5GNYKPCEWELSY
                0x0000d484                sym_TPOICM6M7E6TQVAR7EB5IYJJ7MAGCXC7BSMQ6TQ
                0x0000d48e                sym_3Q2UQ65DVTXA3EZPN34QXGGEFSEA6HOSHLFXCMI
                0x0000d492                sym_DHR6XELGSD2MHYS7JWGEPSKXD43VLKKJDN33HMA
                0x0000d4b4                sym_QEQGMTIGG3AOZQY7JM4T2FY2O3KM2UFUMT6Q7PI
                0x0000d4ce                sym_3DXBFDJKO3IQEXOOHBMVXVTLDDG5FSS3TKAZNFY
                0x0000d7e6                sym_HEY3ASR5MAPRZMQHCLX76ITJZYOQ2OWWQGFPKUQ
                0x0000d7fe                sym_ODIQTAIRDNRDYKCNA6G2YSI7F2EB2RNBBTF6MBQ
                0x0000d816                sym_3LQGLF52CJLOKQOJSNFVLTD3CW6GGPJMARVGQNQ
                0x0000d830                sym_4NT3PFFI5Z6RN57T2HW54HJZ23JEQUTUQPJLJGI
                0x0000d93a                sym_I6CP23ODGJWRR4E4LKGCN5RJCVBTXYTDYCCXNSQ
                0x0000da40                sym_LC3ZEWHKON2ISXS533OVI5553RH2RKHRICHPDVA
                0x0000dc3a                sym_Y4XP65WNQQGU4IMAAWLFT4VSCMMNNWXZH3FCV5Y
                0x0000dc4c                sym_3TFIDXGVC62KMODQ6HTLMSJCJSCBTVKGMWEC7AY
                0x0000dc82                sym_33EXASPJCVGTQTCQK5EBKSNPDNE4NBE7D7W6NSQ
                0x0000dcf8                sym_J5GU2YSZI45UA3YHIJMMX6SWAYPKQ5HXJLXKPXY
                0x0000dd5a                sym_35JWAFJL2IEYRDNORVIQ7BBAS7FQNUVOFCLQNSQ
                0x0000dda0                sym_C5MZWIO7BXLJIO65K7CGSHP3SLST2VORSHVBOVI
                0x0000ddd4                sym_L64WJ6W52HQBFQCTPO5LHELOWQEJNMIWLQKG6JY
                0x0000de56                sym_ATHPLOWBGAIKG7V5SSPNEEN27AC3OGL2HEWE4II
                0x0000deb0                sym_J22YCCWNUNOSXHAJQUUQAO7YZP2SNXLIWISZVHI
                0x0000dee0                sym_76SF2THVWBBVUHDFLIXMTXOYE2LFAIMVFAFT26I
                0x0000dfb4                sym_K4XFYUFHWSS4WLYRDTKOJ7STOPYHBKAJBCXHBBY
                0x0000e00c                sym_75VOI5ZNFW3OXMHUCY2QF6IZX2BBZSQKA7XVCPQ
                0x0000e044                sym_CMGYAOMYUJOSH7VMLD3ENK3VLSIPR3DVYN2F44Y
                0x0000e088                sym_TUMFFBAZSPJ6EEFA6PPXGFY3NVRPDEBDYRN53CQ
                0x0000e0a0                sym_TQS3SWMJU7EP2VBAUOGCTI2HISXQ4NJDOLZ5FJI
                0x0000e0ea                sym_RWTEAM337KVE2MJTEL253634G3F3D3CX5EGNPPI
                0x0000e126                sym_6NROXJNXJONASXBRH4ZGPEEQ42PSH3YLRTC74GQ
                0x0000e200                sym_FRDCUWW6PTM2YTBQLG5XNT6WJGPFH2XWEMJXJRI
                0x0000e21e                sym_ZX776SCJSI3JTFST57XOZBXAMGDDC7FRRHZEJ7Q
                0x0000e32a                sym_N7ZC3LBWUJOAILVKSQ7VVQPJVGTFQ2IN2TKPVHQ
                0x0000e33c                sym_HFTBXB6EEVTEA6UN46QA3JCUQXJQH6HCG5AJGRQ
                0x0000e408                sym_CB3FDFEUY3F2NWFVYZOUMB3I5QKHLDIUWWP26EA
                0x0000e43e                sym_F34BIG3DAVATN4IHLYJVG2XLJOWOK44SMOC6AUI
                0x0000e476                sym_QOK2KYWK62QNZBQRPK2GPAU2IEJXSELK32IAUUA
                0x0000e4aa                sym_DSAIJDVMFSSNYDQYP4G3W4ZBYTG4PAWPSVOBJ2Y
                0x0000e4cc                sym_3GY4TYJRRJL4WNFV6XN3ATYT4MIF4FYTN3S33RI
                0x0000e4e4                sym_NREHYZNNGMA6T4VUMP47EJMM5IU7BRHAZURXRLQ
                0x0000e4f8                sym_XDZ2OHWEUBVVDKEXHUYEULKMIZVRQ77QI2ENP4A
                0x0000e516                sym_5SQGEOI2QIBONU3LMZVAMW3SSGU24TVE57VDLBA
                0x0000e528                sym_MKMKL77LAUBQ4JEH6ZOP4C62SMTD4ERFZLWH4JI
                0x0000e546                sym_OTIPANP3Q7VLW2BQGLZZUUDNR5HBSAYXJSFAKKA
                0x0000e568                sym_6A6FSIHLUNNAM2H65LFSFKBXCMGRSGO36R3DB6Q
                0x0000e600                sym_YJWWIM3RHASWWTC5FXJ2FVPFFWZQSPVS3K54SEQ
                0x0000e604                sym_CUEF4U262DXZTXWJXZXMWNTBHSOJAF5REJP2FKI
                0x0000e60a                sym_B3SSBQ27AVDKE75FBOZBFLCTPCNL4R36MQHE2VA
                0x0000e610                sym_ZJ2REXSOGBKJNHWVNXMDASZYI7CQBWWO2RMVAVY
                0x0000e654                sym_BKZP2NS6ZML5FASSJGDL3MGGCLMOR2QD3H4TIDQ
                0x0000e65c                sym_5JID42ESVW3PB7AVBNALO6R7DLTBIV3DUQMUPQY
                0x0000e66a                sym_CCESLIOCGU3VBJATTC6PPH4SR5FFTYRDAD3D4QI
                0x0000e678                sym_6GC7CC2BUFLCMQVOZDACHKZEET4WUCXSLEMHSCY
                0x0000e686                sym_IHU3CDUD7V5EYGO5QM2WYLAQW6XKEOXVHHEUZEA
                0x0000e694                sym_JSZQTGIJ4JZXNK3GS32KXGHXQNFDD7FM7SKLA3Y
                0x0000e69c                sym_K5Q3WMSYKQOD5SDB35E6WH2TTH6JWICUFV7AXJA
                0x0000e6ae                sym_6DB5RCXOJPQOKFFU6NVPIKFFBDKKQHZ2G3RH4MY
                0x0000e6b6                sym_6FJEZEEBKMCAKI6FMPGNQ7TUXYDPYPEPSNJFOMQ
                0x0000e6c8                sym_S6OULKDJTKEX22F3J634D4SCLUGD4PGWJKJE25Y
                0x0000e6ce                sym_AIYUY22PH5CFYGFYYYX5TRDP6GAU3UXOBISKF2I
                0x0000e6ee                sym_ZJH5YY3PWU3QSXNY3IFWZTVSE7R7I3DXTQQOTSI
                0x0000e71a                sym_MAMY3D3622JJLMFKLRQXSRTVOPUNWAAGSSCAVMY
                0x0000e73a                sym_7MYCO2FKZ6YHTU6F3FTBMPXTAZWDJC75TZKPP5I
                0x0000e76c                sym_2HXMMUCJKGABJMIVUEJMBQS7ZTJP6NBIQA7MM6Q
                0x0000e774                sym_ZABCSXCC24IZ55XFX7TBTMFFVBEZE6NFFBCDDXA
                0x0000e77c                sym_CTU7MOTL5TMHSZCRWD4TOSGRKHNDDERD2VBWHHA
                0x0000e788                sym_AFU66OBWZ4PB4N4LSRMABCYVRF5JWYDAGMHTFBI
                0x0000e794                sym_NBN3EOGXHZ4T4MCP2GVH2OEIRAUXH2O5LOUY6UA
                0x0000e79a                sym_YH5JTH6PWCBRCU43R3ZLZCWQDJFSFFTA7BORL6I
                0x0000e7a0                sym_Z7UCUJVBGA4M2SLMCJWIVRSNKBLNRWUQGP2EG5I
                0x0000e7a6                sym_ZON7MZ3C4HWSX3EOYGRKT5PQM6AICXJVGKVAIDQ
                0x0000e7ac                sym_REIURPOCBRL6AQI4JRJ2U6F4CIX4AJE7RIVWFMY
                0x0000e7b0                sym_4AISIMNAZ5DOHKHUWKWWSTM5N3DWMCENG5UCGDA
                0x0000e7c4                sym_5HQ2KR4C4UN6GY4IOFPU6HXAOEBFH7BXKWJREWQ
                0x0000e7ce                sym_CIBJ2KNMRWI4XDREVS2EINAWO2Z3P7P3ECK3PYQ
                0x0000e7ea                sym_MKTGIX2SOX4LPCFPLZWZXKN6YA5KS6GMWOO7OZA
                0x0000e7f2                sym_G76XDV6TGBB3X2IDLVECOBUR5TUIZ322PBL7DUA
                0x0000e7f8                sym_NKFDM24EUCRVY4OSXLTQVZIORRW5RQDQB4UJ7TI
                0x0000e804                sym_6KYDR3JNRMNBZD2D4KUEK2GB4RCTCKOQRZV2E5Y
                0x0000e814                sym_7T3YS7ZM6TRSXMQ2XWBEJASYAZJXOUEFW4XRVAA
                0x0000e8b4                sym_QK3E4NZKHCNMFGX3DNNKIGCLY2REMKD2JBKOWZQ
                0x0000e962                sym_Y33RLJYQRL6DT5FLCUJE4QFV5XO3CHTWHCBVOEI
                0x0000e9f6                sym_7FFMBSDVRVZYH5XO7CHX33376QMIMFS3BQD5N7I
                0x0000ea7e                sym_V2BZXQPNP7Q2P4CVYNHVSD2T3GLJDRR2FQ2IZTQ
                0x0000eab2                sym_D66UNDVZ3GOIW7NLNL4N37KLOXWCRBXVM75X56A
                0x0000eaba                sym_CYEMV7N7AHPPTI2YTL52NLQ5W4V6HWEZXWJTRZI
                0x0000eacc                sym_R7KPNPOQLQMWVQJPUBU45WO7G3DDK3Z5R6BXJNQ
                0x0000ead2                sym_V7H2M3MTBM7H2QADZOWCWF3DY44SEJODLUCCHMQ
                0x0000eb2e                sym_IVTUI2YPTNE4WQ2CGHYC3S7G6ANVFDDCQ3ROCRI
                0x0000eb74                sym_PVUEVCCU6GBXS4SSN6KRMQWGFE4INJ34NEDDTZA
                0x0000eba2                sym_FITQAUCWEWZALLHJ4Y4UNQWIKT43CPDMCVGNNFY
                0x0000ebb2                sym_AWCPVW2STH7CEB2YJBYMQFZ6JTJ3TZK2TTQHZ7Q
                0x0000ebe8                sym_VNZE4BZDVQNBFVBWVKSTESP2MV3PLABFXOETSUQ
                0x0000ebf2                sym_2OY4CBUPUQFBPO3TTOOGECQPSEJIOADUCURWLFI
                0x0000ebf6                sym_JHF2Z2TSL6QCPZ6Q2XYTPKKJ5235GB6T2JA5XUA
                0x0000ebfc                sym_GJIEU6SL6JWCCXBFUGLPARHNWNGIAYP4QLU7JWY
                0x0000ec02                sym_UBNNLBA4DKKLEAC7UHCE7LB3MM6GRVG2E367ONI
                0x0000ec32                sym_5SDKBJYBSI7H6N7I57UHK2YXPBZMDCUIIL7JVXY
                0x0000ec62                sym_66SPI42RVSYPTJAEZPQR5PX32WQ6ZUXVEH3D2OI
                0x0000ec6a                sym_DN2IKGUZIQHXJKC22UGHDHONA3ZRUIU75NBHRDA
                0x0000ec7c                sym_ELRVJ566H2Q5YXJMDYN6EGWXVBO3KTCYES4773I
                0x0000ec84                sym_DITVEYE66DDQBGMUJGOTYAH42JEW4YT34ZZECLI
                0x0000ec96                sym_GKRK3XFGL66NJ6UHW3QQ3FLUSPIURATAHUDDLLY
                0x0000ec9e                sym_TAEVKBCOSJ5DIIDYDDKCC7LNLD2Y34BLCFGFBSY
                0x0000eca6                sym_AQNKAYNIT4GTGTVAKOZJZSWZBN4I6FFKO6L5AXA
                0x0000ecc0                sym_ASSU5HSD7LU7BXC2C2QNNVLB6AOHO4SQ3KK3OJY
                0x0000ece2                sym_KDG27CITYLRG66Y5P6H5BVIHPU5DAFDVHM7DSQA
                0x0000ecfe                sym_ODGQCF3R3SKYBSK5DAN4W7243KP6EYAL3LXETHI
                0x0000ed1a                sym_SWJ3BNJYDB7LQTIT43HBEIVF4XDMHGP3SMBRMOA
                0x0000ed36                sym_O2B23O5JYMOMMFH6X6KNGJ752KMNUHBQLRFJPCA
                0x0000ed3c                sym_GKNOWO7GMUO66Z63YGKTWG2BRIW6TPGP7PUQ2RQ
                0x0000ed42                sym_6EFQIFZR7CWLGBOQEIRVR6K5AC52XVCYTE4XHAY
                0x0000ed4a                sym_CLMBK65KRQWY2JSWG7BYXAJVRACUXOCNFT2IPRY
                0x0000ed50                sym_SYUCVPKBWJVHVFRFN5N4446ZSHSJVKBYOSWHGGQ
                0x0000eda6                sym_47DI4XEWQVELMHMLOG3QAORXTXBJNEQQCHBWGXA
                0x0000edac                sym_Z4ZI42RGZMV4HNY7AR3E37XXZ7IMFK22Y6ETFMA
                0x0000edb6                sym_WMWALCDSCSGIPZVRYNPCN3Z65BL7HB3ZVUDUXCQ
                0x0000edbc                sym_WRY64WR3RHFREREX3ZB66OLRGKHGDAUZMHJMBCI
                0x0000edc0                sym_4JD2S6UEQ3QU45WT6P4HQLI6XCMF5KD55A47NOY
                0x0000edca                sym_GVKSQ3HVAAAYIHJ3KPHNCAN4HXAZB6BCZZN5T2Q
                0x0000edd4                sym_5AB6G7P3OU7ZCZERFQQ76H5BVT7C7GOOIDMBNLI
                0x0000edda                sym_RM2CYFWBBAMZ6QU7KT5244O7T6GTURMYRG2CBQQ
                0x0000ede0                sym_LUKCLDHCNTYPIERXKRT6RV5FM4MXDAYATWAIXQY
                0x0000edee                sym_LSOEOXZGNVP5DB6ZYJ7WAAXWSU5HO7R25UQZZBQ
                0x0000edfc                sym_5QKH3OGOQJ554S7QC42VJ26GHXIZTOVH7N4IVXI
                0x0000ee04                sym_3TJYOSQOHQD2677U7JVMG6ZM2AEKI337QVGY7TA
                0x0000ee0c                sym_GACCOL6OK5AZZZEY5D5QPNSIBJI3JJRDH53DCCY
                0x0000ee16                sym_HLH4KBER4ZQ33ZCWKFMAS4GXCD63YBGX6LUM4WI
                0x0000ee20                sym_VUV5X4H4Y5BCHQYQ2OODYEDUWFHSSL4GLPT4S5Q
                0x0000ee26                sym_54XCFVWGQWJGZMAGPXTD5V6OZSR66PP5XEOYE4Y
                0x0000ee2c                sym_FES4SNLGDB2HCH3XYZK52SHDPFDGL5NN3ARGNTY
                0x0000ee30                sym_ALFHFCPCHQINI4F6NU6LJJP26B4M2FERQPHDBAI
                0x0000ee3a                sym_MMYJZLVXCKMFPUNAECUW6DM3QIRIH47IIFXKCBY
                0x0000ee44                sym_5WASOMRPEYEGPJYIYCZL3MI6RFVOLW4PF3WQWXQ
                0x0000ee4c                sym_65OGIL725U6FQPGLZMGDICIUHB5S2P2UG7UZGMY
                0x0000ee54                sym_DPBBMGOHRJRJWIFBTEHPLVVPOEIMHXK2HYFFW2A
                0x0000ee5c                sym_F72ACBYKMJPI25JMH6PCTUEZPH6HMPJHM2HMJDY
                0x0000ee64                sym_AWXBPGMPTTTWF7DPZL5Q2JQ4QSDFRJFHKF3BIIQ
                0x0000ee68                sym_GPYTTEK2KDNR73G6ZAXHATMSQZASIEW24RTZFJA
                0x0000ee6c                sym_IR77N76GC2RMGAYGDAEPSAGD4DPXFGWMASI3OGY
                0x0000ee70                sym_WC6UZSDJDS7GHVUUG36QUD3XWMICRFA5JJX42VA
                0x0000ee74                sym_XNOKOPU7R2ZL4VYDMQPD5QQ2YM2WYINLYLRQ4TI
                0x0000eea8                sym_ATMVKJRU6FJAJXHYSHEXCCKRTDJACEACYJQFGVQ
                0x0000eeb2                sym_KIWKQDEBPWXHISYFTEC7I32RP3MHD6CJEPVDW6I
                0x0000eebc                sym_RPQNXSNTPADDKXP5RSAMGT6PEA6HJ6WJSJ5DQUA
                0x0000eed0                sym_6W4RP5FPB5JCJO3Z5DC4X4Z32EKMYTMZXAB3SJA
                0x0000eee4                sym_UFYK3MJMYTFXIMHFKFU3DLI2D3SWWQG22T3SKXY
                0x0000eee8                sym_GRRIKVTWBW2KWQ7YPR62UQBT5XVQYKO2LIWXODY
                0x0000eeec                sym_TW74WOC4KXCLZWAAKHVQNK3WZF2RUZYPAI2JBCY
                0x0000eef0                sym_6HFAHFLWDMEYCQ4GR3OXMWUSK4H5E4C2QPT3NZA
                0x0000eef4                sym_TBET44R4FJLPNUXA63JUSKM5XFPHAMK3HNPAA4Q
                0x0000eefc                sym_VMI6LAIHFJODZECDSALRIOKPVGLRUJ6WTCP43FY
                0x0000ef00                sym_OIELJZXQUH4XDAK7XBXBJX4CE2IIXWLOTEZEOSI
                0x0000ef34                sym_2AEWUZQ66QOZRZKHF7IFSSSWOGAXMPPQQH7267Y
                0x0000ef38                sym_V37KOABA26BNKOPPXCRMHM2FBYFAD7NU4IA7EIQ
                0x0000ef3c                sym_AG7JDKFTDFANNIOBH4HEQO2XNU7V2OR3R525SOY
                0x0000ef40                sym_I6A5ME4L4BDSYALCIKK2V6NRQKRM5QI7WNBE2CA
                0x0000ef44                sym_NLP6ZJLWFIKD5QFVY7ABRBTQM3D4LSEQ2Z6WRII
                0x0000ef4e                sym_OSKMCLAGDGT3TTGOTHZ4LLLF7F32PCB2BIM2MDY
                0x0000ef58                sym_OGBKIF64SC7JDPRAMLN7PEIPETP7P25APLSF2OY
                0x0000ef78                sym_Z7V4WMT2JDSQSNPCH2UEJH6H44L3L7UHMRIWAOA
                0x0000ef8e                sym_AV7I2ZEUY46L57UBHFPJXHTWHXUXBFM344LGDFQ
                0x0000efb2                sym_3SHBJNLJCMMV3N5AOUXDT7UVO7VSZ6C23C643OY
                0x0000efbe                sym_2AQZNK2CNVDGKU4ANCDXTSBWPWKRW4YBO2JNN6A
                0x0000f08c                sym_2N63RT4QVMVALPAQKHLFM4XCZ7MFZ3GZB4GER2Q
                0x0000f14c                sym_RGKYP5TXYS27EGT6ZHZS5EDDAZK5QGTWLBOBJEA
                0x0000f232                sym_5EMU3BEOS6JCQEXTZ5M5LP72YGJNCV3W3R43AOI
                0x0000f234                sym_G4TIIR7KO3GHFF45HCHTIL3RIPRK2LVDQADUYJQ
                0x0000f2cc                sym_4EFBSAGSBKYZBLKABLITCSSNOZ4D6JLJPN4XHLA
                0x0000f38a                sym_ZUFGUNQKQRINYDDQ2AFT3BJLR3IFVV6WJFPT3PA
                0x0000f3cc                sym_ZF7JA2GKDP2Z3FCB5B2ZJUN3IRIQGYGKY5CAPXQ
                0x0000f3f2                sym_5DE2U4NHVAWN6QD5Z4C5WWTNSSZOXPXQ75I5NXY
                0x0000f530                sym_BBCGHL23UJV466BYW2SHQ2OBUQH4NLFTPMY4GQA
                0x0000f6ac                sym_TBSD3DQE2QUVH4PCU4S6BIW7O4TRUZWLDQHOBHI
                0x0000f87a                sym_4DOGMDZGTALJPSDK26RDOFYJAUF2WWYUQSK5XNA
                0x0000fb72                sym_M6MZU5PVUKHQMWMMC4UT23L7SRBW44JZLP26X4I
                0x0000fb74                sym_6U62VIBY6WPT4KP3QY7W2LZRKLWWUQWTJ2TQOPY
                0x0000fdcc                sym_NQ2YKAI7UYAYOWGCBP64AJ3N7ES6V56MZPKG2YQ
                0x0000fe0e                sym_2NLJY3RIUYXQOZYTZ6WNJA5SS4UKGFLVECP5SQA
                0x00010204                sym_QA2HTUWXDQAGJZ32BSTQMVSMKKNETZBUHL37LYA
                0x000102e4                sym_ENTD4T34WRF6FTWNGVZR5V26X2CKWODGEDLLX7A
                0x000102e8                sym_XDQGAOJQ6IU5NS7KOROMAERFSWCW3D3MO2BIQLI
                0x000102ec                sym_5OKDNHIYSDG2NFFB242VCRESG3W37YENBGQLRBA
                0x000102f4                sym_2PTHETYGBZAPJ2ZKYDOVYDIWST3AXGZGS3MY6DI
                0x00010306                sym_UL6TXQTTOV34QCAIQPVPFYEQSUUJPIEN42CTITI
                0x00010332                sym_E3GR2VF26UUA2VWZ2Y3HIYXNU3SITAZBGOK2GXA
                0x00010380                sym_2DIQZNL4PQ4LJGTNCUPMO2N2CADFMWHJOSUVSUQ
                0x000103cc                sym_JNP3XPG2S47QWEENF5PX2JQ36HNB7C2PPNDBQRI
                0x0001042a                sym_FQNF6KMIBMQDKYS2BJP6ZB7BLEET53WUIWQK6FA
                0x00010488                sym_4J2T42QEEBU4YII5BYQOO72J6O3T642SRZXZNQI
                0x00010498                sym_Z6SWMDBE3FHPASES2GEZRCNTNJKSKBQXPSTEH5Q
                0x000104bc                sym_OH2GYDTNQL2GOMT5N64M2LRDK6O2PDY6H2CP6VA
                0x000104e4                sym_JLDLLKBNDO6T4E6HHXX2AI4IG5EDEVR7ET3G3HY
                0x000104ec                sym_VBKW2EEGTD4JJSNUU73GLQHLYR7TWOGYRMQYZEY
                0x00010510                sym_PMB4FUQR4IQVAL4FOP3PPQDDXYDFQIUYDVZ6DGY
                0x0001051e                sym_6WEUHXTH5EO2WNHHRM2I5SRIX3LTA3MNDOQBTAA
                0x000105a0                sym_V4G4DUSXVGCZMSYXHZZWQMKMNZCZVEEIBVCQ7EQ
                0x000105ae                sym_ARFXVVF4DL2JIIQASHFJMIOCUHMKDVBFL25PD3A
                0x000105c8                sym_Y5RIWFUVP4FHJFYC7FBZKM2MV7INK43TLWQ5URA
                0x000105da                sym_HBX5IW73CZMUT5RVJZ7I3PMGMR24PXIXXXSANWY
                0x000105e6                sym_5KZ3ESY4NUZKM5COQRZJAL6CXWIG2JSPGHV3RPQ
                0x00010600                sym_4JSL5B25NNB5WWK7I5BGUTCTKEZ4HYLOODANEEQ
                0x0001062e                sym_PYH4UVSHNWZESRWJUJ3ZT676FMQZCLVGBPGE4SY
                0x00010652                sym_NITRJIWYGM7PLEIQEII3QZID3O3DS62GXB3UYIA
                0x00010680                sym_E6FZ5SATV3SYIKB7TRIU3VVXP7Z56R744UO4YVA
                0x000106ea                sym_ASJQLNM5Y73IFTS4X4HWUIZ7NBRLTD6EDBBE6IY
                0x00010710                sym_4UH7J5YEG2BL7U7S6IZWRIW7ZBIBSJ3SCLJU3WQ
                0x0001072c                sym_CY3FVUNSUUR4I46K644NW3FXSFSLG3ETQWBRBHQ
                0x00010822                sym_PAQFQMAKUCMOA6SUTJ7CAX3DYCWNAJLJQFJCDNY
                0x00010860                sym_UUYGJIXXDA2PLZVOHTNYAR75YHG76CS6ACNZ2KI
                0x000108bc                sym_Q5GJELDUJDXPR5M7PG33JSPACOMZ32BYQV2DESA
                0x00010906                sym_JYVNTINWWHBNIBW6ZPFJYFKZBQTI25EUE75U36Y
                0x0001093a                sym_THL6EKGE7AKTO5JDGU45MV33YSIXORBRMDECS2Q
                0x0001094c                sym_IS5N626FV5MT54PZIWSKFZUUH6WWJWJ46G6YN3A
                0x0001095e                sym_HKQ7V7ZRT4GLUXECWBIODAWUF4IIDSU455UZJBA
                0x000109a0                sym_VT6ZFFM2E7JNVAG5YLSPAZYR4HOPL3X5GX3IH7A
                0x00010a00                sym_4POEZKL66A5T3356722OWKNB5CNFKPMV6JI3HEA
                0x00010a4c                sym_TWSXGABZDFOR6GMTPL43NA2Q7GCJDL7RARUHBMQ
                0x00010a80                sym_MBHLAUPQK3H6ERLQXCLUB2AQHB6N7MDDZSUQGSI
                0x00010afc                sym_7FOXGNIIIKWTK7LVO3GURVRGLMM3ARJVLEJOXQY
                0x00010b28                sym_PVFOGU2UL3BTTUXI6XWPLWPBM6SONWJ3DQKFLAQ
                0x00010ca2                sym_IP3LLUNJTDBIIPB3UG65MJFJZABGVNT2GN3EQPY
                0x00010d56                sym_6BIRJN2J2FO3AU7JB5PK3PAMKLR4PCJXVKJBP3I
                0x00010d60                sym_CNVWBND3CKNA7X75YYI34DQVJHIIO67GC5L2TOA
                0x00010f8e                sym_HAWOEWDYSIRPNLHC2NNQ4N4JQXSF4AVFJWINETI
                0x00010f9e                sym_7IOG66DQ6OROB57JFJCGMFYNYWHYGUZHCQ7JPTA
                0x00011074                sym_B53ULTNRMKMM2752DLWCII2MNWMNLLOI2TCFUOA
                0x000110d2                sym_EK7VKICRIXQCWAL5OTMUQJKN6PBP4AFQGV53JNA
                0x00011174                sym_5BMMTK2FX4MC6OHQ4NUB3RWLF3SEIIGIKV66JFQ
                0x000111e8                sym_OIGYDDD3MFZZU3ADASQLUMYO4BELEFEMD6A2VXY
                0x000111fa                sym_2USEL6R2GGJMMFO4XRNC6NIEFTFUU2HPLL2Z6FQ
                0x00011204                sym_QGWMW63RVCUF5WAVZOHW7BA24PCDR4BLYZQXRZA
                0x00011216                sym_WOLK7J5ES7P57ZMVXNQUWAYV6XJ7AZYSV3TL56A
                0x000117f0                sym_OVTAYAIM2HXXC4KB536GUWKDN6XBONTMDU2FIEA
                0x000118a8                sym_SP6QMTMO64XRDMZ67YB2WSKLJ4N7UT3EJPGUS3Y
                0x000119e8                sym_7SW25XKRUPEFRFPCXK7QR35MHFXEZCDXN225F5Y
                0x00011a46                sym_B6ZAB6SSXJM6TA2WDBDJONLPNSGZQHMWKKULUDA
                0x00011abc                sym_2OOGNLSSB5K32U3GJ2RMG36COQDU6VSPMHTF72Q
                0x00011bfc                sym_THCISJNP2ER2HFLUHGJZXHIPWIUIL2ZENNEO5RI
                0x00011c7c                sym_CT735EXQUXWPD7TNRP2WWTA3LGLYUEOZMPS7RMI
                0x00011cb4                sym_7YL5EH5YISPHYP3GLCPHHLYJDC4YFSU26ARBXOI
                0x00011cca                sym_CMMCSEDLHUSIB2QLUASKN6Q4ZQHCDFYB6OJTBQQ
                0x00011d5e                sym_7PNW2U6SZSMR5WSJWFIGO7AHXBGPULTR2AXOEUA
                0x00011d68                sym_A32XXMQ5QRPQRH3R656RZXETZB6Y54SG45FSCYI
                0x00011f24                sym_CC522QK4M5MTSPVPJNGJXKYD5O54FC2LFC3D3QI
                0x00011ff2                sym_L45ZDH7ERT2JU2EYJULISF6MIOPRO4R2CFYVZAY
                0x0001203e                sym_RXTTRBVT5IDIR6J4URK3YIQSRUYGQS75ZR3ABQI
                0x00012054                sym_D6Z72QTHOBKAEBKPZKUE4VJPVZJ36GAIUXFUHKY
                0x000120e8                sym_MVDV5RBWBEZV6THUS3WDA3RV4H6NH2D4IESH3IA
                0x0001216c                sym_XYKOVFYGOSL56Y753SKDQGINYTUFZGQJGBB54WI
                0x000121fc                sym_D3BVO22ZDNB5P42SIYACSGDFHQS4QFSVERKUH4Q
                0x00012312                sym_P35ZNYRPUOIDHAE32RQYT4RWXL5RC6UIZKLHPUQ
                0x000124fe                sym_HN6JPFYV5RALEY5SK42AILWQ3BESLOSWO6JLUAY
                0x00012506                sym_B56D6C76IM4AAFDQEOHND3OAZFOQIH7L5TPFHMY
                0x0001250e                sym_D6MVGRLHYJG252OE4SOFHNIQS6JTUDSSXUELC5I
                0x00012512                sym_KXE6R52JHXVKOK6AHXAXVCPJHWR4FK73UB2AK7I
                0x000125a2                sym_2DM5GQNBROHI7PDNQDIVTLWENS2Q5ZHESY5XK3A
                0x000126d0                sym_JU2KBYZVAT7EYGVZA4FU7TNK2PDUQNCWUBE5MWQ
                0x00012706                sym_NLJDQQVQW4HF3HHWCCOGCGX457WQXW2LVV5NUTI
                0x0001275a                sym_FYIHUHKV4DLEPRADEPLDQO3YFUPWZFWRUJ4JAOA
                0x0001278e                sym_ULWM63O6UPJLQWAHX3MM6KEQT4NBSDWNEO3LSBY
                0x000127dc                sym_2NK4L7GOM356YAJCQQOOHFA3BPKDFLPCZGBA63I
                0x0001282a                sym_APRSYIAAWNQEFS2BNOBCYUHW6K7QOWGMYBJYJFY
                0x00012852                sym_GNNWZJX3662WRFIX5OCHLN4MOMAPIGACZWUKXCI
                0x0001288c                sym_4V2EUV6HA5H7JOIBZ7KBD7ZED7NWNF24IDV4ABI
                0x000128e4                sym_PXPNES5TFHKILEX5EEOTQR6IH43BD3WO5Z2NM2A
                0x00012952                sym_3DCWNV7YJHHWZIPL2JQEI3XDHPZFZVOT73UNT2Y
                0x0001297c                sym_HPE5IPDSIXGBUE7MMBVEQDKMJ5HMDX6GALKQO3Y
                0x00012990                sym_RWX3ARC7RXCSYIP35ROTG7DUC5BPFDQF4B6XSYQ
                0x000129a0                sym_XQWU4MX22DPQIRRYTXBNWTH2DBYK7MH33FME7FI
                0x000129ce                sym_DVVOECRRYK6EAGDREB2UKKQZT5MAOOUK66XNPTA
                0x000129e4                sym_J2SUO2NMPPNDQZAGB2FE5TAXJFMJ5FZXKAPNVFQ
                0x000129f6                sym_3DQ4SO6ZAIABIQ5YYDRKDQGDFYGKHU74BTFBPHI
                0x00012a8c                sym_G3DCGEEAP42NN6SY2NYRRTZIWGNZXZ4S7X2Z3XQ
                0x00012a96                sym_TRVLODF3PGEW44ERRQK54GYRY2QYTOLTPMZN4YQ
                0x00012ab2                sym_QUF4FTTR76WGRIL7MTX77Z7HXTBJVBG4ZANSOZQ
                0x00012aea                sym_KKSU7G3PNQUIRAGBRO7DTTGN3UMRAQC4YPMJ4FA
                0x00012b0a                sym_EHLKCNGTV4EMEVFMYR7ZN37MC5DOWH6VQ63PCDI
                0x00012b5a                sym_224RZ2DP7IR3ALYYINY5Q555S4YHO454K72NULA
                0x00012b64                sym_FFHGUH2C26OC227L25ZQKB5MT3EI7AETFONHCUQ
                0x00012b9e                sym_XOOTGCSEAKA3PUKZW3QYB4DCVC2FKUP2TS5AZ5Q
                0x00013200                sym_QKKL6F2JHHCHTEUPUOJJNSBFNKH3IZRJZ4NKNLY
                0x0001344c                sym_436OKKOGR27QX7FMSZKYSEYLCMU4ZXR5RN4XUBY
                0x000134b2                sym_ONVPV2DV6OK6HG537JAHRS5B7G22RD24D2QGM5A
                0x000134c2                sym_43VAZS4NQXUMOPHD7W7SYFZ3WJ6KGQYQH6UOYPQ
                0x0001350a                sym_IPYDOGNKVSD5CNASNRZPFKSG4XKU4ZG4SVERI7Q
                0x000135c2                sym_FKGRLSJGPWDG44KYHTBA74A2ZDKPDUWGXHS3E2I
                0x000135da                sym_KQELUVJKUXDWI537IIFYFUVTNDSZOYYQ6RIVVLY
                0x0001362a                sym_PCEPE7AUORXF7ZCHW4OK4NR5WUDPPFTX37DFDKI
                0x000136ee                sym_YMW5P5Z25NDSJ65UXKIOBGVYROWOQOHJECRGWJQ
                0x00013704                sym_QHGHSVTF7L437YVLUCKKPDATAJPGFRYC4WKEE3Q
                0x00013798                sym_BWOW7IRAHQYZVS3PPGHEV5NC5WFIEH4A4RVZSCY
                0x00013a9c                sym_3X3XIYZ47P6PUIPMHDVYO7YOEUWBHGUNR26JAYA
                0x00013aa6                sym_DT76CGJPKTZTBYTJ74CI3APDNUWUPZSXP2BUGWY
                0x00013b36                sym_NN7F2AFPNY6STZCCSXFBV5372QVP4U2ULKNO6YY
                0x00013b62                sym_MVPTAXVMKKJKZSZY7URPZXTLDWW3HFU23KIS2JY
                0x00013e92                sym_KTO2H4NDIYSSQUUKE3NMMN4YAJAKAHZE3TQVHOY
                0x00014002                sym_QMHDNNOAJ4G3Y5S4NQPPUWX2NJ4XF5MN7JMRCRQ
                0x00014006                sym_2QCSOYKJNF32ZBJORU6CJN7O5NDB7M3GD4LTM7A
                0x00014010                sym_PFKJVDIBJBHFBUYDALAAP7MFUSMNKOWSNJGWRAY
                0x0001401a                sym_D6XBTQIVTZMCQHRTXBPUG4LJDRO2NQFVJZIEQ3Q
                0x00014050                sym_UEULVNDQB4E2WOIURLARZUGWNRNWHFWAZWRTJLI
                0x0001405a                sym_CWCJBYNEE73YTWZDQ2FWMB5MOYKQIAA5AHOKAEI
                0x0001409e                sym_MWLD7ADI4DKLCCAP7TV4Z4ALM2E7XBXHCX6LARQ
                0x000140b4                sym_WYXBJE6NWBKILRWDCM2MMYJSSQVAUS4Y4CIL3JA
                0x000140be                sym_7OT6T6H7FO6JJ5QUHQ372WKCV5GYSWESBFGUSKY
                0x000140c8                sym_CAWX7VFIWXNZLGUALKXHPOWKG5OUKQTCDAWDIJQ
                0x0001419a                sym_HTKBM4AXPDDAEAMJNV3SEGKNDOKHE4XGMB7II5Q
                0x000141b2                sym_DKYSP3NMOGW5WL2AN37B2ETSQMQQZYB63CFPVXY
                0x000141fe                sym_PO5RQ4ZVBHYPFJK4SYCYOP6R3FONUTV7XE7TXJI
                0x00014206                sym_UNILPC3WRTR35RH7UOHDW2CBEPUWSJ7EITIV3ZY
                0x00014230                sym_AVOBGEGUX6YUTFWKEXPDLUDRWZHMM2G5PRQSPTQ
                0x0001426a                sym_2P3U35PVPGI22WKCAIMTRDZZMPBUUYDSHVM74OA
                0x0001429e                sym_C6DXC74AFTZZCXMRWBEAHQAQL3FVDNYSC45JP5Q
                0x000142a8                sym_MTC4J2MZE6VAAPCSLUXPAJHBAOGCFLQEYGARL6I
                0x00014302                sym_E357R5GSET4BZKCOLPRJE7KKKMWMTNVTPX35LJQ
                0x00014312                sym_SPOA75Q2J6LVU6OSBDIHNSVXF4UIA7YYLMJNW6Y
                0x00014338                sym_RYEXTTI2ZOCM2CXR6YIX3LY4EY42JA2IAGTBDIY
                0x00014342                sym_Y3LLBAILR6W7PLNIFAS76NKLAMZYWOKXIQMSIJY
                0x000143d8                sym_LSVSDRPU6I3TDCLLOUEM2V2AVGSQ7RX4GJRYLGY
                0x000143e4                sym_JH5ADKYUIEBFPMKUMAVM7RVFHSJKEQWWRBLQ2AQ
                0x0001442c                sym_RWYVE47IYOKN6HUJXX45MVNSEW3YEDUTJAZPNXA
                0x00014450                sym_E2CRP72QBQBK56N4JLXHAC3TVB4DCKBR4JCPWZI
                0x0001447e                sym_XBDMNIW47VUZEYQHDGJMLJR7FCSF7PXYPBFHTWQ
                0x000149f4                sym_QD7ZTYZWXT5LTOZRTMU43USSWTYVFOUMSAF3DJQ
                0x00015046                sym_B5SHRQ6LR3UZ4HWWO7HDTLPWRRZYHZWVKFH25BQ
                0x00015158                sym_PUD4SG3QFQ2D3VXFM5N3RZXE6AO3WC74NX7S6SA
                0x000151e4                sym_RNYYM37CGZ7IPCRZLABOSSX3B42WCXSQVQCZKAQ
                0x00015d48                sym_5ATVDULIG6DGCAQSRDHXRO37ITSFNT7QVD7OMTQ
                0x00015d56                sym_N4ILSLKDZS6JBJI35QECDSPTA4MOGH57OAV3Z5Y
                0x00015dc6                sym_FAPOGCJRWOGHKT5FLSNV5WF24UMWLAL7BRWCABY
                0x00015dd6                sym_YQSZSBUZO5EU4Q7W67AIMPKVNIFTI5MUAOPKXFQ
                0x00015e00                sym_MZZ5CJE5YKBRI3UNENSSXM3SF3FKPPVI2OL74NY
                0x00015e3a                sym_SWPEAXAKUAMV34R7OIS3KZZ6NA7XHQ5XSGDVJZY
                0x00015ec4                sym_TU53X6U5TYCT4OO2I5MUE4REIO6TLK4QPK7T6JQ
                0x00015ed2                sym_L7CMEPMRYFUZ3O3PTD75QZHBQSONVXPRWDAZGMY
                0x00015eda                sym_LAYK5IGLYEFQ5CM2XGZHPMQBISU3CLYKB6Y3VWY
                0x00015f12                sym_TDESCM2KMVRARVKFEVRNM3EH3TYNKK3XE7WZ2DI
                0x00016262                sym_FO2KXXPMB6IQFAA5KGFFJWZILDAFSKWASS4B2FY
                0x00016280                sym_VT32C45B7GWIM6JWNGEA5DKX5ROTAQOVT2QHK3Y
                0x000162ae                sym_APQBQYVRLINLVCFXLBBEITGXGOI22AKEZA4TBXI
                0x00016422                sym_O5OKVEPVXGQWULJQT7IB7WKP5SOAFRRRLE3UUPI
                0x00016508                sym_OMJ3SW7NEDZYIEECEHTEY7EFLFDPDBULVOYOR3I
                0x0001651a                sym_LMI3LP3R6KH3EDUUHFDUDERKSQUBPDIRS5TAKBA
                0x00016548                sym_JTIKMLCGUTKDFF63VWPPW3JFFVV6QHMOAN5I7EI
                0x0001654c                sym_32GRFSJCSG5GDQFQ3JBB3E6V4TGEO4VM6NS3TOQ
                0x00016558                sym_R2VJKLSYF5CMGIG2T3WINKKX7554IB2FFBHA6RY
                0x000165e0                sym_JU742LCDLL7PZRKE4HZMDATVAWDO5RTNLQEGJHI
                0x000165f6                sym_YF4J4DGFDTHAWVS7CGH7Q6ZE54T3BMAUQX7A5ZA
                0x00016618                sym_53QCUFQJL7THPXPY7D52APAWVSXMBLEHKKOMHIA
                0x00016620                sym_EA2OIFOYBL536GCLEMSHJDFT7UVOA367L7FA4DQ
                0x00016c44                sym_KQKWNJ24IT4YTBY6WYHRKP6NRFYBAE2YIEDBBPI
                0x00016c4e                sym_MMTZDVZM4VKIN5FRNQGAYYKV6NI7MNHOMC7PKEA
                0x00016c54                sym_ZZR64W3RZ3WSWGD2OR4T45AQ4FKU7RMW4YX7JJA
                0x000173fe                sym_FD3YSKMJFZZ6QLBN5QYR4W3IEFZPNIDML2SRNFA
                0x000174ba                sym_PZUNZTYT7AZJNJFZS5D6BQSK2VUJ7IAMM34PDSQ
                0x000175a0                sym_ISR6E6LL7HYQGIFYQPUWHC72HFJNSE3PNKRJLMY
                0x00017600                sym_64HX2E4XZUI7W6V3KWAXUMCQ3Y3TK7QM4TKA7RQ
                0x0001765c                sym_NMFSQPWNRCV6HXBI7IE26MSQQN35QYITSFUP7UQ
                0x0001771c                sym_OGE53YVCDVSXCRWCTHIWFUD3N5GK3H27GWUSVTA
                0x00017736                sym_G3T75QYGDXLADVOG7TRD7S7FJG34FXA2B745E2A
                0x000177b0                sym_QEQ3U44ESDZWCO3BSF6YRZCNVA53QKJJDYOH4IA
                0x00017858                sym_3FFXBKVY5X23ZTRFF54SFBJLPNCARR3MOC6ZW4Q
                0x000178ae                sym_Y5AYENAOXVOJ7PKI6XJWLLPQHV2SD7ORU7EHAMA
                0x000178ba                sym_QH6ACNASCZIPLGXDLTGSQRSHW5NB7ZQTZZRK4YA
                0x000178c0                sym_BVZDVUWU4PRWNYVGSIZ45JXQOM3YRJQGWSNG3GI
                0x000178c6                sym_Y6SXBACDCME42BQNOMGSWASI6ZORAO6FEP2SSWQ
                0x00017926                sym_FWBDPDM7VY7WBRWZ3WP5JROXJKUZAWVORDIS6GI
                0x000179c0                sym_SVA6DLBGPY6XV2V2F4HOMHWDPSDIRD722L2FDEI
                0x00017a0c                sym_75TAEO5RFHKNVZFZHMOMYUKRALUIDEKJ3QZBZUI
                0x00017ae6                sym_DZTS4L2RU3BVZZFRH3V4WKNMY7L544NVD52YT6Q
                0x00017d80                sym_H52HT45NKP4WH3WSFKB24VWMURMNRNFP2GXLTTA
                0x00017d82                sym_GF2KXTTMDWAZ6UYJ4CE5MONVFRL2IKMTPAUESVA
                0x00017d88                sym_N4O5U3NJSTCGLBUPXQCZS42TMU5XHBTVV6MIOFQ
                0x00017d8e                sym_HMSDI75VU7HFAQMNQOPEPNYCU6BJWWMFKOT7BFY
                0x000191b2                sym_C4R73COZU7NKK6UAUGTJ6HNWDG7QPVROF5RMZMA
                0x0001957e                sym_RBN5ILBGHTLTMFBU6S3PJPLXZR54T4XJYV7F4GQ
                0x000195e8                sym_ZPJU5R5GDEFYRMC4TDZZOTGF3X7ZJAYC5F5EFYY
                0x00019620                sym_3AP322LX5PIMI4GVZ7JO5VXSHDSDLPGKXAH2IAI
                0x00019624                sym_7O4TUQ5M7Q3KRCIQ2SPFGVQDIFYV727FSNLFGKI
                0x000197de                sym_VJEPN3SDR5AQAFQ3NEQBRQ5LOSN3JDHOXS2M77A
                0x000197e2                sym_JMIQO3ILZD7SKROBEXXUMUGX2B5S6MSFF2CM3XY
                0x000197ea                sym_ELB4EXXRKBATZ6KCANX37LXPZBQQJSOFPSAT7UI
                0x000199ba                sym_IVQEDWU2IQCQRXV4LSTVJGUOGFD3ORQQY4SW3BQ
                0x000199c2                sym_XMSQSHOMUQJNNSSEXDAX4NHMQIFY5G5ZMQIBDRA
                0x0001a580                sym_UFTVJREFDSBPURDEOROKM62VKMGWPGDZVLS6S3Q
                0x0001a5b0                sym_P7EKJ5CYU44SSSPZYAFFVF6VZFO5OFGODV6H37Q
                0x0001a5dc                sym_LSVXUODGZJADVIFKOE2HEZJ7L3LTLJ5QUYERJMA
                0x0001a612                sym_HZQRLRATD7QSGBUH6OCD63VENQWJQXW3XLDATVI
                0x0001a66a                sym_QXDT7KTVP4WIIYVP6UYQSVV2AXWJIXUHHFSVLYQ
                0x0001a744                sym_BIDMG7YHRFQNLIKRFVSOGOT6IXZCQ6UEJKN52VI
                0x0001a75a                sym_2NT6W5URR5J5MBDGVX5E362NGRP3PCLLODQIR3Y
                0x0001a764                sym_3INZK2Y6WEC54L7BC5HKP7S3QMOUI3I3U4ISZ2A
                0x0001a798                sym_GRZYRVQILUNQMK5NIC7G7CBL2VND56N3CGGUZVY
                0x0001a7ba                sym_FLXKYQ7XXR5J7NG72XA2VMUUBD43S36VMVUNVXI
                0x0001a7dc                sym_4M5VWHCE3WLNOU2RRGTIHCODV7NB2GAB3G3ZBPQ
                0x0001a7f6                sym_DX6SBAFZFYOBKV6IDKFFUITCO65R6UVNM4PUOFI
                0x0001a814                sym_LOTFHGQTFUFWGX7HOTL4Q2XATGIJRVIMCMOYRMA
                0x0001a822                sym_MDF364N4PQDEA5ZGP5CB3ZDZVZM5Q32KSEZZ5HI
                0x0001a846                sym_XCEN5K7VEI2CAO42XW7S3FKM3HKMOCDCUFDX25Y
                0x0001a86e                sym_5DEPI2OGSPXE5OVFBPVFPSPYPRYUQ54QVVXIKNI
                0x0001a8b4                sym_MSITFZMEKFRIBNA2WU2C6VUZYGJRSJIVBH2SBPI
                0x0001a8d6                sym_KZ5CVONZGMGIGNMI7YD6HLN3FXAAJK6OMEJW6BQ
                0x0001a910                sym_ZG4AW57AAT4BVE2J2CU4KMCCWK46ENDRPKBYXEQ
                0x0001a960                sym_ZQHB3ANU2DANFLJZLZL5U4SPQ2ZDVUAHI35744Y
                0x0001a9bc                sym_TRMXENGHOH4VBQQZPIN222FLCEFU3Z3CD5C47DY
                0x0001a9c6                sym_2A6IJT7MGQ7OBCRC2X2OJJKRLO2X7VBUN6GSTWQ
                0x0001a9fe                sym_MPTBOXO4GVXS22JWYRRCOISMJOLOXU4T7IUQ45A
                0x0001aa5a                sym_VIDE7XVSTT4HHX2MQJX6VUVABAKVNGIPRTLRLEQ
                0x0001aa84                sym_3CD5EC6VYR6RXXLO3FXSZQ37BOYSM63APF5D5BA
                0x0001aaa4                sym_FYMYD324TMLKJZE62CZN4WTXFSPL6FPU2SZH6CI
                0x0001ab1a                sym_QQVHHHKNBN5TJBK4NCDSUYAMXMOEHFSL7HE7RRA
                0x0001ab6c                sym_XPKSFPKFBNSTZZU4FUMGC3XRHAVS24BBL53HRMA
                0x0001ab92                sym_6Q45YYTUN2KDQ5V5UGE3T2LTI5FNGX6WIJYLIDI
                0x0001abdc                sym_4ORUFB7CBNFCNN6PEVKJ5XYEQ4NBQWYAOMW6RHA
                0x0001ac08                sym_UX6VBOIQ7ULLMX3I6UDFOFZ6IT2DVZKKVIEVRMY
                0x0001ac3c                sym_RUQBFILZ5CHV2AAL6C3D2J5Y33TCCAPZTHBGZ3A
                0x0001acac                sym_2ORM7WHEENMS7XIJEHICWP3BYWWMKP4MLHSFBTY
                0x0001acb4                sym_JG3FLXKERY3S5SBPRH7U5J23J3XUE7OJESVKCZY
                0x0001ad02                sym_V67AIMSO57NYVNGXZF2PDQSJQJLITHU4KD4CKAY
                0x0001ad2a                sym_PA6VKMMVXYRG4QPOV5XBZ3GQNGOJSB5VXHVKAFQ
                0x0001adc8                sym_MLT6CXJFSGJ2S2IXLNJO4JNOYLSIUNVDSALAV3A
                0x0001ae16                sym_K7DVDHTWL3F7TVQBJD7AJF4MCRCM54IIDUOJLTY
                0x0001ae58                sym_EP3VAQLFLMU6UK5OW5A7IAQVZXTY4K6PQMSEVLY
                0x0001aeb0                sym_IV42JPIAEYK7E5NDQIOSN4TOL7FHPHFUHRIVYCQ
                0x0001af74                sym_LZLCMBXYRGNNSS6IYQ5J2ORWQO6TGPOEG4SEIWQ
                0x0001af88                sym_4PHPY4QEVZPEO6XICARVNSTSAZLGDZMOU44YNIA
                0x0001afa8                sym_JG4OWOPOBDSVKYOWPCJHHMQ7GDZVMOEUZX73ZYA
                0x0001afb0                sym_ZBDJ2Y5I72NG5GLPCDB32P7JVZVIRY3EZS6BW2Y
                0x0001afb8                sym_53FPWJRYQVPJEOZPLNZO6VOSTP72TYV5A36KFIY
                0x0001b078                sym_HE5JGYEZFIITGQL7PMATDHSORSCK7HJIY5UXOZA
                0x0001b07c                sym_BNUQ5CI25DXEDLVOULTXPCKLL6P4CJJYO4G535I
                0x0001b084                sym_N5IC2XFOXXR3VVDJTQP5OSFNJQ7HF7QNJQZYWVY
                0x0001b08c                sym_YLRTPBVG5ROXKOW4KXUYITRUY3FD2MVZW5LF7ZA
                0x0001b09c                sym_ZQE76VUU7S5U7DETTZA65E75LHFWL5PGRN4JPHI
                0x0001b186                sym_6PPYXQQOLTVZ6DHASA45P4Y6MOJ5US37OHECCGI
                0x0001b238                sym_A5S3P57NWYYY5XJWBYERU6H4QSVP5TCTU7HKA5Y
                0x0001b308                sym_WJZCKVDJU3WW5NVNH77DPRGYVZQLD372GLDYO6I
                0x0001b43a                sym_5QIGDHXAM2SCDVJXJWAT7JGBUAZDFIUNYLWH6BQ
                0x0001b600                sym_Y2NIMZP3EMDKSHPKEMKRL7FZGIRJ2IPLXSMRQMI
                0x0001b616                sym_BWNMSYXRFVGM5ZK5LJYZCKQ42M56MZW2ULUDPNQ
                0x0001b65a                sym_XD56LJG2JTRU4Q2V7WCY72EI3VTZICA3O4ERV2A
                0x0001b666                sym_NGVV4HA4PY4EE2FXBW3ZEH2K6Z3ODQTUSRVBIJA
                0x0001b676                sym_JE2DXOYRYG3BBPLK5YHQY7ERS7RRE4IJALVXECA
                0x0001b68a                sym_Z42VOMOCDCEBPOYKUWX3Q3QLSAMH33LFVQPQUAI
                0x0001b6a6                sym_YG4UROEKVB7ZBE5TWHLNJHYKSFBTXGBYAX3RXRI
                0x0001b6be                sym_KAAZJM32GSIU4TKPLUJU2YYLFZMPQBRNLHRSEEA
                0x0001b6ca                sym_5M6HSZNEV3YTSVWYETA3YYJUR5Q25R5V4KQDQCA
                0x0001b6d0                sym_LPFN6QJEOHBT4AP2K7MEYWDZW35U5VHIHXOA54I
                0x0001b6d6                sym_7CIQBS4FNO23MS6BAN7Q3LK45R62DBPT5FNCWOA
                0x0001b72c                sym_Y6HXZQJARJ7FDWKGPREPQGRRGDOQMXHDALUK6KY
                0x0001b774                sym_GGZBJWSMS4TUNNOCW4LRNMAJX6NYWDM6DE53H2Q
                0x0001b78c                sym_JSHLXOVZJZP3KPTLSJTCXHNIGRQ2VOB7UW7IQAA
                0x0001b7b4                sym_P5FHW5D6G52GF4SB6VZHRFTE7FTVOX2JIIAIJDY
                0x0001b7c4                sym_RXYEX777ZXB2E2DXJWDBCV7AAHWTCHNTLOSENBY
                0x0001b7d8                sym_PCLF3MATC3G3MYGRPG4ATMGCS6N4B7M5CSF2C2Y
                0x0001b7ee                sym_MTFJUGWJZ5BLP55VF6FAZP3YTFXVTBNVA47KMPA
                0x0001b802                sym_MV6YLFTX27ABEAVPYXLVBFBL4QEYOJZ2WRCTMPQ
                0x0001b820                sym_EZCFQXKGAFHY5HQVJOXWDLO45XWMEJQY5WUGZNI
                0x0001b862                sym_MBOR6QO7CTIMBTL5BVPURKFTQFZYFCUOAZ3M43Q
                0x0001b9a6                sym_N4NI6VS6FNRAH56VC7UQWDORNLQMPU3TWCJPVBA
                0x0001b9ae                sym_EMR2H7KEGRFFKS6A4P3ZPPGOJSTVXLGRI25MEYQ
                0x0001bfba                sym_R44W3PQ6U7VCV3EMS3A3NBDOCM7RWFJREBEFMWQ
                0x0001c018                sym_2BY3GPJCNWDB3BSSKBB6B2GDWEPSTDZGPIWIWLQ
                0x0001c0c0                sym_KHJZ2RGPVEPXDKV7QZ2PUJ2I364FCB35GWBF5MQ
                0x0001c10a                sym_CMRNNEG6M37ACHC2V3A2OSIZ6PZ5CIRURJ6734Q
                0x0001c114                sym_6D24UA55ECODZQOCR4V426J4SZI3DAEXJAGHRZQ
                0x0001c126                sym_ODI64LE2WWW5JHLD2ZT6HQFJHLOTWREKVVVJSHQ
                0x0001c25c                sym_L4JTLGMK2AWYAAPRB3O77773SG36X2NTZJ3FAHA
                0x0001c2de                sym_BAE5AID2574UQHWOKHY55745PJT6HXY2EXKBH7Y
                0x0001c30e                sym_KM5SKFVNZKDXUQ7BDD3RZ5UCA5E3ZDVNWYJVR3Y
                0x0001c34e                sym_WD6EQ3FQVKOAARDWHQJJC5SVKHQS7A2MF5YDCPA
                0x0001c39c                sym_WGW6HZ6PNLYQSUJALICWZO27AY5UJWYCU6B6ACI
                0x0001c3dc                sym_2EA2WBXQOKCTPMK7YNDR6QM6MTGHJCDTPZEXNNA
                0x0001c3fa                sym_7VLVVPDI26BVJ64XQBSGXOQYGQA4VH5APIPDGYA
                0x0001c456                sym_55XNA7W2CQFJPCH62ZAKHLPISYHJ7KMNREEN6EA
                0x0001c498                sym_MEIHG7NCZGGHWUGVLRGXMDTZB2OODFJAGHVWGLI
 .text          0x0001c4d8       0x14 C:/ncs.sojkk/nrfxlib/ble_controller/lib/cortex-m4/soft-float/libble_controller_s140.a(libble_controller_debug_s140_soft_nrf52__obfuscated.elf)
                0x0001c4d8                sym_L76Q54PU5QMWD4ASWFSBSYWNNOI5EOFV6LDENYQ
 .text          0x0001c4ec       0xc0 C:/ncs.sojkk/nrfxlib/ble_controller/lib/cortex-m4/soft-float/libble_controller_s140.a(libble_controller_debug_s140_soft_nrf52__obfuscated.elf)
 .text          0x0001c5ac      0x1e4 C:/ncs.sojkk/nrfxlib/ble_controller/lib/cortex-m4/soft-float/libble_controller_s140.a(libble_controller_debug_s140_soft_nrf52__obfuscated.elf)
 .text          0x0001c790       0x20 C:/ncs.sojkk/nrfxlib/ble_controller/lib/cortex-m4/soft-float/libble_controller_s140.a(libble_controller_debug_s140_soft_nrf52__obfuscated.elf)
 .text          0x0001c7b0       0x40 C:/ncs.sojkk/nrfxlib/ble_controller/lib/cortex-m4/soft-float/libble_controller_s140.a(libble_controller_debug_s140_soft_nrf52__obfuscated.elf)
 .text          0x0001c7f0       0x44 C:/ncs.sojkk/nrfxlib/ble_controller/lib/cortex-m4/soft-float/libble_controller_s140.a(libble_controller_debug_s140_soft_nrf52__obfuscated.elf)
 .text          0x0001c834       0x5c C:/ncs.sojkk/nrfxlib/ble_controller/lib/cortex-m4/soft-float/libble_controller_s140.a(libble_controller_debug_s140_soft_nrf52__obfuscated.elf)
 .text          0x0001c890       0x4c C:/ncs.sojkk/nrfxlib/ble_controller/lib/cortex-m4/soft-float/libble_controller_s140.a(libble_controller_debug_s140_soft_nrf52__obfuscated.elf)
 .text          0x0001c8dc       0x14 C:/ncs.sojkk/nrfxlib/ble_controller/lib/cortex-m4/soft-float/libble_controller_s140.a(libble_controller_debug_s140_soft_nrf52__obfuscated.elf)
                0x0001c8dc                sym_47MBMNER75N2M6YIZRIF4DAHSAATJOMK3LAIDCY
 .text          0x0001c8f0       0x78 C:/ncs.sojkk/nrfxlib/ble_controller/lib/cortex-m4/soft-float/libble_controller_s140.a(libble_controller_debug_s140_soft_nrf52__obfuscated.elf)
                0x0001c8f0                sym_6NW2356CNWAKKGW3LNEX2VHYKHEBF5U2BFM2T7A
 .text          0x0001c968       0x2c C:/ncs.sojkk/nrfxlib/ble_controller/lib/cortex-m4/soft-float/libble_controller_s140.a(libble_controller_debug_s140_soft_nrf52__obfuscated.elf)
                0x0001c968                sym_EIQILTLI5MAVHUV7GQWPDCEGFPGNGLVSWHBD6TY
 .text          0x0001c994       0x3c C:/ncs.sojkk/nrfxlib/ble_controller/lib/cortex-m4/soft-float/libble_controller_s140.a(libble_controller_debug_s140_soft_nrf52__obfuscated.elf)
                0x0001c994                sym_FU27Z5N4NUGX6SBANL2RWHZWXTKLN4BMUJ3ZRLI
 .text          0x0001c9d0       0x7c C:/ncs.sojkk/nrfxlib/ble_controller/lib/cortex-m4/soft-float/libble_controller_s140.a(libble_controller_debug_s140_soft_nrf52__obfuscated.elf)
 .text          0x0001ca4c       0x90 C:/ncs.sojkk/nrfxlib/ble_controller/lib/cortex-m4/soft-float/libble_controller_s140.a(libble_controller_debug_s140_soft_nrf52__obfuscated.elf)
 .text          0x0001cadc      0x2bc C:/ncs.sojkk/nrfxlib/ble_controller/lib/cortex-m4/soft-float/libble_controller_s140.a(libble_controller_debug_s140_soft_nrf52__obfuscated.elf)
 .text          0x0001cd98      0x14c C:/ncs.sojkk/nrfxlib/ble_controller/lib/cortex-m4/soft-float/libble_controller_s140.a(libble_controller_debug_s140_soft_nrf52__obfuscated.elf)
 .text          0x0001cee4       0x90 C:/ncs.sojkk/nrfxlib/ble_controller/lib/cortex-m4/soft-float/libble_controller_s140.a(libble_controller_debug_s140_soft_nrf52__obfuscated.elf)
 .text          0x0001cf74       0x18 C:/ncs.sojkk/nrfxlib/ble_controller/lib/cortex-m4/soft-float/libble_controller_s140.a(libble_controller_debug_s140_soft_nrf52__obfuscated.elf)
 .text          0x0001cf8c      0x4e4 C:/ncs.sojkk/nrfxlib/ble_controller/lib/cortex-m4/soft-float/libble_controller_s140.a(libble_controller_debug_s140_soft_nrf52__obfuscated.elf)
 .text          0x0001d470       0x6c C:/ncs.sojkk/nrfxlib/ble_controller/lib/cortex-m4/soft-float/libble_controller_s140.a(libble_controller_debug_s140_soft_nrf52__obfuscated.elf)
 .text          0x0001d4dc       0xd4 C:/ncs.sojkk/nrfxlib/ble_controller/lib/cortex-m4/soft-float/libble_controller_s140.a(libble_controller_debug_s140_soft_nrf52__obfuscated.elf)
 .text          0x0001d5b0       0x74 C:/ncs.sojkk/nrfxlib/ble_controller/lib/cortex-m4/soft-float/libble_controller_s140.a(libble_controller_debug_s140_soft_nrf52__obfuscated.elf)
 .text          0x0001d624      0x140 C:/ncs.sojkk/nrfxlib/ble_controller/lib/cortex-m4/soft-float/libble_controller_s140.a(libble_controller_debug_s140_soft_nrf52__obfuscated.elf)
 .text          0x0001d764      0x208 C:/ncs.sojkk/nrfxlib/ble_controller/lib/cortex-m4/soft-float/libble_controller_s140.a(libble_controller_debug_s140_soft_nrf52__obfuscated.elf)
                0x0001d764                sym_QWOE5H22ZADGJX5JSROW7BOI32Z6PPEEJCISNOQ
 .text          0x0001d96c       0x70 C:/ncs.sojkk/nrfxlib/ble_controller/lib/cortex-m4/soft-float/libble_controller_s140.a(libble_controller_debug_s140_soft_nrf52__obfuscated.elf)
                0x0001d96c                sym_2O2USXABBLL6KC7E5NJFOHR6JLZMSV4AU5ZYH3Q
 .text          0x0001d9dc       0x50 C:/ncs.sojkk/nrfxlib/ble_controller/lib/cortex-m4/soft-float/libble_controller_s140.a(libble_controller_debug_s140_soft_nrf52__obfuscated.elf)
                0x0001d9dc                sym_VDVM4QLBTRUPEGCBUXIK25LH2KVQWBZXHRBYEFY
 .text          0x0001da2c       0x3c C:/ncs.sojkk/nrfxlib/ble_controller/lib/cortex-m4/soft-float/libble_controller_s140.a(libble_controller_debug_s140_soft_nrf52__obfuscated.elf)
                0x0001da2c                sym_W447CEMR6K6QRW3N63PRPIR7NK6ENOSBFXLCPRQ
 .text          0x0001da68       0x40 C:/ncs.sojkk/nrfxlib/ble_controller/lib/cortex-m4/soft-float/libble_controller_s140.a(libble_controller_debug_s140_soft_nrf52__obfuscated.elf)
                0x0001da68                sym_UY2NI5OOASY6266A2A7GY3XEUA5M2CDE2WTVEIY
 .text          0x0001daa8      0x18c C:/ncs.sojkk/nrfxlib/ble_controller/lib/cortex-m4/soft-float/libble_controller_s140.a(libble_controller_debug_s140_soft_nrf52__obfuscated.elf)
                0x0001daa8                sym_J5F7QGRFPKMLWRNSXZXS5YI7BM4DUTISCOASCOA
 .text          0x0001dc34       0xcc C:/ncs.sojkk/nrfxlib/ble_controller/lib/cortex-m4/soft-float/libble_controller_s140.a(libble_controller_debug_s140_soft_nrf52__obfuscated.elf)
                0x0001dc34                sym_6C4FDDPHPYKBTGG23334377JD4UWAYAUJ276O2A
 .text          0x0001dd00       0x14 C:/ncs.sojkk/nrfxlib/ble_controller/lib/cortex-m4/soft-float/libble_controller_s140.a(libble_controller_debug_s140_soft_nrf52__obfuscated.elf)
                0x0001dd00                sym_MGCUANL7Q2CUPWKYBFLWSWSNXIEEYBPZTHT2VZI
 .text          0x0001dd14      0x4b4 C:/ncs.sojkk/nrfxlib/ble_controller/lib/cortex-m4/soft-float/libble_controller_s140.a(libble_controller_debug_s140_soft_nrf52__obfuscated.elf)
                0x0001dd14                sym_NFDFVOR5BUFND4TNTGYIYR4ARXJRXWSQ4PVFUKY
 .text          0x0001e1c8      0x2b0 C:/ncs.sojkk/nrfxlib/ble_controller/lib/cortex-m4/soft-float/libble_controller_s140.a(libble_controller_debug_s140_soft_nrf52__obfuscated.elf)
                0x0001e1c8                sym_CVH6S6LMSFPC2RM6I6LYWFRVOJUD3A6OCMG7AAI
 .text          0x0001e478      0x218 C:/ncs.sojkk/nrfxlib/ble_controller/lib/cortex-m4/soft-float/libble_controller_s140.a(libble_controller_debug_s140_soft_nrf52__obfuscated.elf)
                0x0001e478                sym_R4Y3KWNYX4PGGLE5X2L7DXMWMJUY3DOXD7LSUKY
 .text          0x0001e690       0x44 C:/ncs.sojkk/nrfxlib/ble_controller/lib/cortex-m4/soft-float/libble_controller_s140.a(libble_controller_debug_s140_soft_nrf52__obfuscated.elf)
                0x0001e690                sym_CFZK3G6ZC4ONUAYO2UALWQ4CBO7A6ADNAS2FS7Y
 .text          0x0001e6d4      0x210 C:/ncs.sojkk/nrfxlib/ble_controller/lib/cortex-m4/soft-float/libble_controller_s140.a(libble_controller_debug_s140_soft_nrf52__obfuscated.elf)
                0x0001e6d4                sym_DQFOGVCNU4NTOMWSL3IYDNCMIXT2LT7SZHL5IHI
 .text          0x0001e8e4       0x44 C:/ncs.sojkk/nrfxlib/ble_controller/lib/cortex-m4/soft-float/libble_controller_s140.a(libble_controller_debug_s140_soft_nrf52__obfuscated.elf)
                0x0001e8e4                sym_RPHL2J7CVNKM6GKLDIFI4NVAPZE2FHTYW4VJSJI
 .text          0x0001e928      0x128 C:/ncs.sojkk/nrfxlib/ble_controller/lib/cortex-m4/soft-float/libble_controller_s140.a(libble_controller_debug_s140_soft_nrf52__obfuscated.elf)
                0x0001e928                sym_SFR5TVV24PZRIRC5QGOHL2X436PUHKRY2QWKP5Y
 .text          0x0001ea50       0x8c C:/ncs.sojkk/nrfxlib/ble_controller/lib/cortex-m4/soft-float/libble_controller_s140.a(libble_controller_debug_s140_soft_nrf52__obfuscated.elf)
                0x0001ea50                sym_URFU24FFGR2HYB6CCPIPKPNZNMTWHKDYOATUJNY
 .text          0x0001eadc       0xb0 C:/ncs.sojkk/nrfxlib/ble_controller/lib/cortex-m4/soft-float/libble_controller_s140.a(libble_controller_debug_s140_soft_nrf52__obfuscated.elf)
                0x0001eadc                sym_ZC6NJBPUISWILQK6OTOBMJVVUT63JRIDGH5WNCY
 .text          0x0001eb8c       0x3c C:/ncs.sojkk/nrfxlib/ble_controller/lib/cortex-m4/soft-float/libble_controller_s140.a(libble_controller_debug_s140_soft_nrf52__obfuscated.elf)
                0x0001eb8c                sym_4FXF7BZT2IZ3YRYSE3Z2XCICKWZPGDZTXL2ECZQ
 .text          0x0001ebc8       0x3c C:/ncs.sojkk/nrfxlib/ble_controller/lib/cortex-m4/soft-float/libble_controller_s140.a(libble_controller_debug_s140_soft_nrf52__obfuscated.elf)
                0x0001ebc8                sym_IF4TBVJKPFAX3QXRBLEPLHPXVH6FT3QLP5B4VII
 .text          0x0001ec04        0xc C:/ncs.sojkk/nrfxlib/ble_controller/lib/cortex-m4/soft-float/libble_controller_s140.a(libble_controller_debug_s140_soft_nrf52__obfuscated.elf)
                0x0001ec04                sym_VJEK4XS7F73UVK3OKMWLYLJEHOD3EB5MY72V6OQ
 .text          0x0001ec10       0x58 C:/ncs.sojkk/nrfxlib/ble_controller/lib/cortex-m4/soft-float/libble_controller_s140.a(libble_controller_debug_s140_soft_nrf52__obfuscated.elf)
                0x0001ec10                sym_KRIFY7ONBBSU6QHFDWYLN5WQPGGEBIZW5444PSQ
 .text          0x0001ec68       0x9c C:/ncs.sojkk/nrfxlib/ble_controller/lib/cortex-m4/soft-float/libble_controller_s140.a(libble_controller_debug_s140_soft_nrf52__obfuscated.elf)
                0x0001ec68                sym_FWFSKF7Y324J5I4DZHZZ2GV72HRMZDZH74TAMPQ
 .text          0x0001ed04      0x148 C:/ncs.sojkk/nrfxlib/ble_controller/lib/cortex-m4/soft-float/libble_controller_s140.a(libble_controller_debug_s140_soft_nrf52__obfuscated.elf)
                0x0001ed04                sym_E2RIYRSOCW6D5KLLAHYEJS2AJLVKRUUW46ZGW7A
 .text          0x0001ee4c       0x5c C:/ncs.sojkk/nrfxlib/ble_controller/lib/cortex-m4/soft-float/libble_controller_s140.a(libble_controller_debug_s140_soft_nrf52__obfuscated.elf)
 .text          0x0001eea8        0xc C:/ncs.sojkk/nrfxlib/ble_controller/lib/cortex-m4/soft-float/libble_controller_s140.a(libble_controller_debug_s140_soft_nrf52__obfuscated.elf)
                0x0001eea8                sym_M4DIQOXJAE3BNHQBIUCZXAABSM24CWUEJOCU7DY
 .text          0x0001eeb4      0x194 C:/ncs.sojkk/nrfxlib/ble_controller/lib/cortex-m4/soft-float/libble_controller_s140.a(libble_controller_debug_s140_soft_nrf52__obfuscated.elf)
                0x0001eeb4                sym_2ZDZA75WOMRNSQ6XL7IZWAQKYFFSRJOGBGKPTIQ
 .text          0x0001f048       0xe0 C:/ncs.sojkk/nrfxlib/ble_controller/lib/cortex-m4/soft-float/libble_controller_s140.a(libble_controller_debug_s140_soft_nrf52__obfuscated.elf)
                0x0001f048                sym_UGOJA475OXR5HR5WFINUK27HP5BRGNWCZXQLKDI
 .text          0x0001f128        0xc C:/ncs.sojkk/nrfxlib/ble_controller/lib/cortex-m4/soft-float/libble_controller_s140.a(libble_controller_debug_s140_soft_nrf52__obfuscated.elf)
                0x0001f128                sym_RUQO26WM5KVVEW7O3OHCXPO7LLLXRBDPIPSWIWY
 .text          0x0001f134      0x178 C:/ncs.sojkk/nrfxlib/ble_controller/lib/cortex-m4/soft-float/libble_controller_s140.a(libble_controller_debug_s140_soft_nrf52__obfuscated.elf)
                0x0001f134                sym_GGVJF7ACAS77DU5QM77RZ5QQKN6X4JWLHPIRO4I
 .text          0x0001f2ac      0x1cc C:/ncs.sojkk/nrfxlib/ble_controller/lib/cortex-m4/soft-float/libble_controller_s140.a(libble_controller_debug_s140_soft_nrf52__obfuscated.elf)
                0x0001f2ac                sym_X2K67YH6UCW6TFK6NTLPZZFGWYHTTPZYK5PXHNQ
 .text          0x0001f478       0xd4 C:/ncs.sojkk/nrfxlib/ble_controller/lib/cortex-m4/soft-float/libble_controller_s140.a(libble_controller_debug_s140_soft_nrf52__obfuscated.elf)
                0x0001f478                sym_TSYEIN5CZPQE3YK6VECZD5C2M4LMXKKH6O7LNAY
 .text          0x0001f54c      0x100 C:/ncs.sojkk/nrfxlib/ble_controller/lib/cortex-m4/soft-float/libble_controller_s140.a(libble_controller_debug_s140_soft_nrf52__obfuscated.elf)
                0x0001f54c                sym_SZPD5VRSUPVHHOAPBQZAWZWJZN7DG2JOHP63CXI
 .text          0x0001f64c       0x28 C:/ncs.sojkk/nrfxlib/ble_controller/lib/cortex-m4/soft-float/libble_controller_s140.a(libble_controller_debug_s140_soft_nrf52__obfuscated.elf)
                0x0001f64c                sym_CPXNCG66C5WXYS4GOKTR2JEIS45ZVRZUCBYX34I
 .text          0x0001f674        0xc C:/ncs.sojkk/nrfxlib/ble_controller/lib/cortex-m4/soft-float/libble_controller_s140.a(libble_controller_debug_s140_soft_nrf52__obfuscated.elf)
                0x0001f674                sym_JZCBICE3ME5KHV6IJ2AOTVSUZGSLYUOB6GEDEWY
 .text          0x0001f680       0x50 C:/ncs.sojkk/nrfxlib/ble_controller/lib/cortex-m4/soft-float/libble_controller_s140.a(libble_controller_debug_s140_soft_nrf52__obfuscated.elf)
                0x0001f680                sym_CQWZ455IMTLTPY5LEEZHXHRRNX223B3HTDD45HA
 .text          0x0001f6d0       0x84 C:/ncs.sojkk/nrfxlib/ble_controller/lib/cortex-m4/soft-float/libble_controller_s140.a(libble_controller_debug_s140_soft_nrf52__obfuscated.elf)
                0x0001f6d0                sym_3SK52U5TD4ACVVYKWS6UI6ZPWKSLV6BW5IGCPJI
 .text          0x0001f754       0x80 C:/ncs.sojkk/nrfxlib/ble_controller/lib/cortex-m4/soft-float/libble_controller_s140.a(libble_controller_debug_s140_soft_nrf52__obfuscated.elf)
                0x0001f754                sym_2RWSEL4QI352J4UCJFX2OKZZBJEQCXC66YVX6SI
 .text          0x0001f7d4       0x58 C:/ncs.sojkk/nrfxlib/ble_controller/lib/cortex-m4/soft-float/libble_controller_s140.a(libble_controller_debug_s140_soft_nrf52__obfuscated.elf)
                0x0001f7d4                sym_AO7IDJTBMFZUQLFLRLEUMHZWK5ISLDQ2UN56FCI
 .text          0x0001f82c       0x54 C:/ncs.sojkk/nrfxlib/ble_controller/lib/cortex-m4/soft-float/libble_controller_s140.a(libble_controller_debug_s140_soft_nrf52__obfuscated.elf)
                0x0001f82c                sym_NTHAYWHYROFOKKCJHADL5E5LXSG6SRMDGXUJPRQ
 .text          0x0001f880       0x34 C:/ncs.sojkk/nrfxlib/ble_controller/lib/cortex-m4/soft-float/libble_controller_s140.a(libble_controller_debug_s140_soft_nrf52__obfuscated.elf)
 .text          0x0001f8b4       0x54 C:/ncs.sojkk/nrfxlib/ble_controller/lib/cortex-m4/soft-float/libble_controller_s140.a(libble_controller_debug_s140_soft_nrf52__obfuscated.elf)
 .text          0x0001f908       0xd0 C:/ncs.sojkk/nrfxlib/ble_controller/lib/cortex-m4/soft-float/libble_controller_s140.a(libble_controller_debug_s140_soft_nrf52__obfuscated.elf)
 .text          0x0001f9d8      0x184 C:/ncs.sojkk/nrfxlib/ble_controller/lib/cortex-m4/soft-float/libble_controller_s140.a(libble_controller_debug_s140_soft_nrf52__obfuscated.elf)
 .text          0x0001fb5c       0x40 C:/ncs.sojkk/nrfxlib/ble_controller/lib/cortex-m4/soft-float/libble_controller_s140.a(libble_controller_debug_s140_soft_nrf52__obfuscated.elf)
                0x0001fb5c                sym_ZWB4CI75AHTYQT23EFUNIJ2DDLMVCDPWWIXGAMI
 .text          0x0001fb9c       0x1c C:/ncs.sojkk/nrfxlib/ble_controller/lib/cortex-m4/soft-float/libble_controller_s140.a(libble_controller_debug_s140_soft_nrf52__obfuscated.elf)
                0x0001fb9c                sym_XLER5XAWCDHD7HOSGHE3HQVA7P67PTMU4WIQJXQ
 .text          0x0001fbb8       0x44 C:/ncs.sojkk/nrfxlib/ble_controller/lib/cortex-m4/soft-float/libble_controller_s140.a(libble_controller_debug_s140_soft_nrf52__obfuscated.elf)
                0x0001fbb8                sym_AF5XKA2WT4DMFZTLKHOBWE7E2EZAMLDDFPQGGTQ
 .text          0x0001fbfc       0x28 C:/ncs.sojkk/nrfxlib/ble_controller/lib/cortex-m4/soft-float/libble_controller_s140.a(libble_controller_debug_s140_soft_nrf52__obfuscated.elf)
                0x0001fbfc                sym_PEUB6CZG5CWXXD4M2S6OVBXZGDFOG4XII7USUDQ
 .text          0x0001fc24       0x1c C:/ncs.sojkk/nrfxlib/ble_controller/lib/cortex-m4/soft-float/libble_controller_s140.a(libble_controller_debug_s140_soft_nrf52__obfuscated.elf)
                0x0001fc24                sym_ZLTYEFBAMXHUGLY2I47U3EXKC6QBEQIC3GPNPBA
 .text          0x0001fc40       0x38 C:/ncs.sojkk/nrfxlib/ble_controller/lib/cortex-m4/soft-float/libble_controller_s140.a(libble_controller_debug_s140_soft_nrf52__obfuscated.elf)
                0x0001fc40                sym_QF5ZVZTNLB4V7LQH7ELTZG45KU7YE5LTJFFAQOA
 .text          0x0001fc78       0x1c C:/ncs.sojkk/nrfxlib/ble_controller/lib/cortex-m4/soft-float/libble_controller_s140.a(libble_controller_debug_s140_soft_nrf52__obfuscated.elf)
                0x0001fc78                sym_MXEZOAVPP5LXUOZ6LJGDWJ57JEG5BZ5YB7LCG7Y
 .text          0x0001fc94       0x44 C:/ncs.sojkk/nrfxlib/ble_controller/lib/cortex-m4/soft-float/libble_controller_s140.a(libble_controller_debug_s140_soft_nrf52__obfuscated.elf)
                0x0001fc94                sym_UZOVMIXHY2SDZSVAWFRK4RKQPHXNS37P2CLQ57A
 .text          0x0001fcd8       0x6c C:/ncs.sojkk/nrfxlib/ble_controller/lib/cortex-m4/soft-float/libble_controller_s140.a(libble_controller_debug_s140_soft_nrf52__obfuscated.elf)
                0x0001fcd8                sym_FYHKZOVAJN6VDDHY43FT7PF4YLRDHWRTEWHFG6I
 .text          0x0001fd44       0x3c C:/ncs.sojkk/nrfxlib/ble_controller/lib/cortex-m4/soft-float/libble_controller_s140.a(libble_controller_debug_s140_soft_nrf52__obfuscated.elf)
                0x0001fd44                sym_UG7CMBAYEZEKSKQK753P4TBTSPUXVRWUS6QJJOA
 .text          0x0001fd80       0x10 C:/ncs.sojkk/nrfxlib/ble_controller/lib/cortex-m4/soft-float/libble_controller_s140.a(libble_controller_debug_s140_soft_nrf52__obfuscated.elf)
                0x0001fd80                sym_4CZSFTTT34WDYFZKE2NSCSVSYLPHLZYN7QUTGHY
 .text          0x0001fd90        0xc C:/ncs.sojkk/nrfxlib/ble_controller/lib/cortex-m4/soft-float/libble_controller_s140.a(libble_controller_debug_s140_soft_nrf52__obfuscated.elf)
                0x0001fd90                sym_PIRI3CTIHOPR5MPDQRHBJRRZEA2NVOD4J3GXGOA
 .text          0x0001fd9c       0x1c C:/ncs.sojkk/nrfxlib/ble_controller/lib/cortex-m4/soft-float/libble_controller_s140.a(libble_controller_debug_s140_soft_nrf52__obfuscated.elf)
                0x0001fd9c                sym_LIY23QT3GHIV7NCGJ6ZW6LB2ZUSI56CIFCL6HUY
 .text          0x0001fdb8       0x10 C:/ncs.sojkk/nrfxlib/ble_controller/lib/cortex-m4/soft-float/libble_controller_s140.a(libble_controller_debug_s140_soft_nrf52__obfuscated.elf)
                0x0001fdb8                sym_TIWHB6UQGI33JQCQDL7C2BRAEXCRAFYENVN6QEI
 .text          0x0001fdc8       0x18 C:/ncs.sojkk/nrfxlib/ble_controller/lib/cortex-m4/soft-float/libble_controller_s140.a(libble_controller_debug_s140_soft_nrf52__obfuscated.elf)
                0x0001fdc8                sym_XK3TMLCZALCYYWGULGHQIRSOBMPIIPJ7HEMOZIQ
 .text          0x0001fde0       0x20 C:/ncs.sojkk/nrfxlib/ble_controller/lib/cortex-m4/soft-float/libble_controller_s140.a(libble_controller_debug_s140_soft_nrf52__obfuscated.elf)
                0x0001fde0                sym_LZEJCP3HZIBKMJQC47UQXAHGCQ52QF47EXOH2WA
 .text          0x0001fe00       0x10 C:/ncs.sojkk/nrfxlib/ble_controller/lib/cortex-m4/soft-float/libble_controller_s140.a(libble_controller_debug_s140_soft_nrf52__obfuscated.elf)
                0x0001fe00                sym_AL7FCNVVCF72BNYCTLA5UGAWCQFXFPGE2ULTWOA
 .text          0x0001fe10        0xc C:/ncs.sojkk/nrfxlib/ble_controller/lib/cortex-m4/soft-float/libble_controller_s140.a(libble_controller_debug_s140_soft_nrf52__obfuscated.elf)
                0x0001fe10                sym_7BUNPUBNWNFVXXIMNFFNK765OVON5LBIUZ66QRI
 .text          0x0001fe1c       0x34 C:/ncs.sojkk/nrfxlib/ble_controller/lib/cortex-m4/soft-float/libble_controller_s140.a(libble_controller_debug_s140_soft_nrf52__obfuscated.elf)
 .text          0x0001fe50       0x54 C:/ncs.sojkk/nrfxlib/ble_controller/lib/cortex-m4/soft-float/libble_controller_s140.a(libble_controller_debug_s140_soft_nrf52__obfuscated.elf)
 .text          0x0001fea4       0x14 C:/ncs.sojkk/nrfxlib/ble_controller/lib/cortex-m4/soft-float/libble_controller_s140.a(libble_controller_debug_s140_soft_nrf52__obfuscated.elf)
 .text          0x0001feb8       0x20 C:/ncs.sojkk/nrfxlib/ble_controller/lib/cortex-m4/soft-float/libble_controller_s140.a(libble_controller_debug_s140_soft_nrf52__obfuscated.elf)
 .text          0x0001fed8       0x24 C:/ncs.sojkk/nrfxlib/ble_controller/lib/cortex-m4/soft-float/libble_controller_s140.a(libble_controller_debug_s140_soft_nrf52__obfuscated.elf)
                0x0001fed8                sym_JSJ7ALCOJ6LLDZ6ZKIEO7HBP2RTBQ4YUNXDY7SY
 .text          0x0001fefc      0x114 C:/ncs.sojkk/nrfxlib/ble_controller/lib/cortex-m4/soft-float/libble_controller_s140.a(libble_controller_debug_s140_soft_nrf52__obfuscated.elf)
                0x0001fefc                sym_SMM7FXAGNH5CGLSU6FKRBG24XS3XTMWJCOJFD6Q
 .text          0x00020010       0x50 C:/ncs.sojkk/nrfxlib/ble_controller/lib/cortex-m4/soft-float/libble_controller_s140.a(libble_controller_debug_s140_soft_nrf52__obfuscated.elf)
                0x00020010                sym_R2Q64UD5O5J53RBWI2OLHG4JW7V6OK3VCAXU6OI
 .text          0x00020060       0xfc C:/ncs.sojkk/nrfxlib/ble_controller/lib/cortex-m4/soft-float/libble_controller_s140.a(libble_controller_debug_s140_soft_nrf52__obfuscated.elf)
                0x00020060                sym_DALJM23ZNJBWF6NQZTI3M5TPKX6RJ5WEMHC2DRQ
 .text          0x0002015c       0x10 C:/ncs.sojkk/nrfxlib/ble_controller/lib/cortex-m4/soft-float/libble_controller_s140.a(libble_controller_debug_s140_soft_nrf52__obfuscated.elf)
                0x0002015c                sym_S2UAPMFVIQXDUOA6CV7GJMB33TYHEUH5D6LHO5Q
 .text          0x0002016c       0x6c C:/ncs.sojkk/nrfxlib/ble_controller/lib/cortex-m4/soft-float/libble_controller_s140.a(libble_controller_debug_s140_soft_nrf52__obfuscated.elf)
                0x0002016c                sym_SL6HQQNSD25LCETZB5JG77LLCG33QU4LHCYIEVI
 .text          0x000201d8       0x24 C:/ncs.sojkk/nrfxlib/ble_controller/lib/cortex-m4/soft-float/libble_controller_s140.a(libble_controller_debug_s140_soft_nrf52__obfuscated.elf)
                0x000201d8                sym_XR32KBBIVYD5OVRJM2RBQ57EGCCM2C3F5IY6OHQ
 .text          0x000201fc       0x30 C:/ncs.sojkk/nrfxlib/ble_controller/lib/cortex-m4/soft-float/libble_controller_s140.a(libble_controller_debug_s140_soft_nrf52__obfuscated.elf)
                0x000201fc                sym_FKI4BQAHSSK27T55WSJ7FQYJRKCXQNQKLNS34EI
 .text          0x0002022c       0x7c C:/ncs.sojkk/nrfxlib/ble_controller/lib/cortex-m4/soft-float/libble_controller_s140.a(libble_controller_debug_s140_soft_nrf52__obfuscated.elf)
                0x0002022c                sym_7NBUNORBMVC5XTLJCSTM66BEHSF6UILNO2YQSXI
 .text          0x000202a8       0x40 C:/ncs.sojkk/nrfxlib/ble_controller/lib/cortex-m4/soft-float/libble_controller_s140.a(libble_controller_debug_s140_soft_nrf52__obfuscated.elf)
                0x000202a8                sym_DQONLUECJTIEYFOFJXXAPJO4POIAJKJNKBGVN5A
 .text          0x000202e8       0x54 C:/ncs.sojkk/nrfxlib/ble_controller/lib/cortex-m4/soft-float/libble_controller_s140.a(libble_controller_debug_s140_soft_nrf52__obfuscated.elf)
                0x000202e8                sym_W7ROFHNOSDKPIRUKDGIZZ5YR3MC3DAM2YLJOUIA
 .text          0x0002033c       0x54 C:/ncs.sojkk/nrfxlib/ble_controller/lib/cortex-m4/soft-float/libble_controller_s140.a(libble_controller_debug_s140_soft_nrf52__obfuscated.elf)
                0x0002033c                sym_GURZ3AH6X65RGSKYMYNWZVP6HM56LA5MRAQWT6Q
 .text          0x00020390       0x10 C:/ncs.sojkk/nrfxlib/ble_controller/lib/cortex-m4/soft-float/libble_controller_s140.a(libble_controller_debug_s140_soft_nrf52__obfuscated.elf)
                0x00020390                sym_BJJ4JJDCVJTQH3OQZK6RMMOLISQZEJEZ3BJOKJY
 .text          0x000203a0       0x48 C:/ncs.sojkk/nrfxlib/ble_controller/lib/cortex-m4/soft-float/libble_controller_s140.a(libble_controller_debug_s140_soft_nrf52__obfuscated.elf)
                0x000203a0                sym_VWGRUQT3LYZHLYS5KJ7UOCJEHLDJTWH4RVJBGKQ
 .text          0x000203e8       0x24 C:/ncs.sojkk/nrfxlib/ble_controller/lib/cortex-m4/soft-float/libble_controller_s140.a(libble_controller_debug_s140_soft_nrf52__obfuscated.elf)
                0x000203e8                sym_4WL3TG4Q7RCTFEMPQ2CQTOL4PAKUULDPJUM5DTY
 .text          0x0002040c       0xb8 C:/ncs.sojkk/nrfxlib/ble_controller/lib/cortex-m4/soft-float/libble_controller_s140.a(libble_controller_debug_s140_soft_nrf52__obfuscated.elf)
                0x0002040c                sym_JR5P6ENMFALSDG2UPF2KFEJ7I7CZGHHWB55PQHI
 .text          0x000204c4       0x14 C:/ncs.sojkk/nrfxlib/ble_controller/lib/cortex-m4/soft-float/libble_controller_s140.a(libble_controller_debug_s140_soft_nrf52__obfuscated.elf)
                0x000204c4                sym_24DWUIEE2POS3GYSEVA4IAL4G7TGCCCJXT6D5AA
 .text          0x000204d8       0x2c C:/ncs.sojkk/nrfxlib/ble_controller/lib/cortex-m4/soft-float/libble_controller_s140.a(libble_controller_debug_s140_soft_nrf52__obfuscated.elf)
                0x000204d8                sym_52JRUEEAQQAKTXHOGPT2QIQEIPNJK6VPWEZWGSY
 .text          0x00020504       0x20 C:/ncs.sojkk/nrfxlib/ble_controller/lib/cortex-m4/soft-float/libble_controller_s140.a(libble_controller_debug_s140_soft_nrf52__obfuscated.elf)
                0x00020504                sym_KOEOIIZVNGNOUG5HQABVCPPWWS5MLYLDB7EVKOA
 .text          0x00020524       0x28 C:/ncs.sojkk/nrfxlib/ble_controller/lib/cortex-m4/soft-float/libble_controller_s140.a(libble_controller_debug_s140_soft_nrf52__obfuscated.elf)
                0x00020524                sym_MZI6QCC7NWKAENNQCURYOZ6DPRAP3JHXVJTHRCI
 .text          0x0002054c       0x84 C:/ncs.sojkk/nrfxlib/ble_controller/lib/cortex-m4/soft-float/libble_controller_s140.a(libble_controller_debug_s140_soft_nrf52__obfuscated.elf)
                0x0002054c                sym_GNQQQFEWM5SWEGVB5JHP7HYAZGI4CDQXSGHR4SQ
 .text          0x000205d0       0x14 C:/ncs.sojkk/nrfxlib/ble_controller/lib/cortex-m4/soft-float/libble_controller_s140.a(libble_controller_debug_s140_soft_nrf52__obfuscated.elf)
                0x000205d0                sym_65YCAVBDKPZHZGRZXNQZCLS62UDJXZDBEFWVSII
 .text          0x000205e4       0x34 C:/ncs.sojkk/nrfxlib/ble_controller/lib/cortex-m4/soft-float/libble_controller_s140.a(libble_controller_debug_s140_soft_nrf52__obfuscated.elf)
                0x000205e4                sym_H2AKPOL4Q6GKGQJVBUBWLPO3RBNKXXQE2HSOELQ
 .text          0x00020618       0x40 C:/ncs.sojkk/nrfxlib/ble_controller/lib/cortex-m4/soft-float/libble_controller_s140.a(libble_controller_debug_s140_soft_nrf52__obfuscated.elf)
                0x00020618                sym_CAKDVRZXSEHOW43KKHIQZGJNYEKA6HKNJDAQRZY
 .text          0x00020658       0xb8 C:/ncs.sojkk/nrfxlib/ble_controller/lib/cortex-m4/soft-float/libble_controller_s140.a(libble_controller_debug_s140_soft_nrf52__obfuscated.elf)
 .text          0x00020710       0x5c C:/ncs.sojkk/nrfxlib/ble_controller/lib/cortex-m4/soft-float/libble_controller_s140.a(libble_controller_debug_s140_soft_nrf52__obfuscated.elf)
 .text          0x0002076c       0x34 C:/ncs.sojkk/nrfxlib/ble_controller/lib/cortex-m4/soft-float/libble_controller_s140.a(libble_controller_debug_s140_soft_nrf52__obfuscated.elf)
 .text          0x000207a0       0x80 C:/ncs.sojkk/nrfxlib/ble_controller/lib/cortex-m4/soft-float/libble_controller_s140.a(libble_controller_debug_s140_soft_nrf52__obfuscated.elf)
 .text          0x00020820      0x104 C:/ncs.sojkk/nrfxlib/ble_controller/lib/cortex-m4/soft-float/libble_controller_s140.a(libble_controller_debug_s140_soft_nrf52__obfuscated.elf)
 .text          0x00020924       0x54 C:/ncs.sojkk/nrfxlib/ble_controller/lib/cortex-m4/soft-float/libble_controller_s140.a(libble_controller_debug_s140_soft_nrf52__obfuscated.elf)
 .text          0x00020978       0xb8 C:/ncs.sojkk/nrfxlib/ble_controller/lib/cortex-m4/soft-float/libble_controller_s140.a(libble_controller_debug_s140_soft_nrf52__obfuscated.elf)
 .text          0x00020a30       0xd4 C:/ncs.sojkk/nrfxlib/ble_controller/lib/cortex-m4/soft-float/libble_controller_s140.a(libble_controller_debug_s140_soft_nrf52__obfuscated.elf)
 .text          0x00020b04       0x2c C:/ncs.sojkk/nrfxlib/ble_controller/lib/cortex-m4/soft-float/libble_controller_s140.a(libble_controller_debug_s140_soft_nrf52__obfuscated.elf)
 .text          0x00020b30       0x20 C:/ncs.sojkk/nrfxlib/ble_controller/lib/cortex-m4/soft-float/libble_controller_s140.a(libble_controller_debug_s140_soft_nrf52__obfuscated.elf)
 .text          0x00020b50       0x4c C:/ncs.sojkk/nrfxlib/ble_controller/lib/cortex-m4/soft-float/libble_controller_s140.a(libble_controller_debug_s140_soft_nrf52__obfuscated.elf)
 .text          0x00020b9c       0x14 C:/ncs.sojkk/nrfxlib/ble_controller/lib/cortex-m4/soft-float/libble_controller_s140.a(libble_controller_debug_s140_soft_nrf52__obfuscated.elf)
 .text          0x00020bb0       0x7c C:/ncs.sojkk/nrfxlib/ble_controller/lib/cortex-m4/soft-float/libble_controller_s140.a(libble_controller_debug_s140_soft_nrf52__obfuscated.elf)
                0x00020bb0                sym_KPRUCUQ5IN2NQRZ2IGT6VT63FTOB3NEC234XERI
 .text          0x00020c2c       0xa0 C:/ncs.sojkk/nrfxlib/ble_controller/lib/cortex-m4/soft-float/libble_controller_s140.a(libble_controller_debug_s140_soft_nrf52__obfuscated.elf)
                0x00020c2c                sym_3H3KWQCN5JUBIZFOIS4A7VY2UCHKIWQB3XF3S6Q
 .text          0x00020ccc       0x70 C:/ncs.sojkk/nrfxlib/ble_controller/lib/cortex-m4/soft-float/libble_controller_s140.a(libble_controller_debug_s140_soft_nrf52__obfuscated.elf)
 .text          0x00020d3c       0x14 C:/ncs.sojkk/nrfxlib/ble_controller/lib/cortex-m4/soft-float/libble_controller_s140.a(libble_controller_debug_s140_soft_nrf52__obfuscated.elf)
 .text          0x00020d50       0x24 C:/ncs.sojkk/nrfxlib/ble_controller/lib/cortex-m4/soft-float/libble_controller_s140.a(libble_controller_debug_s140_soft_nrf52__obfuscated.elf)
 .text          0x00020d74       0x50 C:/ncs.sojkk/nrfxlib/ble_controller/lib/cortex-m4/soft-float/libble_controller_s140.a(libble_controller_debug_s140_soft_nrf52__obfuscated.elf)
 .text          0x00020dc4      0x108 C:/ncs.sojkk/nrfxlib/ble_controller/lib/cortex-m4/soft-float/libble_controller_s140.a(libble_controller_debug_s140_soft_nrf52__obfuscated.elf)
 .text          0x00020ecc      0x328 C:/ncs.sojkk/nrfxlib/ble_controller/lib/cortex-m4/soft-float/libble_controller_s140.a(libble_controller_debug_s140_soft_nrf52__obfuscated.elf)
 .text          0x000211f4       0x18 C:/ncs.sojkk/nrfxlib/ble_controller/lib/cortex-m4/soft-float/libble_controller_s140.a(libble_controller_debug_s140_soft_nrf52__obfuscated.elf)
 .text          0x0002120c       0x1c C:/ncs.sojkk/nrfxlib/ble_controller/lib/cortex-m4/soft-float/libble_controller_s140.a(libble_controller_debug_s140_soft_nrf52__obfuscated.elf)
                0x0002120c                sym_X2UFYRPAYP5UBHQHP6U3ZWY2WXFBCVHLL7MPIDI
 .text          0x00021228       0x4e C:/ncs.sojkk/nrfxlib/ble_controller/lib/cortex-m4/soft-float/libble_controller_s140.a(libble_controller_debug_s140_soft_nrf52__obfuscated.elf)
                0x00021228                sym_QV6CME4HLWJA6KQZ7HE7ECNT7UGKOYHKNHH6E7I
 .text          0x00021276       0x2c C:/ncs.sojkk/nrfxlib/ble_controller/lib/cortex-m4/soft-float/libble_controller_s140.a(libble_controller_debug_s140_soft_nrf52__obfuscated.elf)
                0x00021276                sym_QLJBNB55XHXGY3EZ4W3ZZ3U6AVPE2YGDOXRUZSQ
 .text          0x000212a2        0x2 C:/ncs.sojkk/nrfxlib/ble_controller/lib/cortex-m4/soft-float/libble_controller_s140.a(libble_controller_debug_s140_soft_nrf52__obfuscated.elf)
                0x000212a2                sym_GOBFCYOOXGGHCGCZKQ3FVSI5A765LRERAGT3CSY
 .text          0x000212a4        0x4 C:/ncs.sojkk/nrfxlib/ble_controller/lib/cortex-m4/soft-float/libble_controller_s140.a(libble_controller_debug_s140_soft_nrf52__obfuscated.elf)
 .text          0x000212a8        0x2 C:/ncs.sojkk/nrfxlib/ble_controller/lib/cortex-m4/soft-float/libble_controller_s140.a(libble_controller_debug_s140_soft_nrf52__obfuscated.elf)
                0x000212a8                sym_4FV2543YG4UKO34QEGECVV52LYGN75VH7RWFW2A
 .text          0x000212aa        0x6 C:/ncs.sojkk/nrfxlib/ble_controller/lib/cortex-m4/soft-float/libble_controller_s140.a(libble_controller_debug_s140_soft_nrf52__obfuscated.elf)
                0x000212aa                sym_AQI4OLZLNAFMKTQHPKXO3EVYHTLAOB676ZYU7WY
 .text          0x000212b0        0x6 C:/ncs.sojkk/nrfxlib/ble_controller/lib/cortex-m4/soft-float/libble_controller_s140.a(libble_controller_debug_s140_soft_nrf52__obfuscated.elf)
                0x000212b0                sym_FWVCZ36EDPLWMQYL2F3OL5Y6PEZF7Q4XWFSVQCI
 .text          0x000212b6        0x6 C:/ncs.sojkk/nrfxlib/ble_controller/lib/cortex-m4/soft-float/libble_controller_s140.a(libble_controller_debug_s140_soft_nrf52__obfuscated.elf)
                0x000212b6                sym_YA3JU2HLL6RXBV4VGBGYCD5P3KA4QNUIGZWQEWQ
 .text          0x000212bc        0x4 C:/ncs.sojkk/nrfxlib/ble_controller/lib/cortex-m4/soft-float/libble_controller_s140.a(libble_controller_debug_s140_soft_nrf52__obfuscated.elf)
                0x000212bc                sym_HAHEAVDZUSPPA6H5H73M6WNIYXBR6WNMIDQIM7Q
 .text          0x000212c0        0xe C:/ncs.sojkk/nrfxlib/ble_controller/lib/cortex-m4/soft-float/libble_controller_s140.a(libble_controller_debug_s140_soft_nrf52__obfuscated.elf)
                0x000212c0                sym_KN3Y3AMHXOHKS2EMALWM5VNLRDL2MPKHIP6XPDA
 .text          0x000212ce       0x1a C:/ncs.sojkk/nrfxlib/ble_controller/lib/cortex-m4/soft-float/libble_controller_s140.a(libble_controller_debug_s140_soft_nrf52__obfuscated.elf)
                0x000212ce                sym_2VDVUOTV276POQPJRTHRUH2MRDLS4UTGJOVIRQY
 .text          0x000212e8        0x4 C:/ncs.sojkk/nrfxlib/ble_controller/lib/cortex-m4/soft-float/libble_controller_s140.a(libble_controller_debug_s140_soft_nrf52__obfuscated.elf)
                0x000212e8                sym_47RSYJJX7OBRN3X5OUKP3HAOLLQ3BHSWL2YA5VQ
 .text          0x000212ec        0x8 C:/ncs.sojkk/nrfxlib/ble_controller/lib/cortex-m4/soft-float/libble_controller_s140.a(libble_controller_debug_s140_soft_nrf52__obfuscated.elf)
                0x000212ec                sym_IFJHPQV3B4EIN6OIUP3LZSPJBF5HLX2VYD323GA
 .text          0x000212f4       0x64 C:/ncs.sojkk/nrfxlib/ble_controller/lib/cortex-m4/soft-float/libble_controller_s140.a(libble_controller_debug_s140_soft_nrf52__obfuscated.elf)
                0x000212f4                sym_BGHL7UMT4T4VTT6D6LF7ODTJ6MFRIDYN4LMO2RA
 .text          0x00021358       0x14 C:/ncs.sojkk/nrfxlib/ble_controller/lib/cortex-m4/soft-float/libble_controller_s140.a(libble_controller_debug_s140_soft_nrf52__obfuscated.elf)
 .text          0x0002136c       0x1e C:/ncs.sojkk/nrfxlib/ble_controller/lib/cortex-m4/soft-float/libble_controller_s140.a(libble_controller_debug_s140_soft_nrf52__obfuscated.elf)
 .text          0x0002138a        0xe C:/ncs.sojkk/nrfxlib/ble_controller/lib/cortex-m4/soft-float/libble_controller_s140.a(libble_controller_debug_s140_soft_nrf52__obfuscated.elf)
 .text          0x00021398       0x2c C:/ncs.sojkk/nrfxlib/ble_controller/lib/cortex-m4/soft-float/libble_controller_s140.a(libble_controller_debug_s140_soft_nrf52__obfuscated.elf)
 .text          0x000213c4       0x1a C:/ncs.sojkk/nrfxlib/ble_controller/lib/cortex-m4/soft-float/libble_controller_s140.a(libble_controller_debug_s140_soft_nrf52__obfuscated.elf)
 .text          0x000213de       0x26 C:/ncs.sojkk/nrfxlib/ble_controller/lib/cortex-m4/soft-float/libble_controller_s140.a(libble_controller_debug_s140_soft_nrf52__obfuscated.elf)
                0x000213de                sym_AR22FPVUFSZMVYMQBBXG7EEZNA2HPS2RLAKRPBA
 .text          0x00021404        0x8 C:/ncs.sojkk/nrfxlib/ble_controller/lib/cortex-m4/soft-float/libble_controller_s140.a(libble_controller_debug_s140_soft_nrf52__obfuscated.elf)
                0x00021404                sym_YS3AHD7GWBHZEQHPIQANPGALEXB4QGY5O2DQKRY
 .text          0x0002140c       0x12 C:/ncs.sojkk/nrfxlib/ble_controller/lib/cortex-m4/soft-float/libble_controller_s140.a(libble_controller_debug_s140_soft_nrf52__obfuscated.elf)
                0x0002140c                sym_OWJYSTADR5I36MIHWNPICVB7CMCWNSFIZPFXQ2Q
 .text          0x0002141e       0x20 C:/ncs.sojkk/nrfxlib/ble_controller/lib/cortex-m4/soft-float/libble_controller_s140.a(libble_controller_debug_s140_soft_nrf52__obfuscated.elf)
                0x0002141e                sym_K65IFLJONCLHPD5IQ4ENBWGA3PVI55UHZKOIVDQ
 .text          0x0002143e       0x38 C:/ncs.sojkk/nrfxlib/ble_controller/lib/cortex-m4/soft-float/libble_controller_s140.a(libble_controller_debug_s140_soft_nrf52__obfuscated.elf)
                0x0002143e                sym_VSILKYHVQ5DVF6LG5MG267DQVA3A2XZQ6FSCLXA
 .text          0x00021476        0x4 C:/ncs.sojkk/nrfxlib/ble_controller/lib/cortex-m4/soft-float/libble_controller_s140.a(libble_controller_debug_s140_soft_nrf52__obfuscated.elf)
                0x00021476                sym_Q7G7FUAQXPMMZN5QV44PUNDUTFOFQIGQLZY2QTY
 .text          0x0002147a       0x14 C:/ncs.sojkk/nrfxlib/ble_controller/lib/cortex-m4/soft-float/libble_controller_s140.a(libble_controller_debug_s140_soft_nrf52__obfuscated.elf)
                0x0002147a                sym_BN6ZO2NBHRGKZ2NRQYWFBXVGKNG6Y5K55UNAWGA
 .text          0x0002148e       0x14 C:/ncs.sojkk/nrfxlib/ble_controller/lib/cortex-m4/soft-float/libble_controller_s140.a(libble_controller_debug_s140_soft_nrf52__obfuscated.elf)
                0x0002148e                sym_5EMXP3L6SPQSCAJKKRH62ZOKJCCSKLI3WEX2WHY
 .text          0x000214a2       0x14 C:/ncs.sojkk/nrfxlib/ble_controller/lib/cortex-m4/soft-float/libble_controller_s140.a(libble_controller_debug_s140_soft_nrf52__obfuscated.elf)
                0x000214a2                sym_H2QJCU2ORTYAFBAQQ2FHUYIAZO4HCXEKCQ4SS2Q
 .text          0x000214b6       0x14 C:/ncs.sojkk/nrfxlib/ble_controller/lib/cortex-m4/soft-float/libble_controller_s140.a(libble_controller_debug_s140_soft_nrf52__obfuscated.elf)
                0x000214b6                sym_SWIBDSDMHUYNCG5ZWLB52J7NETJIUBPCO5IIQFA
 .text          0x000214ca       0x18 C:/ncs.sojkk/nrfxlib/ble_controller/lib/cortex-m4/soft-float/libble_controller_s140.a(libble_controller_debug_s140_soft_nrf52__obfuscated.elf)
                0x000214ca                sym_QPP3IZFSWHUV4JQ6ODMIVIARPB4PQYUFESV7BRQ
 .text          0x000214e2       0x20 C:/ncs.sojkk/nrfxlib/ble_controller/lib/cortex-m4/soft-float/libble_controller_s140.a(libble_controller_debug_s140_soft_nrf52__obfuscated.elf)
                0x000214e2                sym_6AONFMPWPBAZBMQ4KY5PX7QPX2FM4UPZQRFPZSQ
 .text          0x00021502       0x20 C:/ncs.sojkk/nrfxlib/ble_controller/lib/cortex-m4/soft-float/libble_controller_s140.a(libble_controller_debug_s140_soft_nrf52__obfuscated.elf)
                0x00021502                sym_YNH6KDZL2GMJ2KPUX5DEER63BRE7IOGBY3KCQAQ
 .text          0x00021522       0x14 C:/ncs.sojkk/nrfxlib/ble_controller/lib/cortex-m4/soft-float/libble_controller_s140.a(libble_controller_debug_s140_soft_nrf52__obfuscated.elf)
                0x00021522                sym_6PVOPWDLWTXOTRZZ7LP36TLYTLPTQHNAUQNFHEA
 .text          0x00021536       0x14 C:/ncs.sojkk/nrfxlib/ble_controller/lib/cortex-m4/soft-float/libble_controller_s140.a(libble_controller_debug_s140_soft_nrf52__obfuscated.elf)
                0x00021536                sym_USR4MDT6VMTQLOGKNN4MALBZ3GJPD2KOEY4HFAQ
 .text          0x0002154a       0x1a C:/ncs.sojkk/nrfxlib/ble_controller/lib/cortex-m4/soft-float/libble_controller_s140.a(libble_controller_debug_s140_soft_nrf52__obfuscated.elf)
                0x0002154a                sym_MKDLOLEGTRSBFPZPH6SKKULNSFEVDXFG244VRBQ
 .text          0x00021564       0x20 C:/ncs.sojkk/nrfxlib/ble_controller/lib/cortex-m4/soft-float/libble_controller_s140.a(libble_controller_debug_s140_soft_nrf52__obfuscated.elf)
                0x00021564                sym_PUXG2JS5Q2KNFHS64YSJVBL53HJXBKRSJJ3IPIQ
 .text          0x00021584       0x2c C:/ncs.sojkk/nrfxlib/ble_controller/lib/cortex-m4/soft-float/libble_controller_s140.a(libble_controller_debug_s140_soft_nrf52__obfuscated.elf)
 .text          0x000215b0       0x2a C:/ncs.sojkk/nrfxlib/ble_controller/lib/cortex-m4/soft-float/libble_controller_s140.a(libble_controller_debug_s140_soft_nrf52__obfuscated.elf)
 .text          0x000215da       0x16 C:/ncs.sojkk/nrfxlib/ble_controller/lib/cortex-m4/soft-float/libble_controller_s140.a(libble_controller_debug_s140_soft_nrf52__obfuscated.elf)
 .text          0x000215f0        0xa C:/ncs.sojkk/nrfxlib/ble_controller/lib/cortex-m4/soft-float/libble_controller_s140.a(libble_controller_debug_s140_soft_nrf52__obfuscated.elf)
                0x000215f0                sym_VCM3BICZ5QLCEBBK5263KDY2XJT4MJLUF43FCFA
 .text          0x000215fa        0x8 C:/ncs.sojkk/nrfxlib/ble_controller/lib/cortex-m4/soft-float/libble_controller_s140.a(libble_controller_debug_s140_soft_nrf52__obfuscated.elf)
                0x000215fa                sym_IBALR6WOCZYA342JRYG44MFHRUIKXGWY4MGXZLY
 .text          0x00021602        0x8 C:/ncs.sojkk/nrfxlib/ble_controller/lib/cortex-m4/soft-float/libble_controller_s140.a(libble_controller_debug_s140_soft_nrf52__obfuscated.elf)
                0x00021602                sym_EYCTNYR4EGC7WLNGYDH3RDAKCGFJGNKW3YTY5LI
 .text          0x0002160a        0xa C:/ncs.sojkk/nrfxlib/ble_controller/lib/cortex-m4/soft-float/libble_controller_s140.a(libble_controller_debug_s140_soft_nrf52__obfuscated.elf)
                0x0002160a                sym_ZROH4J5XWALTKUYLKU5J7MDSN6HAQTFWV4KZHPQ
 .text          0x00021614        0x8 C:/ncs.sojkk/nrfxlib/ble_controller/lib/cortex-m4/soft-float/libble_controller_s140.a(libble_controller_debug_s140_soft_nrf52__obfuscated.elf)
                0x00021614                sym_UMPQPXDC32NRC4UACOYUWIDXLL27MGBNAZBPKPQ
 .text          0x0002161c       0x12 C:/ncs.sojkk/nrfxlib/ble_controller/lib/cortex-m4/soft-float/libble_controller_s140.a(libble_controller_debug_s140_soft_nrf52__obfuscated.elf)
                0x0002161c                sym_LZ2C54IT4LHTBXT53TEJK4VNCXFB5NWZJY2LS7Y
 .text          0x0002162e        0xa C:/ncs.sojkk/nrfxlib/ble_controller/lib/cortex-m4/soft-float/libble_controller_s140.a(libble_controller_debug_s140_soft_nrf52__obfuscated.elf)
                0x0002162e                sym_2Z3IN7QBG6TEFYJOMVUSGFKQOMDCT2PLAFUZ6XY
 *(SORT_BY_ALIGNMENT(.text.*))
 .text.main     0x00021638       0x48 app/libapp.a(main.c.obj)
                0x00021638                main
 .text.profile_battery_state_event
                0x00021680        0x4 app/libapp.a(battery_event.c.obj)
 .text.log_battery_state_event
                0x00021684       0x34 app/libapp.a(battery_event.c.obj)
 .text.log_battery_level_event
                0x000216b8       0x28 app/libapp.a(battery_event.c.obj)
 .text.profile_battery_level_event
                0x000216e0        0x4 app/libapp.a(battery_event.c.obj)
 .text.profile_ble_peer_event
                0x000216e4        0x4 app/libapp.a(ble_event.c.obj)
 .text.log_ble_peer_event
                0x000216e8       0x3c app/libapp.a(ble_event.c.obj)
 .text.log_ble_peer_search_event
                0x00021724       0x3c app/libapp.a(ble_event.c.obj)
 .text.log_ble_peer_operation_event
                0x00021760       0x40 app/libapp.a(ble_event.c.obj)
 .text.profile_ble_peer_search_event
                0x000217a0        0x4 app/libapp.a(ble_event.c.obj)
 .text.profile_ble_peer_operation_event
                0x000217a4        0x4 app/libapp.a(ble_event.c.obj)
 .text.profile_button_event
                0x000217a8        0x4 app/libapp.a(button_event.c.obj)
 .text.log_button_event
                0x000217ac       0x44 app/libapp.a(button_event.c.obj)
 .text.profile_click_event
                0x000217f0        0x4 app/libapp.a(click_event.c.obj)
 .text.log_click_event
                0x000217f4       0x3c app/libapp.a(click_event.c.obj)
 .text.profile_selector_event
                0x00021830        0x4 app/libapp.a(selector_event.c.obj)
 .text.log_selector_event
                0x00021834       0x34 app/libapp.a(selector_event.c.obj)
 .text.profile_hid_mouse_event
                0x00021868        0x4 app/libapp.a(hid_event.c.obj)
 .text.log_hid_keyboard_event
                0x0002186c       0x68 app/libapp.a(hid_event.c.obj)
 .text.log_hid_mouse_event
                0x000218d4       0x44 app/libapp.a(hid_event.c.obj)
 .text.log_hid_consumer_ctrl_event
                0x00021918       0x34 app/libapp.a(hid_event.c.obj)
 .text.log_hid_report_subscriber_event
                0x0002194c       0x44 app/libapp.a(hid_event.c.obj)
 .text.log_hid_report_sent_event
                0x00021990       0x4c app/libapp.a(hid_event.c.obj)
 .text.log_hid_report_subscription_event
                0x000219dc       0x50 app/libapp.a(hid_event.c.obj)
 .text.profile_hid_report_sent_event
                0x00021a2c        0x4 app/libapp.a(hid_event.c.obj)
 .text.profile_hid_report_subscription_event
                0x00021a30        0x4 app/libapp.a(hid_event.c.obj)
 .text.profile_hid_consumer_ctrl_event
                0x00021a34        0x4 app/libapp.a(hid_event.c.obj)
 .text.profile_hid_report_subscriber_event
                0x00021a38        0x4 app/libapp.a(hid_event.c.obj)
 .text.log_led_event
                0x00021a3c       0x30 app/libapp.a(led_event.c.obj)
 .text.log_led_ready_event
                0x00021a6c       0x30 app/libapp.a(led_event.c.obj)
 .text.profile_config_event
                0x00021a9c        0x4 app/libapp.a(config_event.c.obj)
 .text.log_config_event
                0x00021aa0       0x28 app/libapp.a(config_event.c.obj)
 .text.log_config_fetch_event
                0x00021ac8       0x28 app/libapp.a(config_event.c.obj)
 .text.log_config_fetch_request_event
                0x00021af0       0x28 app/libapp.a(config_event.c.obj)
 .text.profile_config_fetch_event
                0x00021b18        0x4 app/libapp.a(config_event.c.obj)
 .text.profile_config_fetch_request_event
                0x00021b1c        0x4 app/libapp.a(config_event.c.obj)
 .text.log_module_state_event
                0x00021b20       0x3c app/libapp.a(module_state_event.c.obj)
 .text.profile_motion_event
                0x00021b5c        0x4 app/libapp.a(motion_event.c.obj)
 .text.log_motion_event
                0x00021b60       0x38 app/libapp.a(motion_event.c.obj)
 .text.log_wheel_event
                0x00021b98       0x2c app/libapp.a(wheel_event.c.obj)
 .text.log_usb_state_event
                0x00021bc4       0x3c app/libapp.a(usb_event.c.obj)
 .text.log_hid_notification_event
                0x00021c00       0x34 app/libapp.a(hids_event.c.obj)
 .text.ports_setup.constprop.6
                0x00021c34       0x74 app/libapp.a(board.c.obj)
 .text.turn_board_on
                0x00021ca8       0x6c app/libapp.a(board.c.obj)
 .text.event_handler
                0x00021d14       0xc4 app/libapp.a(board.c.obj)
 .text.data_ready_handler
                0x00021dd8       0x98 app/libapp.a(motion_sensor.c.obj)
 .text.motion_thread_fn
                0x00021e70      0x3a4 app/libapp.a(motion_sensor.c.obj)
 .text.event_handler
                0x00022214      0x3c4 app/libapp.a(motion_sensor.c.obj)
 .text.callback_ctrl
                0x000225d8       0x7c app/libapp.a(buttons.c.obj)
 .text.suspend  0x00022654       0x30 app/libapp.a(buttons.c.obj)
 .text.button_pressed_isr
                0x00022684       0x94 app/libapp.a(buttons.c.obj)
 .text.button_pressed_fn
                0x00022718       0x98 app/libapp.a(buttons.c.obj)
 .text.scan_fn  0x000227b0      0x1d4 app/libapp.a(buttons.c.obj)
 .text.event_handler
                0x00022984      0x260 app/libapp.a(buttons.c.obj)
 .text.click_check_fn
                0x00022be4       0xc0 app/libapp.a(click_detector.c.obj)
 .text.event_handler
                0x00022ca4      0x1d4 app/libapp.a(click_detector.c.obj)
 .text.enable_interrupts_lock.isra.5
                0x00022e78       0x78 app/libapp.a(selector_hw.c.obj)
 .text.disable_interrupts_nolock.isra.6
                0x00022ef0       0x54 app/libapp.a(selector_hw.c.obj)
 .text.selector_isr
                0x00022f44       0x44 app/libapp.a(selector_hw.c.obj)
 .text.read_state
                0x00022f88       0xa8 app/libapp.a(selector_hw.c.obj)
 .text.configure_pins.isra.7.constprop.11
                0x00023030       0x58 app/libapp.a(selector_hw.c.obj)
 .text.wake_up  0x00023088       0x2c app/libapp.a(selector_hw.c.obj)
 .text.selector_work_fn
                0x000230b4       0x5c app/libapp.a(selector_hw.c.obj)
 .text.event_handler
                0x00023110      0x1ec app/libapp.a(selector_hw.c.obj)
 .text.wakeup_int_ctrl_nolock
                0x000232fc       0x40 app/libapp.a(wheel.c.obj)
 .text.data_ready_handler
                0x0002333c       0x78 app/libapp.a(wheel.c.obj)
 .text.enable_qdec.constprop.8
                0x000233b4       0x4c app/libapp.a(wheel.c.obj)
 .text.wakeup_cb
                0x00023400       0xb0 app/libapp.a(wheel.c.obj)
 .text.event_handler
                0x000234b0      0x2d0 app/libapp.a(wheel.c.obj)
 .text.led_update
                0x00023780       0x30 app/libapp.a(leds.c.obj)
 .text.pwm_out  0x000237b0       0xbc app/libapp.a(leds.c.obj)
 .text.work_handler
                0x0002386c       0xf4 app/libapp.a(leds.c.obj)
 .text.event_handler
                0x00023960      0x230 app/libapp.a(leds.c.obj)
 .text.error_check_handler
                0x00023b90       0xa0 app/libapp.a(battery_charger.c.obj)
 .text.start_battery_state_check
                0x00023c30       0x54 app/libapp.a(battery_charger.c.obj)
 .text.cs_change
                0x00023c84       0x54 app/libapp.a(battery_charger.c.obj)
 .text.event_handler
                0x00023cd8      0x238 app/libapp.a(battery_charger.c.obj)
 .text.battery_monitor_start
                0x00023f10       0x3c app/libapp.a(battery_meas.c.obj)
 .text.battery_monitor_stop
                0x00023f4c       0x88 app/libapp.a(battery_meas.c.obj)
 .text.battery_lvl_read_fn
                0x00023fd4      0x11c app/libapp.a(battery_meas.c.obj)
 .text.event_handler
                0x000240f0      0x1e0 app/libapp.a(battery_meas.c.obj)
 .text.le_param_req
                0x000242d0        0x4 app/libapp.a(ble_state.c.obj)
 .text.le_param_updated
                0x000242d4        0x4 app/libapp.a(ble_state.c.obj)
 .text.bt_ready
                0x000242d8       0x68 app/libapp.a(ble_state.c.obj)
 .text.bond_find
                0x00024340       0x24 app/libapp.a(ble_state.c.obj)
 .text.event_handler
                0x00024364       0x58 app/libapp.a(ble_state.c.obj)
 .text.disconnect_peer
                0x000243bc       0x50 app/libapp.a(ble_state.c.obj)
 .text.security_changed
                0x0002440c       0xd8 app/libapp.a(ble_state.c.obj)
 .text.disconnected
                0x000244e4       0xc8 app/libapp.a(ble_state.c.obj)
 .text.connected
                0x000245ac      0x1d0 app/libapp.a(ble_state.c.obj)
 .text.store_peer_id
                0x0002477c       0x28 app/libapp.a(ble_bond.c.obj)
 .text.store_bt_stack_id_lut
                0x000247a4       0x24 app/libapp.a(ble_bond.c.obj)
 .text.settings_set
                0x000247c8       0x90 app/libapp.a(ble_bond.c.obj)
 .text.erase_start
                0x00024858       0x5c app/libapp.a(ble_bond.c.obj)
 .text.select_dongle_peer
                0x000248b4       0x58 app/libapp.a(ble_bond.c.obj)
 .text.cancel_operation
                0x0002490c       0x64 app/libapp.a(ble_bond.c.obj)
 .text.timeout_handler
                0x00024970        0x4 app/libapp.a(ble_bond.c.obj)
 .text.handle_click
                0x00024974       0x80 app/libapp.a(ble_bond.c.obj)
 .text.select_ble_peers
                0x000249f4       0x5c app/libapp.a(ble_bond.c.obj)
 .text.select_start
                0x00024a50       0x70 app/libapp.a(ble_bond.c.obj)
 .text.select_next
                0x00024ac0       0x6c app/libapp.a(ble_bond.c.obj)
 .text.erase_adv_confirm.part.9
                0x00024b2c       0x40 app/libapp.a(ble_bond.c.obj)
 .text.select_confirm
                0x00024b6c       0x7c app/libapp.a(ble_bond.c.obj)
 .text.erase_adv_confirm
                0x00024be8       0x94 app/libapp.a(ble_bond.c.obj)
 .text.event_handler
                0x00024c7c      0x3f0 app/libapp.a(ble_bond.c.obj)
 .text.security_timeout_fn
                0x0002506c       0x10 app/libapp.a(ble_latency.c.obj)
 .text.set_ble_latency
                0x0002507c       0x78 app/libapp.a(ble_latency.c.obj)
 .text.low_latency_check_fn
                0x000250f4       0x34 app/libapp.a(ble_latency.c.obj)
 .text.le_param_updated
                0x00025128       0x38 app/libapp.a(ble_latency.c.obj)
 .text.event_handler
                0x00025160       0xdc app/libapp.a(ble_latency.c.obj)
 .text.bond_find
                0x0002523c       0x24 app/libapp.a(ble_adv.c.obj)
 .text.ble_adv_stop.part.8
                0x00025260       0x54 app/libapp.a(ble_adv.c.obj)
 .text.ble_adv_start
                0x000252b4      0x158 app/libapp.a(ble_adv.c.obj)
 .text.sp_grace_period_fn.part.9
                0x0002540c       0x40 app/libapp.a(ble_adv.c.obj)
 .text.ble_adv_update_fn
                0x0002544c       0x14 app/libapp.a(ble_adv.c.obj)
 .text.sp_grace_period_fn
                0x00025460       0x58 app/libapp.a(ble_adv.c.obj)
 .text.event_handler
                0x000254b8      0x2f0 app/libapp.a(ble_adv.c.obj)
 .text.commit   0x000257a8       0x24 app/libapp.a(config.c.obj)
 .text.settings_set
                0x000257cc      0x11c app/libapp.a(config.c.obj)
 .text.event_handler
                0x000258e8      0x174 app/libapp.a(config.c.obj)
 .text.eventq_reset
                0x00025a5c       0x34 app/libapp.a(hid_state.c.obj)
 .text.eventq_cleanup
                0x00025a90      0x110 app/libapp.a(hid_state.c.obj)
 .text.disconnect_subscriber
                0x00025ba0       0x90 app/libapp.a(hid_state.c.obj)
 .text.key_value_set
                0x00025c30       0xe0 app/libapp.a(hid_state.c.obj)
 .text.report_send
                0x00025d10      0x1b4 app/libapp.a(hid_state.c.obj)
 .text.event_handler
                0x00025ec4      0x3f8 app/libapp.a(hid_state.c.obj)
 .text.protocol_change
                0x000262bc        0xc app/libapp.a(usb_state.c.obj)
 .text.report_sent
                0x000262c8       0x48 app/libapp.a(usb_state.c.obj)
 .text.report_sent_cb
                0x00026310        0x8 app/libapp.a(usb_state.c.obj)
 .text.broadcast_subscription_change
                0x00026318       0x4c app/libapp.a(usb_state.c.obj)
 .text.device_status
                0x00026364       0xf0 app/libapp.a(usb_state.c.obj)
 .text.set_report
                0x00026454       0x24 app/libapp.a(usb_state.c.obj)
 .text.get_report
                0x00026478       0x4c app/libapp.a(usb_state.c.obj)
 .text.event_handler
                0x000264c4      0x204 app/libapp.a(usb_state.c.obj)
 .text.load_peer_state_led
                0x000266c8       0x9c app/libapp.a(led_state.c.obj)
 .text.load_system_state_led
                0x00026764       0x48 app/libapp.a(led_state.c.obj)
 .text.event_handler
                0x000267ac       0xf8 app/libapp.a(led_state.c.obj)
 .text.send_effect
                0x000268a4       0x4c app/libapp.a(led_stream.c.obj)
 .text.send_data_from_queue
                0x000268f0       0x44 app/libapp.a(led_stream.c.obj)
 .text.event_handler
                0x00026934      0x274 app/libapp.a(led_stream.c.obj)
 .text.power_down_counter_reset.part.8
                0x00026ba8       0x20 app/libapp.a(power_manager.c.obj)
 .text.error    0x00026bc8       0x3c app/libapp.a(power_manager.c.obj)
 .text.power_down
                0x00026c04       0x7c app/libapp.a(power_manager.c.obj)
 .text.event_handler
                0x00026c80      0x260 app/libapp.a(power_manager.c.obj)
 .text.sys_pm_policy_next_state
                0x00026ee0        0x8 app/libapp.a(power_manager.c.obj)
                0x00026ee0                sys_pm_policy_next_state
 .text.event_handler.part.4
                0x00026ee8       0x40 app/libapp.a(watchdog.c.obj)
 .text.watchdog_feed_worker
                0x00026f28       0x30 app/libapp.a(watchdog.c.obj)
 .text.event_handler
                0x00026f58       0xb4 app/libapp.a(watchdog.c.obj)
 .text.blvl_ccc_cfg_changed
                0x0002700c       0x14 app/libapp.a(bas.c.obj)
 .text.read_blvl
                0x00027020       0x1c app/libapp.a(bas.c.obj)
 .text.event_handler
                0x0002703c       0xa0 app/libapp.a(bas.c.obj)
 .text.read_dev_descr
                0x000270dc       0x1c app/libapp.a(dev_descr.c.obj)
 .text.broadcast_subscription_change
                0x000270f8       0x5c app/libapp.a(hids.c.obj)
 .text.mouse_notif_handler
                0x00027154       0x3c app/libapp.a(hids.c.obj)
 .text.pm_evt_handler
                0x00027190       0x50 app/libapp.a(hids.c.obj)
 .text.event_handler
                0x000271e0      0x300 app/libapp.a(hids.c.obj)
 .text.feature_report_handler
                0x000274e0       0x38 app/libapp.a(hids.c.obj)
 .text.boot_mouse_notif_handler
                0x00027518       0x3c app/libapp.a(hids.c.obj)
 .text.mouse_report_sent_cb
                0x00027554       0x3c app/libapp.a(hids.c.obj)
 .text.timeout_handler
                0x00027590       0x24 app/libapp.a(config_channel.c.obj)
 .text.config_channel_init
                0x000275b4       0x18 app/libapp.a(config_channel.c.obj)
                0x000275b4                config_channel_init
 .text.config_channel_report_parse
                0x000275cc       0x60 app/libapp.a(config_channel.c.obj)
                0x000275cc                config_channel_report_parse
 .text.config_channel_report_fill
                0x0002762c       0x78 app/libapp.a(config_channel.c.obj)
                0x0002762c                config_channel_report_fill
 .text.config_channel_report_get
                0x000276a4      0x11c app/libapp.a(config_channel.c.obj)
                0x000276a4                config_channel_report_get
 .text.config_channel_report_set
                0x000277c0      0x264 app/libapp.a(config_channel.c.obj)
                0x000277c0                config_channel_report_set
 .text.config_channel_fetch_receive
                0x00027a24       0x4c app/libapp.a(config_channel.c.obj)
                0x00027a24                config_channel_fetch_receive
 .text.config_channel_forwarded_receive
                0x00027a70       0x18 app/libapp.a(config_channel.c.obj)
                0x00027a70                config_channel_forwarded_receive
 .text.config_channel_event_done
                0x00027a88       0x30 app/libapp.a(config_channel.c.obj)
                0x00027a88                config_channel_event_done
 .text.config_channel_disconnect
                0x00027ab8       0x14 app/libapp.a(config_channel.c.obj)
                0x00027ab8                config_channel_disconnect
 .text.crc8_ccitt
                0x00027acc       0x38 zephyr/libzephyr.a(crc8_sw.c.obj)
                0x00027acc                crc8_ccitt
 .text.u8_to_dec
                0x00027b04       0x6c zephyr/libzephyr.a(dec.c.obj)
                0x00027b04                u8_to_dec
 .text.char2hex
                0x00027b70       0x34 zephyr/libzephyr.a(hex.c.obj)
                0x00027b70                char2hex
 .text.hex2bin  0x00027ba4       0x78 zephyr/libzephyr.a(hex.c.obj)
                0x00027ba4                hex2bin
 .text.z_sys_mem_pool_base_init
                0x00027c1c       0x90 zephyr/libzephyr.a(mempool.c.obj)
                0x00027c1c                z_sys_mem_pool_base_init
 .text.z_sys_mem_pool_block_alloc
                0x00027cac      0x218 zephyr/libzephyr.a(mempool.c.obj)
                0x00027cac                z_sys_mem_pool_block_alloc
 .text.z_sys_mem_pool_block_free
                0x00027ec4      0x1ac zephyr/libzephyr.a(mempool.c.obj)
                0x00027ec4                z_sys_mem_pool_block_free
 .text.z_thread_entry
                0x00028070       0x18 zephyr/libzephyr.a(thread_entry.c.obj)
                0x00028070                z_thread_entry
 .text.z_work_q_main
                0x00028088       0x50 zephyr/libzephyr.a(work_q.c.obj)
                0x00028088                z_work_q_main
 .text.arch_printk_char_out
                0x000280d8        0x4 zephyr/libzephyr.a(printk.c.obj)
                0x000280d8                arch_printk_char_out
 .text.char_out
                0x000280dc       0x10 zephyr/libzephyr.a(printk.c.obj)
 .text._printk_dec_ulong
                0x000280ec       0xc8 zephyr/libzephyr.a(printk.c.obj)
 .text.str_out  0x000281b4       0x30 zephyr/libzephyr.a(printk.c.obj)
 .text.z_vprintk
                0x000281e4      0x3dc zephyr/libzephyr.a(printk.c.obj)
                0x000281e4                z_vprintk
 .text.printk   0x000285c0       0x2c zephyr/libzephyr.a(printk.c.obj)
                0x000285c0                printk
 .text.vsnprintk
                0x000285ec       0x28 zephyr/libzephyr.a(printk.c.obj)
                0x000285ec                vsnprintk
 .text.snprintk
                0x00028614       0x1c zephyr/libzephyr.a(printk.c.obj)
                0x00028614                snprintk
 .text._ConfigAbsSyms
                0x00028630        0x4 zephyr/libzephyr.a(configs.c.obj)
                0x00028630                _ConfigAbsSyms
 .text._copy    0x00028634       0x18 zephyr/libzephyr.a(utils.c.obj)
                0x00028634                _copy
 .text._set     0x0002864c        0x4 zephyr/libzephyr.a(utils.c.obj)
                0x0002864c                _set
 .text._double_byte
                0x00028650       0x14 zephyr/libzephyr.a(utils.c.obj)
                0x00028650                _double_byte
 .text.uECC_make_key
                0x00028664       0xa8 zephyr/libzephyr.a(ecc_dh.c.obj)
                0x00028664                uECC_make_key
 .text.uECC_shared_secret
                0x0002870c       0xbc zephyr/libzephyr.a(ecc_dh.c.obj)
                0x0002870c                uECC_shared_secret
 .text.uECC_vli_mult
                0x000287c8      0x154 zephyr/libzephyr.a(ecc.c.obj)
 .text.vli_modInv_update
                0x0002891c       0x8c zephyr/libzephyr.a(ecc.c.obj)
 .text.vli_mmod_fast_secp256r1
                0x000289a8      0x32c zephyr/libzephyr.a(ecc.c.obj)
                0x000289a8                vli_mmod_fast_secp256r1
 .text.uECC_get_rng
                0x00028cd4        0xc zephyr/libzephyr.a(ecc.c.obj)
                0x00028cd4                uECC_get_rng
 .text.uECC_vli_numBits
                0x00028ce0       0x5c zephyr/libzephyr.a(ecc.c.obj)
                0x00028ce0                uECC_vli_numBits
 .text.uECC_vli_modAdd
                0x00028d3c       0xc0 zephyr/libzephyr.a(ecc.c.obj)
                0x00028d3c                uECC_vli_modAdd
 .text.uECC_vli_modSub
                0x00028dfc       0x74 zephyr/libzephyr.a(ecc.c.obj)
                0x00028dfc                uECC_vli_modSub
 .text.double_jacobian_default
                0x00028e70      0x27c zephyr/libzephyr.a(ecc.c.obj)
                0x00028e70                double_jacobian_default
 .text.x_side_default
                0x000290ec       0x78 zephyr/libzephyr.a(ecc.c.obj)
                0x000290ec                x_side_default
 .text.XYcZ_addC
                0x00029164      0x194 zephyr/libzephyr.a(ecc.c.obj)
 .text.uECC_vli_mmod
                0x000292f8      0x208 zephyr/libzephyr.a(ecc.c.obj)
                0x000292f8                uECC_vli_mmod
 .text.uECC_vli_modInv
                0x00029500      0x3b8 zephyr/libzephyr.a(ecc.c.obj)
                0x00029500                uECC_vli_modInv
 .text.EccPoint_isZero
                0x000298b8       0x30 zephyr/libzephyr.a(ecc.c.obj)
                0x000298b8                EccPoint_isZero
 .text.apply_z  0x000298e8       0x70 zephyr/libzephyr.a(ecc.c.obj)
                0x000298e8                apply_z
 .text.XYcZ_add
                0x00029958      0x12c zephyr/libzephyr.a(ecc.c.obj)
                0x00029958                XYcZ_add
 .text.EccPoint_mult
                0x00029a84      0x284 zephyr/libzephyr.a(ecc.c.obj)
                0x00029a84                EccPoint_mult
 .text.regularize_k
                0x00029d08       0xc0 zephyr/libzephyr.a(ecc.c.obj)
                0x00029d08                regularize_k
 .text.EccPoint_compute_public_key
                0x00029dc8       0x78 zephyr/libzephyr.a(ecc.c.obj)
                0x00029dc8                EccPoint_compute_public_key
 .text.uECC_vli_nativeToBytes
                0x00029e40       0x30 zephyr/libzephyr.a(ecc.c.obj)
                0x00029e40                uECC_vli_nativeToBytes
 .text.uECC_vli_bytesToNative
                0x00029e70       0x58 zephyr/libzephyr.a(ecc.c.obj)
                0x00029e70                uECC_vli_bytesToNative
 .text.uECC_valid_point
                0x00029ec8      0x12c zephyr/libzephyr.a(ecc.c.obj)
                0x00029ec8                uECC_valid_point
 .text.uECC_valid_public_key
                0x00029ff4       0x54 zephyr/libzephyr.a(ecc.c.obj)
                0x00029ff4                uECC_valid_public_key
 .text.tc_aes128_set_encrypt_key
                0x0002a048       0xc0 zephyr/libzephyr.a(aes_encrypt.c.obj)
                0x0002a048                tc_aes128_set_encrypt_key
 .text.tc_aes_encrypt
                0x0002a108      0x72c zephyr/libzephyr.a(aes_encrypt.c.obj)
                0x0002a108                tc_aes_encrypt
 .text.tc_cmac_init.part.1
                0x0002a834       0x2c zephyr/libzephyr.a(cmac_mode.c.obj)
 .text.tc_cmac_setup
                0x0002a860       0xb0 zephyr/libzephyr.a(cmac_mode.c.obj)
                0x0002a860                tc_cmac_setup
 .text.tc_cmac_update
                0x0002a910       0xdc zephyr/libzephyr.a(cmac_mode.c.obj)
                0x0002a910                tc_cmac_update
 .text.tc_cmac_final
                0x0002a9ec       0x78 zephyr/libzephyr.a(cmac_mode.c.obj)
                0x0002a9ec                tc_cmac_final
 .text.read_pnp_id
                0x0002aa64       0x20 zephyr/libzephyr.a(dis.c.obj)
 .text.read_str
                0x0002aa84       0x38 zephyr/libzephyr.a(dis.c.obj)
 .text.fcb_append_to_scratch
                0x0002aabc       0x38 zephyr/libzephyr.a(fcb_append.c.obj)
                0x0002aabc                fcb_append_to_scratch
 .text.fcb_append
                0x0002aaf4      0x114 zephyr/libzephyr.a(fcb_append.c.obj)
                0x0002aaf4                fcb_append
 .text.fcb_append_finish
                0x0002ac08       0x60 zephyr/libzephyr.a(fcb_append.c.obj)
                0x0002ac08                fcb_append_finish
 .text.fcb_flash_read
                0x0002ac68       0x30 zephyr/libzephyr.a(fcb.c.obj)
                0x0002ac68                fcb_flash_read
 .text.fcb_flash_write
                0x0002ac98       0x30 zephyr/libzephyr.a(fcb.c.obj)
                0x0002ac98                fcb_flash_write
 .text.fcb_erase_sector
                0x0002acc8       0x20 zephyr/libzephyr.a(fcb.c.obj)
                0x0002acc8                fcb_erase_sector
 .text.fcb_free_sector_cnt
                0x0002ace8       0x28 zephyr/libzephyr.a(fcb.c.obj)
                0x0002ace8                fcb_free_sector_cnt
 .text.fcb_put_len
                0x0002ad10       0x28 zephyr/libzephyr.a(fcb.c.obj)
                0x0002ad10                fcb_put_len
 .text.fcb_get_len
                0x0002ad38       0x2c zephyr/libzephyr.a(fcb.c.obj)
                0x0002ad38                fcb_get_len
 .text.fcb_sector_hdr_init
                0x0002ad64       0x30 zephyr/libzephyr.a(fcb.c.obj)
                0x0002ad64                fcb_sector_hdr_init
 .text.fcb_sector_hdr_read
                0x0002ad94       0x3c zephyr/libzephyr.a(fcb.c.obj)
                0x0002ad94                fcb_sector_hdr_read
 .text.fcb_init
                0x0002add0      0x110 zephyr/libzephyr.a(fcb.c.obj)
                0x0002add0                fcb_init
 .text.fcb_elem_crc8
                0x0002aee0       0xb8 zephyr/libzephyr.a(fcb_elem_info.c.obj)
                0x0002aee0                fcb_elem_crc8
 .text.fcb_elem_info
                0x0002af98       0x58 zephyr/libzephyr.a(fcb_elem_info.c.obj)
                0x0002af98                fcb_elem_info
 .text.fcb_getnext_in_sector
                0x0002aff0       0x44 zephyr/libzephyr.a(fcb_getnext.c.obj)
                0x0002aff0                fcb_getnext_in_sector
 .text.fcb_getnext_sector
                0x0002b034       0x14 zephyr/libzephyr.a(fcb_getnext.c.obj)
                0x0002b034                fcb_getnext_sector
 .text.fcb_getnext_nolock
                0x0002b048       0x94 zephyr/libzephyr.a(fcb_getnext.c.obj)
                0x0002b048                fcb_getnext_nolock
 .text.fcb_getnext
                0x0002b0dc       0x30 zephyr/libzephyr.a(fcb_getnext.c.obj)
                0x0002b0dc                fcb_getnext
 .text.fcb_rotate
                0x0002b10c       0x74 zephyr/libzephyr.a(fcb_rotate.c.obj)
                0x0002b10c                fcb_rotate
 .text.class_handler
                0x0002b180       0x58 zephyr/libzephyr.a(usb_device.c.obj)
 .text.custom_handler
                0x0002b1d8       0x58 zephyr/libzephyr.a(usb_device.c.obj)
 .text.vendor_handler
                0x0002b230       0x50 zephyr/libzephyr.a(usb_device.c.obj)
 .text.set_endpoint
                0x0002b280       0x48 zephyr/libzephyr.a(usb_device.c.obj)
 .text.usb_handle_standard_request
                0x0002b2c8      0x258 zephyr/libzephyr.a(usb_device.c.obj)
 .text.usb_write
                0x0002b520       0x38 zephyr/libzephyr.a(usb_device.c.obj)
                0x0002b520                usb_write
 .text.usb_transfer_work
                0x0002b558      0x128 zephyr/libzephyr.a(usb_device.c.obj)
 .text.usb_data_to_host.isra.7
                0x0002b680       0x44 zephyr/libzephyr.a(usb_device.c.obj)
 .text.usb_handle_control_transfer
                0x0002b6c4      0x110 zephyr/libzephyr.a(usb_device.c.obj)
 .text.usb_cancel_transfers
                0x0002b7d4       0x74 zephyr/libzephyr.a(usb_device.c.obj)
                0x0002b7d4                usb_cancel_transfers
 .text.forward_status_cb
                0x0002b848       0xb8 zephyr/libzephyr.a(usb_device.c.obj)
 .text.usb_enable
                0x0002b900      0x118 zephyr/libzephyr.a(usb_device.c.obj)
                0x0002b900                usb_enable
 .text.usb_device_init
                0x0002ba18       0x48 zephyr/libzephyr.a(usb_device.c.obj)
 .text.usb_update_sn_string_descriptor
                0x0002ba60        0x4 zephyr/libzephyr.a(usb_descriptor.c.obj)
                0x0002ba60                usb_update_sn_string_descriptor
 .text.usb_fix_descriptor
                0x0002ba64      0x240 zephyr/libzephyr.a(usb_descriptor.c.obj)
 .text.usb_get_device_descriptor
                0x0002bca4       0x18 zephyr/libzephyr.a(usb_descriptor.c.obj)
                0x0002bca4                usb_get_device_descriptor
 .text.usb_get_dev_data_by_cfg
                0x0002bcbc       0x34 zephyr/libzephyr.a(usb_descriptor.c.obj)
                0x0002bcbc                usb_get_dev_data_by_cfg
 .text.usb_get_dev_data_by_iface
                0x0002bcf0       0x2c zephyr/libzephyr.a(usb_descriptor.c.obj)
                0x0002bcf0                usb_get_dev_data_by_iface
 .text.usb_get_dev_data_by_ep
                0x0002bd1c       0x44 zephyr/libzephyr.a(usb_descriptor.c.obj)
                0x0002bd1c                usb_get_dev_data_by_ep
 .text.get_sectors_cb
                0x0002bd60       0x4c zephyr/libzephyr.a(flash_map.c.obj)
 .text.flash_area_open
                0x0002bdac       0x4c zephyr/libzephyr.a(flash_map.c.obj)
                0x0002bdac                flash_area_open
 .text.flash_area_close
                0x0002bdf8        0x4 zephyr/libzephyr.a(flash_map.c.obj)
                0x0002bdf8                flash_area_close
 .text.flash_area_get_sectors
                0x0002bdfc       0x80 zephyr/libzephyr.a(flash_map.c.obj)
                0x0002bdfc                flash_area_get_sectors
 .text.flash_area_read
                0x0002be7c       0x3c zephyr/libzephyr.a(flash_map.c.obj)
                0x0002be7c                flash_area_read
 .text.flash_area_write
                0x0002beb8       0x58 zephyr/libzephyr.a(flash_map.c.obj)
                0x0002beb8                flash_area_write
 .text.flash_area_erase
                0x0002bf10       0x54 zephyr/libzephyr.a(flash_map.c.obj)
                0x0002bf10                flash_area_erase
 .text.flash_area_align
                0x0002bf64       0x10 zephyr/libzephyr.a(flash_map.c.obj)
                0x0002bf64                flash_area_align
 .text.settings_save_one
                0x0002bf74       0x40 zephyr/libzephyr.a(settings_store.c.obj)
                0x0002bf74                settings_save_one
 .text.settings_src_register
                0x0002bfb4       0x30 zephyr/libzephyr.a(settings_store.c.obj)
                0x0002bfb4                settings_src_register
 .text.settings_dst_register
                0x0002bfe4        0xc zephyr/libzephyr.a(settings_store.c.obj)
                0x0002bfe4                settings_dst_register
 .text.settings_load_subtree
                0x0002bff0       0x4c zephyr/libzephyr.a(settings_store.c.obj)
                0x0002bff0                settings_load_subtree
 .text.settings_load
                0x0002c03c        0x8 zephyr/libzephyr.a(settings_store.c.obj)
                0x0002c03c                settings_load
 .text.settings_delete
                0x0002c044        0x8 zephyr/libzephyr.a(settings_store.c.obj)
                0x0002c044                settings_delete
 .text.settings_store_init
                0x0002c04c       0x10 zephyr/libzephyr.a(settings_store.c.obj)
                0x0002c04c                settings_store_init
 .text.settings_name_steq.part.4
                0x0002c05c       0x54 zephyr/libzephyr.a(settings.c.obj)
 .text.settings_init
                0x0002c0b0       0x10 zephyr/libzephyr.a(settings.c.obj)
                0x0002c0b0                settings_init
 .text.settings_register
                0x0002c0c0       0x80 zephyr/libzephyr.a(settings.c.obj)
                0x0002c0c0                settings_register
 .text.settings_name_next
                0x0002c140       0x44 zephyr/libzephyr.a(settings.c.obj)
                0x0002c140                settings_name_next
 .text.settings_parse_and_lookup
                0x0002c184       0xbc zephyr/libzephyr.a(settings.c.obj)
                0x0002c184                settings_parse_and_lookup
 .text.settings_call_set_handler
                0x0002c240       0x60 zephyr/libzephyr.a(settings.c.obj)
                0x0002c240                settings_call_set_handler
 .text.settings_commit_subtree
                0x0002c2a0       0x74 zephyr/libzephyr.a(settings.c.obj)
                0x0002c2a0                settings_commit_subtree
 .text.settings_backend_init
                0x0002c314       0xbc zephyr/libzephyr.a(settings_init.c.obj)
                0x0002c314                settings_backend_init
 .text.settings_subsys_init
                0x0002c3d0       0x24 zephyr/libzephyr.a(settings_init.c.obj)
                0x0002c3d0                settings_subsys_init
 .text.settings_line_raw_read_until
                0x0002c3f4       0xf8 zephyr/libzephyr.a(settings_line.c.obj)
 .text.settings_line_read_cb
                0x0002c4ec       0x24 zephyr/libzephyr.a(settings_line.c.obj)
 .text.settings_line_write
                0x0002c510       0xd8 zephyr/libzephyr.a(settings_line.c.obj)
                0x0002c510                settings_line_write
 .text.settings_line_len_calc
                0x0002c5e8       0x10 zephyr/libzephyr.a(settings_line.c.obj)
                0x0002c5e8                settings_line_len_calc
 .text.settings_line_name_read
                0x0002c5f8       0x20 zephyr/libzephyr.a(settings_line.c.obj)
                0x0002c5f8                settings_line_name_read
 .text.settings_line_entry_copy
                0x0002c618       0x64 zephyr/libzephyr.a(settings_line.c.obj)
                0x0002c618                settings_line_entry_copy
 .text.settings_line_io_init
                0x0002c67c       0x14 zephyr/libzephyr.a(settings_line.c.obj)
                0x0002c67c                settings_line_io_init
 .text.settings_line_dup_check_cb
                0x0002c690       0x90 zephyr/libzephyr.a(settings_line.c.obj)
                0x0002c690                settings_line_dup_check_cb
 .text.settings_line_load_cb
                0x0002c720       0x30 zephyr/libzephyr.a(settings_line.c.obj)
                0x0002c720                settings_line_load_cb
 .text.get_len_cb
                0x0002c750        0x4 zephyr/libzephyr.a(settings_fcb.c.obj)
 .text.settings_fcb_load_priv
                0x0002c754       0xb8 zephyr/libzephyr.a(settings_fcb.c.obj)
 .text.settings_fcb_load
                0x0002c80c       0x10 zephyr/libzephyr.a(settings_fcb.c.obj)
 .text.settings_fcb_save
                0x0002c81c      0x184 zephyr/libzephyr.a(settings_fcb.c.obj)
 .text.write_handler
                0x0002c9a0       0x14 zephyr/libzephyr.a(settings_fcb.c.obj)
 .text.read_handler
                0x0002c9b4       0x30 zephyr/libzephyr.a(settings_fcb.c.obj)
 .text.settings_fcb_src
                0x0002c9e4       0x58 zephyr/libzephyr.a(settings_fcb.c.obj)
                0x0002c9e4                settings_fcb_src
 .text.settings_fcb_dst
                0x0002ca3c       0x14 zephyr/libzephyr.a(settings_fcb.c.obj)
                0x0002ca3c                settings_fcb_dst
 .text.settings_mount_fcb_backend
                0x0002ca50       0x1c zephyr/libzephyr.a(settings_fcb.c.obj)
                0x0002ca50                settings_mount_fcb_backend
 .text.sys_pm_init
                0x0002ca6c        0xc zephyr/libzephyr.a(power.c.obj)
 .text.sys_pm_notify_power_state_entry
                0x0002ca78        0x4 zephyr/libzephyr.a(power.c.obj)
                0x0002ca78                sys_pm_notify_power_state_entry
 .text.sys_pm_notify_power_state_exit
                0x0002ca7c        0x4 zephyr/libzephyr.a(power.c.obj)
                0x0002ca7c                sys_pm_notify_power_state_exit
 .text.sys_pm_force_power_state
                0x0002ca80        0xc zephyr/libzephyr.a(power.c.obj)
                0x0002ca80                sys_pm_force_power_state
 .text._sys_suspend
                0x0002ca8c       0x94 zephyr/libzephyr.a(power.c.obj)
                0x0002ca8c                _sys_suspend
 .text.sys_pm_suspend_devices
                0x0002cb20       0x7c zephyr/libzephyr.a(device.c.obj)
                0x0002cb20                sys_pm_suspend_devices
 .text.sys_pm_resume_devices
                0x0002cb9c       0x6c zephyr/libzephyr.a(device.c.obj)
                0x0002cb9c                sys_pm_resume_devices
 .text.sys_pm_create_device_list
                0x0002cc08       0x84 zephyr/libzephyr.a(device.c.obj)
                0x0002cc08                sys_pm_create_device_list
 .text.sys_reboot
                0x0002cc8c       0x30 zephyr/libzephyr.a(reboot.c.obj)
                0x0002cc8c                sys_reboot
 .text.endpoint_ctx
                0x0002ccbc       0x48 zephyr/libzephyr.a(usb_dc_nrfx.c.obj)
 .text.eps_ctx_init
                0x0002cd04       0xac zephyr/libzephyr.a(usb_dc_nrfx.c.obj)
 .text.hf_clock_enable.constprop.6
                0x0002cdb0       0x50 zephyr/libzephyr.a(usb_dc_nrfx.c.obj)
 .text.usbd_work_handler
                0x0002ce00      0x32c zephyr/libzephyr.a(usb_dc_nrfx.c.obj)
 .text.usbd_event_transfer_data
                0x0002d12c      0x2b0 zephyr/libzephyr.a(usb_dc_nrfx.c.obj)
 .text.usbd_event_handler
                0x0002d3dc      0x3c8 zephyr/libzephyr.a(usb_dc_nrfx.c.obj)
 .text.usb_dc_nrfx_power_event_callback
                0x0002d7a4      0x104 zephyr/libzephyr.a(usb_dc_nrfx.c.obj)
                0x0002d7a4                usb_dc_nrfx_power_event_callback
 .text.usb_dc_attach
                0x0002d8a8       0xc0 zephyr/libzephyr.a(usb_dc_nrfx.c.obj)
                0x0002d8a8                usb_dc_attach
 .text.usb_dc_set_address
                0x0002d968       0x20 zephyr/libzephyr.a(usb_dc_nrfx.c.obj)
                0x0002d968                usb_dc_set_address
 .text.usb_dc_ep_check_cap
                0x0002d988       0x30 zephyr/libzephyr.a(usb_dc_nrfx.c.obj)
                0x0002d988                usb_dc_ep_check_cap
 .text.usb_dc_ep_configure
                0x0002d9b8       0x40 zephyr/libzephyr.a(usb_dc_nrfx.c.obj)
                0x0002d9b8                usb_dc_ep_configure
 .text.usb_dc_ep_set_stall
                0x0002d9f8       0x54 zephyr/libzephyr.a(usb_dc_nrfx.c.obj)
                0x0002d9f8                usb_dc_ep_set_stall
 .text.usb_dc_ep_clear_stall
                0x0002da4c       0x30 zephyr/libzephyr.a(usb_dc_nrfx.c.obj)
                0x0002da4c                usb_dc_ep_clear_stall
 .text.usb_dc_ep_is_stalled
                0x0002da7c       0x38 zephyr/libzephyr.a(usb_dc_nrfx.c.obj)
                0x0002da7c                usb_dc_ep_is_stalled
 .text.usb_dc_ep_enable
                0x0002dab4       0x40 zephyr/libzephyr.a(usb_dc_nrfx.c.obj)
                0x0002dab4                usb_dc_ep_enable
 .text.usb_dc_ep_disable
                0x0002daf4       0x3c zephyr/libzephyr.a(usb_dc_nrfx.c.obj)
                0x0002daf4                usb_dc_ep_disable
 .text.usb_dc_ep_write
                0x0002db30       0xe8 zephyr/libzephyr.a(usb_dc_nrfx.c.obj)
                0x0002db30                usb_dc_ep_write
 .text.usb_dc_ep_read_wait
                0x0002dc18       0x90 zephyr/libzephyr.a(usb_dc_nrfx.c.obj)
                0x0002dc18                usb_dc_ep_read_wait
 .text.usb_dc_ep_read_continue
                0x0002dca8      0x140 zephyr/libzephyr.a(usb_dc_nrfx.c.obj)
                0x0002dca8                usb_dc_ep_read_continue
 .text.usb_dc_ep_read
                0x0002dde8       0x20 zephyr/libzephyr.a(usb_dc_nrfx.c.obj)
                0x0002dde8                usb_dc_ep_read
 .text.usb_dc_ep_set_callback
                0x0002de08       0x24 zephyr/libzephyr.a(usb_dc_nrfx.c.obj)
                0x0002de08                usb_dc_ep_set_callback
 .text.usb_dc_set_status_callback
                0x0002de2c        0xc zephyr/libzephyr.a(usb_dc_nrfx.c.obj)
                0x0002de2c                usb_dc_set_status_callback
 .text.usb_dc_ep_mps
                0x0002de38       0x24 zephyr/libzephyr.a(usb_dc_nrfx.c.obj)
                0x0002de38                usb_dc_ep_mps
 .text.wdt_nrf_disable
                0x0002de5c        0x8 zephyr/libzephyr.a(wdt_nrfx.c.obj)
 .text.wdt_nrf_feed
                0x0002de64       0x20 zephyr/libzephyr.a(wdt_nrfx.c.obj)
 .text.wdt_nrf_install_timeout
                0x0002de84       0x80 zephyr/libzephyr.a(wdt_nrfx.c.obj)
 .text.wdt_nrf_setup
                0x0002df04       0x40 zephyr/libzephyr.a(wdt_nrfx.c.obj)
 .text.wdt_0_init
                0x0002df44       0x34 zephyr/libzephyr.a(wdt_nrfx.c.obj)
 .text.wdt_0_event_handler
                0x0002df78       0x40 zephyr/libzephyr.a(wdt_nrfx.c.obj)
 .text.z_clock_device_ctrl
                0x0002dfb8        0x4 zephyr/libzephyr.a(sys_clock_init.c.obj)
                0x0002dfb8                z_clock_device_ctrl
 .text.z_clock_isr
                0x0002dfbc        0x4 zephyr/libzephyr.a(sys_clock_init.c.obj)
                0x0002dfbc                z_clock_isr
 .text.z_clock_idle_exit
                0x0002dfc0        0x4 zephyr/libzephyr.a(sys_clock_init.c.obj)
                0x0002dfc0                z_clock_idle_exit
 .text.sys_clock_disable
                0x0002dfc4        0x4 zephyr/libzephyr.a(sys_clock_init.c.obj)
                0x0002dfc4                sys_clock_disable
 .text.rtc1_nrf_isr
                0x0002dfc8       0x4c zephyr/libzephyr.a(nrf_rtc_timer.c.obj)
                0x0002dfc8                rtc1_nrf_isr
 .text.z_clock_driver_init
                0x0002e014       0x84 zephyr/libzephyr.a(nrf_rtc_timer.c.obj)
                0x0002e014                z_clock_driver_init
 .text.z_clock_set_timeout
                0x0002e098       0xe4 zephyr/libzephyr.a(nrf_rtc_timer.c.obj)
                0x0002e098                z_clock_set_timeout
 .text.z_clock_elapsed
                0x0002e17c       0x34 zephyr/libzephyr.a(nrf_rtc_timer.c.obj)
                0x0002e17c                z_clock_elapsed
 .text.z_timer_cycle_get_32
                0x0002e1b0       0x34 zephyr/libzephyr.a(nrf_rtc_timer.c.obj)
                0x0002e1b0                z_timer_cycle_get_32
 .text.chrc_release
                0x0002e1e4       0x38 zephyr/libzephyr.a(gatt_pool.c.obj)
 .text.uuid_register
                0x0002e21c       0x64 zephyr/libzephyr.a(gatt_pool.c.obj)
 .text.bt_gatt_pool_svc_alloc
                0x0002e280       0x60 zephyr/libzephyr.a(gatt_pool.c.obj)
                0x0002e280                bt_gatt_pool_svc_alloc
 .text.bt_gatt_pool_chrc_alloc
                0x0002e2e0       0xf4 zephyr/libzephyr.a(gatt_pool.c.obj)
                0x0002e2e0                bt_gatt_pool_chrc_alloc
 .text.bt_gatt_pool_desc_alloc
                0x0002e3d4       0x98 zephyr/libzephyr.a(gatt_pool.c.obj)
                0x0002e3d4                bt_gatt_pool_desc_alloc
 .text.bt_gatt_pool_ccc_alloc
                0x0002e46c       0x58 zephyr/libzephyr.a(gatt_pool.c.obj)
                0x0002e46c                bt_gatt_pool_ccc_alloc
 .text.bt_conn_ctx_alloc
                0x0002e4c4       0x34 zephyr/libzephyr.a(conn_ctx.c.obj)
                0x0002e4c4                bt_conn_ctx_alloc
 .text.bt_conn_ctx_free
                0x0002e4f8       0x3c zephyr/libzephyr.a(conn_ctx.c.obj)
                0x0002e4f8                bt_conn_ctx_free
 .text.bt_conn_ctx_get
                0x0002e534       0x24 zephyr/libzephyr.a(conn_ctx.c.obj)
                0x0002e534                bt_conn_ctx_get
 .text.bt_conn_ctx_get_by_id
                0x0002e558       0x28 zephyr/libzephyr.a(conn_ctx.c.obj)
                0x0002e558                bt_conn_ctx_get_by_id
 .text.bt_conn_ctx_release
                0x0002e580       0x10 zephyr/libzephyr.a(conn_ctx.c.obj)
                0x0002e580                bt_conn_ctx_release
 .text.hids_input_report_ccc_changed
                0x0002e590       0x18 zephyr/libzephyr.a(hids.c.obj)
 .text.hids_boot_mouse_inp_rep_ccc_changed
                0x0002e5a8       0x18 zephyr/libzephyr.a(hids.c.obj)
 .text.hids_boot_kb_inp_rep_ccc_changed
                0x0002e5c0       0x18 zephyr/libzephyr.a(hids.c.obj)
 .text.hids_ctrl_point_write
                0x0002e5d8       0x50 zephyr/libzephyr.a(hids.c.obj)
 .text.hids_info_read
                0x0002e628       0x1c zephyr/libzephyr.a(hids.c.obj)
 .text.hids_report_map_read
                0x0002e644       0x1c zephyr/libzephyr.a(hids.c.obj)
 .text.hids_inp_rep_ref_read
                0x0002e660       0x28 zephyr/libzephyr.a(hids.c.obj)
 .text.hids_outp_rep_ref_read
                0x0002e688       0x28 zephyr/libzephyr.a(hids.c.obj)
 .text.hids_feat_rep_ref_read
                0x0002e6b0       0x28 zephyr/libzephyr.a(hids.c.obj)
 .text.hids_boot_kb_outp_report_write
                0x0002e6d8       0x70 zephyr/libzephyr.a(hids.c.obj)
 .text.hids_boot_kb_outp_report_read
                0x0002e748       0x6c zephyr/libzephyr.a(hids.c.obj)
 .text.hids_boot_kb_inp_report_read
                0x0002e7b4       0x54 zephyr/libzephyr.a(hids.c.obj)
 .text.hids_boot_mouse_inp_report_read
                0x0002e808       0x58 zephyr/libzephyr.a(hids.c.obj)
 .text.hids_protocol_mode_write
                0x0002e860       0x70 zephyr/libzephyr.a(hids.c.obj)
 .text.hids_protocol_mode_read
                0x0002e8d0       0x58 zephyr/libzephyr.a(hids.c.obj)
 .text.hids_inp_rep_read
                0x0002e928       0x6c zephyr/libzephyr.a(hids.c.obj)
 .text.hids_outp_rep_write
                0x0002e994       0x78 zephyr/libzephyr.a(hids.c.obj)
 .text.hids_outp_rep_read
                0x0002ea0c       0x78 zephyr/libzephyr.a(hids.c.obj)
 .text.hids_feat_rep_write
                0x0002ea84       0x78 zephyr/libzephyr.a(hids.c.obj)
 .text.hids_feat_rep_read
                0x0002eafc       0x78 zephyr/libzephyr.a(hids.c.obj)
 .text.hids_is_notification_enabled
                0x0002eb74       0x2c zephyr/libzephyr.a(hids.c.obj)
 .text.store_input_report.isra.2
                0x0002eba0       0x34 zephyr/libzephyr.a(hids.c.obj)
 .text.bt_gatt_hids_notify_connected
                0x0002ebd4       0x6c zephyr/libzephyr.a(hids.c.obj)
                0x0002ebd4                bt_gatt_hids_notify_connected
 .text.bt_gatt_hids_notify_disconnected
                0x0002ec40        0x8 zephyr/libzephyr.a(hids.c.obj)
                0x0002ec40                bt_gatt_hids_notify_disconnected
 .text.bt_gatt_hids_init
                0x0002ec48      0x48c zephyr/libzephyr.a(hids.c.obj)
                0x0002ec48                bt_gatt_hids_init
 .text.bt_gatt_hids_inp_rep_send
                0x0002f0d4      0x130 zephyr/libzephyr.a(hids.c.obj)
                0x0002f0d4                bt_gatt_hids_inp_rep_send
 .text.bt_gatt_hids_boot_mouse_inp_rep_send
                0x0002f204      0x12c zephyr/libzephyr.a(hids.c.obj)
                0x0002f204                bt_gatt_hids_boot_mouse_inp_rep_send
 .text.event_processor_fn
                0x0002f330       0x98 zephyr/libzephyr.a(event_manager.c.obj)
 .text._event_submit
                0x0002f3c8       0x68 zephyr/libzephyr.a(event_manager.c.obj)
                0x0002f3c8                _event_submit
 .text.event_manager_init
                0x0002f430        0x4 zephyr/libzephyr.a(event_manager.c.obj)
                0x0002f430                event_manager_init
 .text.abort_function
                0x0002f434        0x8 zephyr/libzephyr.a(nrf_cc310_platform_abort_zephyr.c.obj)
 .text.nrf_cc310_platform_abort_init
                0x0002f43c        0xc zephyr/libzephyr.a(nrf_cc310_platform_abort_zephyr.c.obj)
                0x0002f43c                nrf_cc310_platform_abort_init
 .text.mutex_unlock
                0x0002f448       0x20 zephyr/libzephyr.a(nrf_cc310_platform_mutex_zephyr.c.obj)
 .text.mutex_lock
                0x0002f468       0x30 zephyr/libzephyr.a(nrf_cc310_platform_mutex_zephyr.c.obj)
 .text.mutex_free
                0x0002f498       0x40 zephyr/libzephyr.a(nrf_cc310_platform_mutex_zephyr.c.obj)
 .text.mutex_init
                0x0002f4d8       0x68 zephyr/libzephyr.a(nrf_cc310_platform_mutex_zephyr.c.obj)
 .text.nrf_cc310_platform_mutex_init
                0x0002f540       0x2c zephyr/libzephyr.a(nrf_cc310_platform_mutex_zephyr.c.obj)
                0x0002f540                nrf_cc310_platform_mutex_init
 .text._HandlerModeExit
                0x0002f56c       0x1c zephyr/arch/arch/arm/core/libarch__arm__core.a(exc_exit.S.obj)
                0x0002f56c                z_arm_exc_exit
                0x0002f56c                z_arm_int_exit
 .text.arch_swap
                0x0002f588       0x38 zephyr/arch/arch/arm/core/libarch__arm__core.a(swap.c.obj)
                0x0002f588                arch_swap
 .text.z_arm_pendsv
                0x0002f5c0       0x54 zephyr/arch/arch/arm/core/libarch__arm__core.a(swap_helper.S.obj)
                0x0002f5c0                z_arm_pendsv
 .text.z_arm_svc
                0x0002f614       0x20 zephyr/arch/arch/arm/core/libarch__arm__core.a(swap_helper.S.obj)
                0x0002f614                z_arm_svc
 .text.arch_irq_enable
                0x0002f634       0x20 zephyr/arch/arch/arm/core/libarch__arm__core.a(irq_manage.c.obj)
                0x0002f634                arch_irq_enable
 .text.arch_irq_disable
                0x0002f654       0x28 zephyr/arch/arch/arm/core/libarch__arm__core.a(irq_manage.c.obj)
                0x0002f654                arch_irq_disable
 .text.arch_irq_is_enabled
                0x0002f67c       0x1c zephyr/arch/arch/arm/core/libarch__arm__core.a(irq_manage.c.obj)
                0x0002f67c                arch_irq_is_enabled
 .text.z_arm_irq_priority_set
                0x0002f698       0x34 zephyr/arch/arch/arm/core/libarch__arm__core.a(irq_manage.c.obj)
                0x0002f698                z_arm_irq_priority_set
 .text.z_irq_spurious
                0x0002f6cc        0x4 zephyr/arch/arch/arm/core/libarch__arm__core.a(irq_manage.c.obj)
                0x0002f6cc                z_irq_spurious
 .text.arch_new_thread
                0x0002f6d0       0x50 zephyr/arch/arch/arm/core/libarch__arm__core.a(thread.c.obj)
                0x0002f6d0                arch_new_thread
 .text.arch_switch_to_main_thread
                0x0002f720       0x3c zephyr/arch/arch/arm/core/libarch__arm__core.a(thread.c.obj)
                0x0002f720                arch_switch_to_main_thread
 .text.z_arm_cpu_idle_init
                0x0002f75c        0xc zephyr/arch/arch/arm/core/libarch__arm__core.a(cpu_idle.S.obj)
                0x0002f75c                z_arm_cpu_idle_init
 .text.arch_cpu_idle
                0x0002f768        0xc zephyr/arch/arch/arm/core/libarch__arm__core.a(cpu_idle.S.obj)
                0x0002f768                arch_cpu_idle
 .text.__fault  0x0002f774       0x14 zephyr/arch/arch/arm/core/libarch__arm__core.a(fault_s.S.obj)
                0x0002f774                z_arm_reserved
                0x0002f774                z_arm_mpu_fault
                0x0002f774                z_arm_debug_monitor
                0x0002f774                z_arm_hard_fault
                0x0002f774                z_arm_bus_fault
                0x0002f774                z_arm_usage_fault
 .text.z_arm_fatal_error
                0x0002f788        0x4 zephyr/arch/arch/arm/core/libarch__arm__core.a(fatal.c.obj)
                0x0002f788                z_arm_fatal_error
 .text.z_do_kernel_oops
                0x0002f78c        0x8 zephyr/arch/arch/arm/core/libarch__arm__core.a(fatal.c.obj)
                0x0002f78c                z_do_kernel_oops
 .text.z_arm_nmi
                0x0002f794       0x10 zephyr/arch/arch/arm/core/libarch__arm__core.a(nmi.c.obj)
                0x0002f794                z_arm_nmi
 .text.z_SysNmiOnReset
                0x0002f7a4        0x8 zephyr/arch/arch/arm/core/libarch__arm__core.a(nmi_on_reset.S.obj)
                0x0002f7a4                z_SysNmiOnReset
 .text.z_arm_prep_c
                0x0002f7ac       0x2c zephyr/arch/arch/arm/core/libarch__arm__core.a(prep_c.c.obj)
                0x0002f7ac                z_arm_prep_c
 .text._isr_wrapper
                0x0002f7d8       0x40 zephyr/arch/arch/arm/core/libarch__arm__core.a(isr_wrapper.S.obj)
                0x0002f7d8                _isr_wrapper
 .text._reset_section
                0x0002f818       0x30 zephyr/arch/arch/arm/core/cortex_m/libarch__arm__core__cortex_m.a(reset.S.obj)
                0x0002f818                z_arm_reset
                0x0002f818                __start
 .text.bus_fault.isra.3
                0x0002f848       0x40 zephyr/arch/arch/arm/core/cortex_m/libarch__arm__core__cortex_m.a(fault.c.obj)
 .text.z_arm_fault
                0x0002f888      0x13c zephyr/arch/arch/arm/core/cortex_m/libarch__arm__core__cortex_m.a(fault.c.obj)
                0x0002f888                z_arm_fault
 .text.z_arm_fault_init
                0x0002f9c4       0x10 zephyr/arch/arch/arm/core/cortex_m/libarch__arm__core__cortex_m.a(fault.c.obj)
                0x0002f9c4                z_arm_fault_init
 .text.z_arm_int_lib_init
                0x0002f9d4       0x18 zephyr/arch/arch/arm/core/cortex_m/libarch__arm__core__cortex_m.a(irq_init.c.obj)
                0x0002f9d4                z_arm_int_lib_init
 .text.z_impl_k_thread_abort
                0x0002f9ec       0x4c zephyr/arch/arch/arm/core/cortex_m/libarch__arm__core__cortex_m.a(thread_abort.c.obj)
                0x0002f9ec                z_impl_k_thread_abort
 .text.z_arm_configure_static_mpu_regions
                0x0002fa38       0x3c zephyr/arch/arch/arm/core/cortex_m/mpu/libarch__arm__core__cortex_m__mpu.a(arm_core_mpu.c.obj)
                0x0002fa38                z_arm_configure_static_mpu_regions
 .text.z_arm_configure_dynamic_mpu_regions
                0x0002fa74       0x14 zephyr/arch/arch/arm/core/cortex_m/mpu/libarch__arm__core__cortex_m__mpu.a(arm_core_mpu.c.obj)
                0x0002fa74                z_arm_configure_dynamic_mpu_regions
 .text.mpu_configure_region
                0x0002fa88       0x50 zephyr/arch/arch/arm/core/cortex_m/mpu/libarch__arm__core__cortex_m__mpu.a(arm_mpu.c.obj)
 .text.arm_mpu_init
                0x0002fad8       0x68 zephyr/arch/arch/arm/core/cortex_m/mpu/libarch__arm__core__cortex_m__mpu.a(arm_mpu.c.obj)
 .text.arm_core_mpu_configure_static_mpu_regions
                0x0002fb40       0x64 zephyr/arch/arch/arm/core/cortex_m/mpu/libarch__arm__core__cortex_m__mpu.a(arm_mpu.c.obj)
                0x0002fb40                arm_core_mpu_configure_static_mpu_regions
 .text.arm_core_mpu_configure_dynamic_mpu_regions
                0x0002fba4       0x64 zephyr/arch/arch/arm/core/cortex_m/mpu/libarch__arm__core__cortex_m__mpu.a(arm_mpu.c.obj)
                0x0002fba4                arm_core_mpu_configure_dynamic_mpu_regions
 .text.strtol   0x0002fc08      0x110 zephyr/lib/libc/minimal/liblib__libc__minimal.a(strtol.c.obj)
                0x0002fc08                strtol
 .text.strcpy   0x0002fd18       0x18 zephyr/lib/libc/minimal/liblib__libc__minimal.a(string.c.obj)
                0x0002fd18                strcpy
 .text.strchr   0x0002fd30       0x1c zephyr/lib/libc/minimal/liblib__libc__minimal.a(string.c.obj)
                0x0002fd30                strchr
 .text.strlen   0x0002fd4c       0x14 zephyr/lib/libc/minimal/liblib__libc__minimal.a(string.c.obj)
                0x0002fd4c                strlen
 .text.strcmp   0x0002fd60       0x24 zephyr/lib/libc/minimal/liblib__libc__minimal.a(string.c.obj)
                0x0002fd60                strcmp
 .text.strncmp  0x0002fd84       0x38 zephyr/lib/libc/minimal/liblib__libc__minimal.a(string.c.obj)
                0x0002fd84                strncmp
 .text.memcmp   0x0002fdbc       0x2c zephyr/lib/libc/minimal/liblib__libc__minimal.a(string.c.obj)
                0x0002fdbc                memcmp
 .text.memcpy   0x0002fde8       0x68 zephyr/lib/libc/minimal/liblib__libc__minimal.a(string.c.obj)
                0x0002fde8                memcpy
 .text.memset   0x0002fe50       0x58 zephyr/lib/libc/minimal/liblib__libc__minimal.a(string.c.obj)
                0x0002fe50                memset
 .text.memchr   0x0002fea8       0x28 zephyr/lib/libc/minimal/liblib__libc__minimal.a(string.c.obj)
                0x0002fea8                memchr
 .text._to_x    0x0002fed0       0x4c zephyr/lib/libc/minimal/liblib__libc__minimal.a(prf.c.obj)
 .text.z_prf    0x0002ff1c     0x110c zephyr/lib/libc/minimal/liblib__libc__minimal.a(prf.c.obj)
                0x0002ff1c                z_prf
 .text.sprintf_out
                0x00031028       0x1c zephyr/lib/libc/minimal/liblib__libc__minimal.a(sprintf.c.obj)
 .text.snprintf
                0x00031044       0x38 zephyr/lib/libc/minimal/liblib__libc__minimal.a(sprintf.c.obj)
                0x00031044                snprintf
 .text.nordicsemi_nrf52_init
                0x0003107c       0x30 zephyr/soc/arm/nordic_nrf/nrf52/libsoc__arm__nordic_nrf__nrf52.a(soc.c.obj)
 .text.sys_arch_reboot
                0x000310ac       0x2c zephyr/soc/arm/nordic_nrf/nrf52/libsoc__arm__nordic_nrf__nrf52.a(soc.c.obj)
                0x000310ac                sys_arch_reboot
 .text.arch_busy_wait
                0x000310d8       0x14 zephyr/soc/arm/nordic_nrf/nrf52/libsoc__arm__nordic_nrf__nrf52.a(soc.c.obj)
                0x000310d8                arch_busy_wait
 .text.z_platform_init
                0x000310ec        0x4 zephyr/soc/arm/nordic_nrf/nrf52/libsoc__arm__nordic_nrf__nrf52.a(soc.c.obj)
                0x000310ec                z_platform_init
 .text.sys_set_power_state
                0x000310f0       0x18 zephyr/soc/arm/nordic_nrf/nrf52/libsoc__arm__nordic_nrf__nrf52.a(power.c.obj)
                0x000310f0                sys_set_power_state
 .text._sys_pm_power_state_exit_post_ops
                0x00031108        0xc zephyr/soc/arm/nordic_nrf/nrf52/libsoc__arm__nordic_nrf__nrf52.a(power.c.obj)
                0x00031108                _sys_pm_power_state_exit_post_ops
 .text.bt_rpa_irk_matches
                0x00031114       0x50 zephyr/subsys/bluetooth/common/libsubsys__bluetooth__common.a(rpa.c.obj)
                0x00031114                bt_rpa_irk_matches
 .text.send_cmd_status
                0x00031164       0x4c zephyr/subsys/bluetooth/host/libsubsys__bluetooth__host.a(hci_ecc.c.obj)
 .text.ecc_thread
                0x000311b0      0x214 zephyr/subsys/bluetooth/host/libsubsys__bluetooth__host.a(hci_ecc.c.obj)
 .text.bt_hci_ecc_send
                0x000313c4      0x140 zephyr/subsys/bluetooth/host/libsubsys__bluetooth__host.a(hci_ecc.c.obj)
                0x000313c4                bt_hci_ecc_send
 .text.default_CSPRNG
                0x00031504       0x10 zephyr/subsys/bluetooth/host/libsubsys__bluetooth__host.a(hci_ecc.c.obj)
                0x00031504                default_CSPRNG
 .text.bt_hci_ecc_init
                0x00031514       0x44 zephyr/subsys/bluetooth/host/libsubsys__bluetooth__host.a(hci_ecc.c.obj)
                0x00031514                bt_hci_ecc_init
 .text.save_id  0x00031558       0x18 zephyr/subsys/bluetooth/host/libsubsys__bluetooth__host.a(settings.c.obj)
 .text.set      0x00031570       0x84 zephyr/subsys/bluetooth/host/libsubsys__bluetooth__host.a(settings.c.obj)
 .text.commit   0x000315f4       0x7c zephyr/subsys/bluetooth/host/libsubsys__bluetooth__host.a(settings.c.obj)
 .text.bt_settings_encode_key
                0x00031670       0x60 zephyr/subsys/bluetooth/host/libsubsys__bluetooth__host.a(settings.c.obj)
                0x00031670                bt_settings_encode_key
 .text.bt_settings_decode_key
                0x000316d0       0x4c zephyr/subsys/bluetooth/host/libsubsys__bluetooth__host.a(settings.c.obj)
                0x000316d0                bt_settings_decode_key
 .text.bt_settings_save_id
                0x0003171c       0x30 zephyr/subsys/bluetooth/host/libsubsys__bluetooth__host.a(settings.c.obj)
                0x0003171c                bt_settings_save_id
 .text.bt_settings_init
                0x0003174c        0x4 zephyr/subsys/bluetooth/host/libsubsys__bluetooth__host.a(settings.c.obj)
                0x0003174c                bt_settings_init
 .text.uuid_to_uuid128
                0x00031750       0x5c zephyr/subsys/bluetooth/host/libsubsys__bluetooth__host.a(uuid.c.obj)
 .text.bt_uuid_cmp
                0x000317ac       0x64 zephyr/subsys/bluetooth/host/libsubsys__bluetooth__host.a(uuid.c.obj)
                0x000317ac                bt_uuid_cmp
 .text.bt_uuid_create
                0x00031810       0x54 zephyr/subsys/bluetooth/host/libsubsys__bluetooth__host.a(uuid.c.obj)
                0x00031810                bt_uuid_create
 .text.hci_data_buf_overflow
                0x00031864        0x4 zephyr/subsys/bluetooth/host/libsubsys__bluetooth__host.a(hci_core.c.obj)
 .text.le_dhkey_complete
                0x00031868       0x20 zephyr/subsys/bluetooth/host/libsubsys__bluetooth__host.a(hci_core.c.obj)
 .text.id_find  0x00031888       0x40 zephyr/subsys/bluetooth/host/libsubsys__bluetooth__host.a(hci_core.c.obj)
 .text.le_pkey_complete
                0x000318c8       0x74 zephyr/subsys/bluetooth/host/libsubsys__bluetooth__host.a(hci_core.c.obj)
 .text.hci_le_meta_event
                0x0003193c       0x48 zephyr/subsys/bluetooth/host/libsubsys__bluetooth__host.a(hci_core.c.obj)
 .text.le_phy_update_complete
                0x00031984       0x18 zephyr/subsys/bluetooth/host/libsubsys__bluetooth__host.a(hci_core.c.obj)
 .text.hci_num_completed_packets
                0x0003199c       0xd0 zephyr/subsys/bluetooth/host/libsubsys__bluetooth__host.a(hci_core.c.obj)
 .text.le_conn_update_complete
                0x00031a6c       0x9c zephyr/subsys/bluetooth/host/libsubsys__bluetooth__host.a(hci_core.c.obj)
 .text.hci_rx_thread
                0x00031b08      0x12c zephyr/subsys/bluetooth/host/libsubsys__bluetooth__host.a(hci_core.c.obj)
 .text.update_sec_level.part.17
                0x00031c34       0x38 zephyr/subsys/bluetooth/host/libsubsys__bluetooth__host.a(hci_core.c.obj)
 .text.hci_encrypt_key_refresh_complete
                0x00031c6c       0x7c zephyr/subsys/bluetooth/host/libsubsys__bluetooth__host.a(hci_core.c.obj)
 .text.hci_encrypt_change
                0x00031ce8       0x88 zephyr/subsys/bluetooth/host/libsubsys__bluetooth__host.a(hci_core.c.obj)
 .text.find_pending_connect
                0x00031d70       0x1c zephyr/subsys/bluetooth/host/libsubsys__bluetooth__host.a(hci_core.c.obj)
 .text.hci_cmd_done.isra.19
                0x00031d8c       0x28 zephyr/subsys/bluetooth/host/libsubsys__bluetooth__host.a(hci_core.c.obj)
 .text.hci_cmd_status
                0x00031db4       0x28 zephyr/subsys/bluetooth/host/libsubsys__bluetooth__host.a(hci_core.c.obj)
 .text.hci_cmd_complete
                0x00031ddc       0x2c zephyr/subsys/bluetooth/host/libsubsys__bluetooth__host.a(hci_core.c.obj)
 .text.slave_update_conn_param
                0x00031e08       0x24 zephyr/subsys/bluetooth/host/libsubsys__bluetooth__host.a(hci_core.c.obj)
 .text.le_remote_feat_complete
                0x00031e2c       0x48 zephyr/subsys/bluetooth/host/libsubsys__bluetooth__host.a(hci_core.c.obj)
 .text.id_create.isra.30
                0x00031e74       0x8c zephyr/subsys/bluetooth/host/libsubsys__bluetooth__host.a(hci_core.c.obj)
 .text.hci_tx_thread
                0x00031f00      0x124 zephyr/subsys/bluetooth/host/libsubsys__bluetooth__host.a(hci_core.c.obj)
 .text.hci_vendor_event
                0x00032024        0x4 zephyr/subsys/bluetooth/host/libsubsys__bluetooth__host.a(hci_core.c.obj)
 .text.bt_hci_cmd_create
                0x00032028       0x3c zephyr/subsys/bluetooth/host/libsubsys__bluetooth__host.a(hci_core.c.obj)
                0x00032028                bt_hci_cmd_create
 .text.bt_hci_cmd_send
                0x00032064       0x48 zephyr/subsys/bluetooth/host/libsubsys__bluetooth__host.a(hci_core.c.obj)
                0x00032064                bt_hci_cmd_send
 .text.le_ltk_request
                0x000320ac       0x8c zephyr/subsys/bluetooth/host/libsubsys__bluetooth__host.a(hci_core.c.obj)
 .text.le_conn_param_neg_reply
                0x00032138       0x30 zephyr/subsys/bluetooth/host/libsubsys__bluetooth__host.a(hci_core.c.obj)
 .text.le_conn_param_req
                0x00032168       0xb4 zephyr/subsys/bluetooth/host/libsubsys__bluetooth__host.a(hci_core.c.obj)
 .text.bt_hci_cmd_send_sync
                0x0003221c       0x74 zephyr/subsys/bluetooth/host/libsubsys__bluetooth__host.a(hci_core.c.obj)
                0x0003221c                bt_hci_cmd_send_sync
 .text.bt_init  0x00032290      0x44c zephyr/subsys/bluetooth/host/libsubsys__bluetooth__host.a(hci_core.c.obj)
 .text.init_work
                0x000326dc       0x18 zephyr/subsys/bluetooth/host/libsubsys__bluetooth__host.a(hci_core.c.obj)
 .text.hci_id_add
                0x000326f4       0x54 zephyr/subsys/bluetooth/host/libsubsys__bluetooth__host.a(hci_core.c.obj)
 .text.keys_add_id
                0x00032748        0xc zephyr/subsys/bluetooth/host/libsubsys__bluetooth__host.a(hci_core.c.obj)
 .text.addr_res_enable
                0x00032754       0x30 zephyr/subsys/bluetooth/host/libsubsys__bluetooth__host.a(hci_core.c.obj)
 .text.set_advertise_enable
                0x00032784       0x80 zephyr/subsys/bluetooth/host/libsubsys__bluetooth__host.a(hci_core.c.obj)
 .text.hci_disconn_complete
                0x00032804       0x68 zephyr/subsys/bluetooth/host/libsubsys__bluetooth__host.a(hci_core.c.obj)
 .text.enh_conn_complete
                0x0003286c      0x1e4 zephyr/subsys/bluetooth/host/libsubsys__bluetooth__host.a(hci_core.c.obj)
 .text.le_enh_conn_complete
                0x00032a50        0x8 zephyr/subsys/bluetooth/host/libsubsys__bluetooth__host.a(hci_core.c.obj)
 .text.le_legacy_conn_complete
                0x00032a58       0xcc zephyr/subsys/bluetooth/host/libsubsys__bluetooth__host.a(hci_core.c.obj)
 .text.set_random_address
                0x00032b24       0x64 zephyr/subsys/bluetooth/host/libsubsys__bluetooth__host.a(hci_core.c.obj)
 .text.le_set_private_addr.isra.25
                0x00032b88       0x28 zephyr/subsys/bluetooth/host/libsubsys__bluetooth__host.a(hci_core.c.obj)
 .text.set_ad   0x00032bb0       0xc4 zephyr/subsys/bluetooth/host/libsubsys__bluetooth__host.a(hci_core.c.obj)
 .text.le_adv_update
                0x00032c74       0x94 zephyr/subsys/bluetooth/host/libsubsys__bluetooth__host.a(hci_core.c.obj)
 .text.bt_le_conn_params_valid
                0x00032d08       0x48 zephyr/subsys/bluetooth/host/libsubsys__bluetooth__host.a(hci_core.c.obj)
                0x00032d08                bt_le_conn_params_valid
 .text.bt_unpair
                0x00032d50       0x9c zephyr/subsys/bluetooth/host/libsubsys__bluetooth__host.a(hci_core.c.obj)
                0x00032d50                bt_unpair
 .text.bt_id_add
                0x00032dec      0x118 zephyr/subsys/bluetooth/host/libsubsys__bluetooth__host.a(hci_core.c.obj)
                0x00032dec                bt_id_add
 .text.bt_id_del
                0x00032f04      0x110 zephyr/subsys/bluetooth/host/libsubsys__bluetooth__host.a(hci_core.c.obj)
                0x00032f04                bt_id_del
 .text.update_pending_id
                0x00033014       0x20 zephyr/subsys/bluetooth/host/libsubsys__bluetooth__host.a(hci_core.c.obj)
 .text.bt_send  0x00033034        0x4 zephyr/subsys/bluetooth/host/libsubsys__bluetooth__host.a(hci_core.c.obj)
                0x00033034                bt_send
 .text.bt_recv  0x00033038       0x28 zephyr/subsys/bluetooth/host/libsubsys__bluetooth__host.a(hci_core.c.obj)
                0x00033038                bt_recv
 .text.bt_recv_prio
                0x00033060       0xc8 zephyr/subsys/bluetooth/host/libsubsys__bluetooth__host.a(hci_core.c.obj)
                0x00033060                bt_recv_prio
 .text.bt_hci_driver_register
                0x00033128       0x28 zephyr/subsys/bluetooth/host/libsubsys__bluetooth__host.a(hci_core.c.obj)
                0x00033128                bt_hci_driver_register
 .text.bt_finalize_init
                0x00033150       0x20 zephyr/subsys/bluetooth/host/libsubsys__bluetooth__host.a(hci_core.c.obj)
                0x00033150                bt_finalize_init
 .text.bt_enable
                0x00033170      0x110 zephyr/subsys/bluetooth/host/libsubsys__bluetooth__host.a(hci_core.c.obj)
                0x00033170                bt_enable
 .text.bt_get_name
                0x00033280        0x8 zephyr/subsys/bluetooth/host/libsubsys__bluetooth__host.a(hci_core.c.obj)
                0x00033280                bt_get_name
 .text.bt_id_get
                0x00033288       0x24 zephyr/subsys/bluetooth/host/libsubsys__bluetooth__host.a(hci_core.c.obj)
                0x00033288                bt_id_get
 .text.bt_id_create
                0x000332ac       0x9c zephyr/subsys/bluetooth/host/libsubsys__bluetooth__host.a(hci_core.c.obj)
                0x000332ac                bt_id_create
 .text.bt_id_reset
                0x00033348       0xb8 zephyr/subsys/bluetooth/host/libsubsys__bluetooth__host.a(hci_core.c.obj)
                0x00033348                bt_id_reset
 .text.bt_setup_id_addr
                0x00033400       0x50 zephyr/subsys/bluetooth/host/libsubsys__bluetooth__host.a(hci_core.c.obj)
                0x00033400                bt_setup_id_addr
 .text.bt_addr_le_is_bonded
                0x00033450       0x14 zephyr/subsys/bluetooth/host/libsubsys__bluetooth__host.a(hci_core.c.obj)
                0x00033450                bt_addr_le_is_bonded
 .text.bt_le_adv_update_data
                0x00033464       0x4c zephyr/subsys/bluetooth/host/libsubsys__bluetooth__host.a(hci_core.c.obj)
                0x00033464                bt_le_adv_update_data
 .text.bt_le_adv_start_internal
                0x000334b0      0x30c zephyr/subsys/bluetooth/host/libsubsys__bluetooth__host.a(hci_core.c.obj)
                0x000334b0                bt_le_adv_start_internal
 .text.bt_le_adv_start
                0x000337bc       0x20 zephyr/subsys/bluetooth/host/libsubsys__bluetooth__host.a(hci_core.c.obj)
                0x000337bc                bt_le_adv_start
 .text.bt_le_adv_stop
                0x000337dc       0x6c zephyr/subsys/bluetooth/host/libsubsys__bluetooth__host.a(hci_core.c.obj)
                0x000337dc                bt_le_adv_stop
 .text.bt_le_whitelist_add
                0x00033848       0x5c zephyr/subsys/bluetooth/host/libsubsys__bluetooth__host.a(hci_core.c.obj)
                0x00033848                bt_le_whitelist_add
 .text.bt_le_whitelist_clear
                0x000338a4       0x1c zephyr/subsys/bluetooth/host/libsubsys__bluetooth__host.a(hci_core.c.obj)
                0x000338a4                bt_le_whitelist_clear
 .text.bt_buf_get_rx
                0x000338c0       0x20 zephyr/subsys/bluetooth/host/libsubsys__bluetooth__host.a(hci_core.c.obj)
                0x000338c0                bt_buf_get_rx
 .text.bt_buf_get_cmd_complete
                0x000338e0       0x4c zephyr/subsys/bluetooth/host/libsubsys__bluetooth__host.a(hci_core.c.obj)
                0x000338e0                bt_buf_get_cmd_complete
 .text.bt_buf_get_evt
                0x0003392c       0x5c zephyr/subsys/bluetooth/host/libsubsys__bluetooth__host.a(hci_core.c.obj)
                0x0003392c                bt_buf_get_evt
 .text.bt_pub_key_gen
                0x00033988       0x90 zephyr/subsys/bluetooth/host/libsubsys__bluetooth__host.a(hci_core.c.obj)
                0x00033988                bt_pub_key_gen
 .text.bt_pub_key_get
                0x00033a18       0x24 zephyr/subsys/bluetooth/host/libsubsys__bluetooth__host.a(hci_core.c.obj)
                0x00033a18                bt_pub_key_get
 .text.bt_dh_key_gen
                0x00033a3c       0x80 zephyr/subsys/bluetooth/host/libsubsys__bluetooth__host.a(hci_core.c.obj)
                0x00033a3c                bt_dh_key_gen
 .text.notify_connected
                0x00033abc       0x30 zephyr/subsys/bluetooth/host/libsubsys__bluetooth__host.a(conn.c.obj)
 .text.tx_free  0x00033aec       0x34 zephyr/subsys/bluetooth/host/libsubsys__bluetooth__host.a(conn.c.obj)
 .text.tx_notify_cb
                0x00033b20       0x48 zephyr/subsys/bluetooth/host/libsubsys__bluetooth__host.a(conn.c.obj)
 .text.bt_conn_get_pkts
                0x00033b68        0x8 zephyr/subsys/bluetooth/host/libsubsys__bluetooth__host.a(conn.c.obj)
                0x00033b68                bt_conn_get_pkts
 .text.notify_le_param_updated
                0x00033b70       0x70 zephyr/subsys/bluetooth/host/libsubsys__bluetooth__host.a(conn.c.obj)
                0x00033b70                notify_le_param_updated
 .text.le_param_req
                0x00033be0       0x40 zephyr/subsys/bluetooth/host/libsubsys__bluetooth__host.a(conn.c.obj)
                0x00033be0                le_param_req
 .text.bt_conn_identity_resolved
                0x00033c20       0x34 zephyr/subsys/bluetooth/host/libsubsys__bluetooth__host.a(conn.c.obj)
                0x00033c20                bt_conn_identity_resolved
 .text.bt_conn_security_changed
                0x00033c54       0x24 zephyr/subsys/bluetooth/host/libsubsys__bluetooth__host.a(conn.c.obj)
                0x00033c54                bt_conn_security_changed
 .text.bt_conn_set_security
                0x00033c78       0x64 zephyr/subsys/bluetooth/host/libsubsys__bluetooth__host.a(conn.c.obj)
                0x00033c78                bt_conn_set_security
 .text.bt_conn_get_security
                0x00033cdc        0x4 zephyr/subsys/bluetooth/host/libsubsys__bluetooth__host.a(conn.c.obj)
                0x00033cdc                bt_conn_get_security
 .text.bt_conn_cb_register
                0x00033ce0       0x10 zephyr/subsys/bluetooth/host/libsubsys__bluetooth__host.a(conn.c.obj)
                0x00033ce0                bt_conn_cb_register
 .text.bt_conn_recv
                0x00033cf0       0xc8 zephyr/subsys/bluetooth/host/libsubsys__bluetooth__host.a(conn.c.obj)
                0x00033cf0                bt_conn_recv
 .text.bt_conn_send_cb
                0x00033db8       0x24 zephyr/subsys/bluetooth/host/libsubsys__bluetooth__host.a(conn.c.obj)
                0x00033db8                bt_conn_send_cb
 .text.bt_conn_notify_tx
                0x00033ddc       0xa0 zephyr/subsys/bluetooth/host/libsubsys__bluetooth__host.a(conn.c.obj)
                0x00033ddc                bt_conn_notify_tx
 .text.conn_cleanup
                0x00033e7c       0x44 zephyr/subsys/bluetooth/host/libsubsys__bluetooth__host.a(conn.c.obj)
 .text.send_frag
                0x00033ec0      0x148 zephyr/subsys/bluetooth/host/libsubsys__bluetooth__host.a(conn.c.obj)
 .text.bt_conn_prepare_events
                0x00034008       0x94 zephyr/subsys/bluetooth/host/libsubsys__bluetooth__host.a(conn.c.obj)
                0x00034008                bt_conn_prepare_events
 .text.bt_conn_add_le
                0x0003409c       0x70 zephyr/subsys/bluetooth/host/libsubsys__bluetooth__host.a(conn.c.obj)
                0x0003409c                bt_conn_add_le
 .text.bt_conn_set_state
                0x0003410c      0x158 zephyr/subsys/bluetooth/host/libsubsys__bluetooth__host.a(conn.c.obj)
                0x0003410c                bt_conn_set_state
 .text.bt_conn_lookup_handle
                0x00034264       0x48 zephyr/subsys/bluetooth/host/libsubsys__bluetooth__host.a(conn.c.obj)
                0x00034264                bt_conn_lookup_handle
 .text.bt_conn_addr_le_cmp
                0x000342ac       0x3c zephyr/subsys/bluetooth/host/libsubsys__bluetooth__host.a(conn.c.obj)
                0x000342ac                bt_conn_addr_le_cmp
 .text.bt_conn_lookup_addr_le
                0x000342e8       0x4c zephyr/subsys/bluetooth/host/libsubsys__bluetooth__host.a(conn.c.obj)
                0x000342e8                bt_conn_lookup_addr_le
 .text.bt_conn_lookup_state_le
                0x00034334       0x54 zephyr/subsys/bluetooth/host/libsubsys__bluetooth__host.a(conn.c.obj)
                0x00034334                bt_conn_lookup_state_le
 .text.bt_conn_foreach
                0x00034388       0x2c zephyr/subsys/bluetooth/host/libsubsys__bluetooth__host.a(conn.c.obj)
                0x00034388                bt_conn_foreach
 .text.bt_conn_disconnect_all
                0x000343b4       0x1c zephyr/subsys/bluetooth/host/libsubsys__bluetooth__host.a(conn.c.obj)
                0x000343b4                bt_conn_disconnect_all
 .text.bt_conn_ref
                0x000343d0       0x1c zephyr/subsys/bluetooth/host/libsubsys__bluetooth__host.a(conn.c.obj)
                0x000343d0                bt_conn_ref
 .text.bt_conn_unref
                0x000343ec       0x1c zephyr/subsys/bluetooth/host/libsubsys__bluetooth__host.a(conn.c.obj)
                0x000343ec                bt_conn_unref
 .text.bt_conn_get_dst
                0x00034408        0x4 zephyr/subsys/bluetooth/host/libsubsys__bluetooth__host.a(conn.c.obj)
                0x00034408                bt_conn_get_dst
 .text.bt_conn_get_info
                0x0003440c       0x58 zephyr/subsys/bluetooth/host/libsubsys__bluetooth__host.a(conn.c.obj)
                0x0003440c                bt_conn_get_info
 .text.bt_conn_disconnect
                0x00034464       0x80 zephyr/subsys/bluetooth/host/libsubsys__bluetooth__host.a(conn.c.obj)
                0x00034464                bt_conn_disconnect
 .text.disconnect_all
                0x000344e4       0x18 zephyr/subsys/bluetooth/host/libsubsys__bluetooth__host.a(conn.c.obj)
 .text.bt_conn_le_conn_update
                0x000344fc       0x50 zephyr/subsys/bluetooth/host/libsubsys__bluetooth__host.a(conn.c.obj)
                0x000344fc                bt_conn_le_conn_update
 .text.send_conn_le_param_update
                0x0003454c       0x4c zephyr/subsys/bluetooth/host/libsubsys__bluetooth__host.a(conn.c.obj)
 .text.conn_update_timeout
                0x00034598       0xd0 zephyr/subsys/bluetooth/host/libsubsys__bluetooth__host.a(conn.c.obj)
 .text.bt_conn_le_param_update
                0x00034668       0x94 zephyr/subsys/bluetooth/host/libsubsys__bluetooth__host.a(conn.c.obj)
                0x00034668                bt_conn_le_param_update
 .text.bt_conn_create_pdu_timeout
                0x000346fc       0x60 zephyr/subsys/bluetooth/host/libsubsys__bluetooth__host.a(conn.c.obj)
                0x000346fc                bt_conn_create_pdu_timeout
 .text.create_frag.isra.12
                0x0003475c       0x74 zephyr/subsys/bluetooth/host/libsubsys__bluetooth__host.a(conn.c.obj)
 .text.bt_conn_process_tx
                0x000347d0       0xd0 zephyr/subsys/bluetooth/host/libsubsys__bluetooth__host.a(conn.c.obj)
                0x000347d0                bt_conn_process_tx
 .text.bt_conn_index
                0x000348a0       0x18 zephyr/subsys/bluetooth/host/libsubsys__bluetooth__host.a(conn.c.obj)
                0x000348a0                bt_conn_index
 .text.bt_conn_init
                0x000348b8       0x44 zephyr/subsys/bluetooth/host/libsubsys__bluetooth__host.a(conn.c.obj)
                0x000348b8                bt_conn_init
 .text.l2cap_connected
                0x000348fc        0x4 zephyr/subsys/bluetooth/host/libsubsys__bluetooth__host.a(l2cap.c.obj)
 .text.l2cap_accept
                0x00034900       0x1c zephyr/subsys/bluetooth/host/libsubsys__bluetooth__host.a(l2cap.c.obj)
 .text.l2cap_rx_process
                0x0003491c       0x30 zephyr/subsys/bluetooth/host/libsubsys__bluetooth__host.a(l2cap.c.obj)
 .text.l2cap_create_le_sig_pdu.isra.5
                0x0003494c       0x2c zephyr/subsys/bluetooth/host/libsubsys__bluetooth__host.a(l2cap.c.obj)
 .text.l2cap_disconnected
                0x00034978        0x4 zephyr/subsys/bluetooth/host/libsubsys__bluetooth__host.a(l2cap.c.obj)
 .text.bt_l2cap_chan_remove
                0x0003497c       0x54 zephyr/subsys/bluetooth/host/libsubsys__bluetooth__host.a(l2cap.c.obj)
                0x0003497c                bt_l2cap_chan_remove
 .text.bt_l2cap_chan_del
                0x000349d0       0x38 zephyr/subsys/bluetooth/host/libsubsys__bluetooth__host.a(l2cap.c.obj)
                0x000349d0                bt_l2cap_chan_del
 .text.l2cap_rtx_timeout
                0x00034a08       0x1c zephyr/subsys/bluetooth/host/libsubsys__bluetooth__host.a(l2cap.c.obj)
 .text.bt_l2cap_connected
                0x00034a24       0xd0 zephyr/subsys/bluetooth/host/libsubsys__bluetooth__host.a(l2cap.c.obj)
                0x00034a24                bt_l2cap_connected
 .text.bt_l2cap_disconnected
                0x00034af4       0x34 zephyr/subsys/bluetooth/host/libsubsys__bluetooth__host.a(l2cap.c.obj)
                0x00034af4                bt_l2cap_disconnected
 .text.bt_l2cap_encrypt_change
                0x00034b28       0x20 zephyr/subsys/bluetooth/host/libsubsys__bluetooth__host.a(l2cap.c.obj)
                0x00034b28                bt_l2cap_encrypt_change
 .text.bt_l2cap_create_pdu_timeout
                0x00034b48        0x8 zephyr/subsys/bluetooth/host/libsubsys__bluetooth__host.a(l2cap.c.obj)
                0x00034b48                bt_l2cap_create_pdu_timeout
 .text.bt_l2cap_send_cb
                0x00034b50       0x38 zephyr/subsys/bluetooth/host/libsubsys__bluetooth__host.a(l2cap.c.obj)
                0x00034b50                bt_l2cap_send_cb
 .text.l2cap_recv
                0x00034b88       0x6c zephyr/subsys/bluetooth/host/libsubsys__bluetooth__host.a(l2cap.c.obj)
 .text.bt_l2cap_le_lookup_tx_cid
                0x00034bf4       0x28 zephyr/subsys/bluetooth/host/libsubsys__bluetooth__host.a(l2cap.c.obj)
                0x00034bf4                bt_l2cap_le_lookup_tx_cid
 .text.bt_l2cap_le_lookup_rx_cid
                0x00034c1c       0x28 zephyr/subsys/bluetooth/host/libsubsys__bluetooth__host.a(l2cap.c.obj)
                0x00034c1c                bt_l2cap_le_lookup_rx_cid
 .text.bt_l2cap_recv
                0x00034c44       0x88 zephyr/subsys/bluetooth/host/libsubsys__bluetooth__host.a(l2cap.c.obj)
                0x00034c44                bt_l2cap_recv
 .text.bt_l2cap_update_conn_param
                0x00034ccc       0x60 zephyr/subsys/bluetooth/host/libsubsys__bluetooth__host.a(l2cap.c.obj)
                0x00034ccc                bt_l2cap_update_conn_param
 .text.bt_l2cap_init
                0x00034d2c        0x4 zephyr/subsys/bluetooth/host/libsubsys__bluetooth__host.a(l2cap.c.obj)
                0x00034d2c                bt_l2cap_init
 .text.att_prepare_write_req
                0x00034d30        0x4 zephyr/subsys/bluetooth/host/libsubsys__bluetooth__host.a(att.c.obj)
 .text.att_op_get_type
                0x00034d34      0x100 zephyr/subsys/bluetooth/host/libsubsys__bluetooth__host.a(att.c.obj)
 .text.att_send
                0x00034e34       0x58 zephyr/subsys/bluetooth/host/libsubsys__bluetooth__host.a(att.c.obj)
 .text.att_pdu_sent
                0x00034e8c       0x70 zephyr/subsys/bluetooth/host/libsubsys__bluetooth__host.a(att.c.obj)
                0x00034e8c                att_pdu_sent
 .text.att_cfm_sent
                0x00034efc       0x34 zephyr/subsys/bluetooth/host/libsubsys__bluetooth__host.a(att.c.obj)
                0x00034efc                att_cfm_sent
 .text.att_rsp_sent
                0x00034f30       0x34 zephyr/subsys/bluetooth/host/libsubsys__bluetooth__host.a(att.c.obj)
                0x00034f30                att_rsp_sent
 .text.att_req_sent
                0x00034f64       0x30 zephyr/subsys/bluetooth/host/libsubsys__bluetooth__host.a(att.c.obj)
                0x00034f64                att_req_sent
 .text.att_chan_get
                0x00034f94       0x28 zephyr/subsys/bluetooth/host/libsubsys__bluetooth__host.a(att.c.obj)
 .text.att_req_destroy
                0x00034fbc       0x24 zephyr/subsys/bluetooth/host/libsubsys__bluetooth__host.a(att.c.obj)
 .text.read_cb  0x00034fe0       0x88 zephyr/subsys/bluetooth/host/libsubsys__bluetooth__host.a(att.c.obj)
 .text.read_group_cb
                0x00035068       0xec zephyr/subsys/bluetooth/host/libsubsys__bluetooth__host.a(att.c.obj)
 .text.read_type_cb
                0x00035154       0xc8 zephyr/subsys/bluetooth/host/libsubsys__bluetooth__host.a(att.c.obj)
 .text.find_type_cb
                0x0003521c       0xdc zephyr/subsys/bluetooth/host/libsubsys__bluetooth__host.a(att.c.obj)
 .text.find_info_cb
                0x000352f8       0xac zephyr/subsys/bluetooth/host/libsubsys__bluetooth__host.a(att.c.obj)
 .text.bt_att_connected
                0x000353a4       0x2c zephyr/subsys/bluetooth/host/libsubsys__bluetooth__host.a(att.c.obj)
 .text.bt_att_accept
                0x000353d0       0x3c zephyr/subsys/bluetooth/host/libsubsys__bluetooth__host.a(att.c.obj)
 .text.write_cb
                0x0003540c       0x64 zephyr/subsys/bluetooth/host/libsubsys__bluetooth__host.a(att.c.obj)
 .text.att_send_req
                0x00035470       0x78 zephyr/subsys/bluetooth/host/libsubsys__bluetooth__host.a(att.c.obj)
 .text.att_handle_rsp
                0x000354e8       0x88 zephyr/subsys/bluetooth/host/libsubsys__bluetooth__host.a(att.c.obj)
 .text.att_confirm
                0x00035570        0xc zephyr/subsys/bluetooth/host/libsubsys__bluetooth__host.a(att.c.obj)
 .text.bt_att_encrypt_change
                0x0003557c       0xa0 zephyr/subsys/bluetooth/host/libsubsys__bluetooth__host.a(att.c.obj)
 .text.att_reset
                0x0003561c       0x90 zephyr/subsys/bluetooth/host/libsubsys__bluetooth__host.a(att.c.obj)
 .text.bt_att_disconnected
                0x000356ac       0x14 zephyr/subsys/bluetooth/host/libsubsys__bluetooth__host.a(att.c.obj)
 .text.att_timeout
                0x000356c0       0x1c zephyr/subsys/bluetooth/host/libsubsys__bluetooth__host.a(att.c.obj)
 .text.att_exec_write_req
                0x000356dc        0x4 zephyr/subsys/bluetooth/host/libsubsys__bluetooth__host.a(att.c.obj)
 .text.bt_att_create_pdu
                0x000356e0       0x5c zephyr/subsys/bluetooth/host/libsubsys__bluetooth__host.a(att.c.obj)
                0x000356e0                bt_att_create_pdu
 .text.att_mtu_req
                0x0003573c       0x6c zephyr/subsys/bluetooth/host/libsubsys__bluetooth__host.a(att.c.obj)
 .text.send_err_rsp.part.8
                0x000357a8       0x48 zephyr/subsys/bluetooth/host/libsubsys__bluetooth__host.a(att.c.obj)
 .text.bt_att_recv
                0x000357f0       0xf8 zephyr/subsys/bluetooth/host/libsubsys__bluetooth__host.a(att.c.obj)
 .text.att_read_group_req
                0x000358e8      0x128 zephyr/subsys/bluetooth/host/libsubsys__bluetooth__host.a(att.c.obj)
 .text.att_read_mult_req
                0x00035a10       0xa8 zephyr/subsys/bluetooth/host/libsubsys__bluetooth__host.a(att.c.obj)
 .text.att_read_rsp
                0x00035ab8       0xac zephyr/subsys/bluetooth/host/libsubsys__bluetooth__host.a(att.c.obj)
 .text.att_read_blob_req
                0x00035b64       0x1c zephyr/subsys/bluetooth/host/libsubsys__bluetooth__host.a(att.c.obj)
 .text.att_read_req
                0x00035b80       0x1c zephyr/subsys/bluetooth/host/libsubsys__bluetooth__host.a(att.c.obj)
 .text.att_read_type_req
                0x00035b9c       0xe8 zephyr/subsys/bluetooth/host/libsubsys__bluetooth__host.a(att.c.obj)
 .text.att_find_type_req
                0x00035c84      0x108 zephyr/subsys/bluetooth/host/libsubsys__bluetooth__host.a(att.c.obj)
 .text.att_find_info_req
                0x00035d8c       0xac zephyr/subsys/bluetooth/host/libsubsys__bluetooth__host.a(att.c.obj)
 .text.att_write_rsp.constprop.11
                0x00035e38      0x108 zephyr/subsys/bluetooth/host/libsubsys__bluetooth__host.a(att.c.obj)
 .text.att_write_req
                0x00035f40       0x28 zephyr/subsys/bluetooth/host/libsubsys__bluetooth__host.a(att.c.obj)
 .text.att_write_cmd
                0x00035f68       0x28 zephyr/subsys/bluetooth/host/libsubsys__bluetooth__host.a(att.c.obj)
 .text.att_signed_write_cmd
                0x00035f90       0x60 zephyr/subsys/bluetooth/host/libsubsys__bluetooth__host.a(att.c.obj)
 .text.bt_att_init
                0x00035ff0        0x4 zephyr/subsys/bluetooth/host/libsubsys__bluetooth__host.a(att.c.obj)
                0x00035ff0                bt_att_init
 .text.bt_att_send
                0x00035ff4       0x70 zephyr/subsys/bluetooth/host/libsubsys__bluetooth__host.a(att.c.obj)
                0x00035ff4                bt_att_send
 .text.bt_att_req_send
                0x00036064       0x48 zephyr/subsys/bluetooth/host/libsubsys__bluetooth__host.a(att.c.obj)
                0x00036064                bt_att_req_send
 .text.found_attr
                0x000360ac        0x8 zephyr/subsys/bluetooth/host/libsubsys__bluetooth__host.a(gatt.c.obj)
 .text.gatt_indicate_rsp
                0x000360b4       0x10 zephyr/subsys/bluetooth/host/libsubsys__bluetooth__host.a(gatt.c.obj)
 .text.db_hash_set
                0x000360c4       0x18 zephyr/subsys/bluetooth/host/libsubsys__bluetooth__host.a(gatt.c.obj)
 .text.gen_hash_m
                0x000360dc       0xb8 zephyr/subsys/bluetooth/host/libsubsys__bluetooth__host.a(gatt.c.obj)
 .text.find_cf_cfg
                0x00036194       0x44 zephyr/subsys/bluetooth/host/libsubsys__bluetooth__host.a(gatt.c.obj)
 .text.find_sc_cfg
                0x000361d8       0x38 zephyr/subsys/bluetooth/host/libsubsys__bluetooth__host.a(gatt.c.obj)
 .text.find_ccc_cfg
                0x00036210       0x60 zephyr/subsys/bluetooth/host/libsubsys__bluetooth__host.a(gatt.c.obj)
 .text.ccc_find_cfg
                0x00036270       0x44 zephyr/subsys/bluetooth/host/libsubsys__bluetooth__host.a(gatt.c.obj)
 .text.read_ppcp
                0x000362b4       0x3c zephyr/subsys/bluetooth/host/libsubsys__bluetooth__host.a(gatt.c.obj)
 .text.read_appearance
                0x000362f0       0x38 zephyr/subsys/bluetooth/host/libsubsys__bluetooth__host.a(gatt.c.obj)
 .text.read_name
                0x00036328       0x40 zephyr/subsys/bluetooth/host/libsubsys__bluetooth__host.a(gatt.c.obj)
 .text.cf_read  0x00036368       0x4c zephyr/subsys/bluetooth/host/libsubsys__bluetooth__host.a(gatt.c.obj)
 .text.bt_gatt_attr_read_service
                0x000363b4       0x64 zephyr/subsys/bluetooth/host/libsubsys__bluetooth__host.a(gatt.c.obj)
                0x000363b4                bt_gatt_attr_read_service
 .text.bt_gatt_attr_read_ccc
                0x00036418       0x48 zephyr/subsys/bluetooth/host/libsubsys__bluetooth__host.a(gatt.c.obj)
                0x00036418                bt_gatt_attr_read_ccc
 .text.sc_restore_rsp
                0x00036460       0x2c zephyr/subsys/bluetooth/host/libsubsys__bluetooth__host.a(gatt.c.obj)
 .text.sc_store
                0x0003648c       0x44 zephyr/subsys/bluetooth/host/libsubsys__bluetooth__host.a(gatt.c.obj)
 .text.sc_save  0x000364d0       0x6c zephyr/subsys/bluetooth/host/libsubsys__bluetooth__host.a(gatt.c.obj)
 .text.sc_clear
                0x0003653c       0x58 zephyr/subsys/bluetooth/host/libsubsys__bluetooth__host.a(gatt.c.obj)
 .text.sc_indicate_rsp
                0x00036594       0x70 zephyr/subsys/bluetooth/host/libsubsys__bluetooth__host.a(gatt.c.obj)
 .text.db_changed
                0x00036604       0x84 zephyr/subsys/bluetooth/host/libsubsys__bluetooth__host.a(gatt.c.obj)
 .text.bt_gatt_attr_write_ccc
                0x00036688      0x128 zephyr/subsys/bluetooth/host/libsubsys__bluetooth__host.a(gatt.c.obj)
                0x00036688                bt_gatt_attr_write_ccc
 .text.gatt_notify
                0x000367b0       0x60 zephyr/subsys/bluetooth/host/libsubsys__bluetooth__host.a(gatt.c.obj)
 .text.sc_set   0x00036810       0xa4 zephyr/subsys/bluetooth/host/libsubsys__bluetooth__host.a(gatt.c.obj)
 .text.clear_cf_cfg
                0x000368b4       0x40 zephyr/subsys/bluetooth/host/libsubsys__bluetooth__host.a(gatt.c.obj)
 .text.cf_set   0x000368f4       0x68 zephyr/subsys/bluetooth/host/libsubsys__bluetooth__host.a(gatt.c.obj)
 .text.cf_write
                0x0003695c       0x8c zephyr/subsys/bluetooth/host/libsubsys__bluetooth__host.a(gatt.c.obj)
 .text.ccc_save
                0x000369e8       0x40 zephyr/subsys/bluetooth/host/libsubsys__bluetooth__host.a(gatt.c.obj)
 .text.ccc_load
                0x00036a28       0xac zephyr/subsys/bluetooth/host/libsubsys__bluetooth__host.a(gatt.c.obj)
 .text.sc_ccc_cfg_write
                0x00036ad4       0x28 zephyr/subsys/bluetooth/host/libsubsys__bluetooth__host.a(gatt.c.obj)
 .text.remove_peer_from_attr
                0x00036afc       0x2c zephyr/subsys/bluetooth/host/libsubsys__bluetooth__host.a(gatt.c.obj)
 .text.sc_indicate
                0x00036b28       0x6c zephyr/subsys/bluetooth/host/libsubsys__bluetooth__host.a(gatt.c.obj)
 .text.disconnected_cb
                0x00036b94       0xc0 zephyr/subsys/bluetooth/host/libsubsys__bluetooth__host.a(gatt.c.obj)
 .text.bt_gatt_init.part.15
                0x00036c54       0x94 zephyr/subsys/bluetooth/host/libsubsys__bluetooth__host.a(gatt.c.obj)
 .text.gatt_indicate
                0x00036ce8       0x84 zephyr/subsys/bluetooth/host/libsubsys__bluetooth__host.a(gatt.c.obj)
 .text.notify_cb
                0x00036d6c       0xfc zephyr/subsys/bluetooth/host/libsubsys__bluetooth__host.a(gatt.c.obj)
 .text.match_uuid
                0x00036e68        0x8 zephyr/subsys/bluetooth/host/libsubsys__bluetooth__host.a(gatt.c.obj)
 .text.sc_commit
                0x00036e70       0x44 zephyr/subsys/bluetooth/host/libsubsys__bluetooth__host.a(gatt.c.obj)
 .text.bt_gatt_init
                0x00036eb4       0x28 zephyr/subsys/bluetooth/host/libsubsys__bluetooth__host.a(gatt.c.obj)
                0x00036eb4                bt_gatt_init
 .text.bt_gatt_attr_read
                0x00036edc       0x30 zephyr/subsys/bluetooth/host/libsubsys__bluetooth__host.a(gatt.c.obj)
                0x00036edc                bt_gatt_attr_read
 .text.bt_gatt_attr_value_handle
                0x00036f0c       0x8c zephyr/subsys/bluetooth/host/libsubsys__bluetooth__host.a(gatt.c.obj)
                0x00036f0c                bt_gatt_attr_value_handle
 .text.bt_gatt_attr_read_chrc
                0x00036f98       0x68 zephyr/subsys/bluetooth/host/libsubsys__bluetooth__host.a(gatt.c.obj)
                0x00036f98                bt_gatt_attr_read_chrc
 .text.bt_gatt_foreach_attr_type
                0x00037000      0x19c zephyr/subsys/bluetooth/host/libsubsys__bluetooth__host.a(gatt.c.obj)
                0x00037000                bt_gatt_foreach_attr_type
 .text.db_hash_gen
                0x0003719c       0x80 zephyr/subsys/bluetooth/host/libsubsys__bluetooth__host.a(gatt.c.obj)
 .text.db_hash_process
                0x0003721c        0x8 zephyr/subsys/bluetooth/host/libsubsys__bluetooth__host.a(gatt.c.obj)
 .text.db_hash_commit
                0x00037224       0x60 zephyr/subsys/bluetooth/host/libsubsys__bluetooth__host.a(gatt.c.obj)
 .text.bt_gatt_service_register
                0x00037284      0x1e0 zephyr/subsys/bluetooth/host/libsubsys__bluetooth__host.a(gatt.c.obj)
                0x00037284                bt_gatt_service_register
 .text.ccc_set  0x00037464       0x84 zephyr/subsys/bluetooth/host/libsubsys__bluetooth__host.a(gatt.c.obj)
 .text.bt_gatt_notify_cb
                0x000374e8      0x198 zephyr/subsys/bluetooth/host/libsubsys__bluetooth__host.a(gatt.c.obj)
                0x000374e8                bt_gatt_notify_cb
 .text.bt_gatt_indicate
                0x00037680      0x19c zephyr/subsys/bluetooth/host/libsubsys__bluetooth__host.a(gatt.c.obj)
                0x00037680                bt_gatt_indicate
 .text.sc_process
                0x0003781c       0x88 zephyr/subsys/bluetooth/host/libsubsys__bluetooth__host.a(gatt.c.obj)
 .text.bt_gatt_check_perm
                0x000378a4       0x50 zephyr/subsys/bluetooth/host/libsubsys__bluetooth__host.a(gatt.c.obj)
                0x000378a4                bt_gatt_check_perm
 .text.update_ccc
                0x000378f4      0x12c zephyr/subsys/bluetooth/host/libsubsys__bluetooth__host.a(gatt.c.obj)
 .text.bt_gatt_connected
                0x00037a20       0x44 zephyr/subsys/bluetooth/host/libsubsys__bluetooth__host.a(gatt.c.obj)
                0x00037a20                bt_gatt_connected
 .text.bt_gatt_encrypt_change
                0x00037a64       0x2c zephyr/subsys/bluetooth/host/libsubsys__bluetooth__host.a(gatt.c.obj)
                0x00037a64                bt_gatt_encrypt_change
 .text.bt_gatt_change_aware
                0x00037a90       0x88 zephyr/subsys/bluetooth/host/libsubsys__bluetooth__host.a(gatt.c.obj)
                0x00037a90                bt_gatt_change_aware
 .text.db_hash_read
                0x00037b18       0x60 zephyr/subsys/bluetooth/host/libsubsys__bluetooth__host.a(gatt.c.obj)
 .text.bt_gatt_store_ccc
                0x00037b78       0x74 zephyr/subsys/bluetooth/host/libsubsys__bluetooth__host.a(gatt.c.obj)
                0x00037b78                bt_gatt_store_ccc
 .text.ccc_delayed_store
                0x00037bec       0x30 zephyr/subsys/bluetooth/host/libsubsys__bluetooth__host.a(gatt.c.obj)
 .text.bt_gatt_disconnected
                0x00037c1c       0xf0 zephyr/subsys/bluetooth/host/libsubsys__bluetooth__host.a(gatt.c.obj)
                0x00037c1c                bt_gatt_disconnected
 .text.bt_gatt_clear
                0x00037d0c       0xd8 zephyr/subsys/bluetooth/host/libsubsys__bluetooth__host.a(gatt.c.obj)
                0x00037d0c                bt_gatt_clear
 .text.get_io_capa
                0x00037de4       0x54 zephyr/subsys/bluetooth/host/libsubsys__bluetooth__host.a(smp.c.obj)
 .text.smp_pairing_rsp
                0x00037e38        0x4 zephyr/subsys/bluetooth/host/libsubsys__bluetooth__host.a(smp.c.obj)
 .text.bt_smp_accept
                0x00037e3c       0x1c zephyr/subsys/bluetooth/host/libsubsys__bluetooth__host.a(smp.c.obj)
 .text.smp_reset
                0x00037e58       0x68 zephyr/subsys/bluetooth/host/libsubsys__bluetooth__host.a(smp.c.obj)
 .text.smp_pairing_complete
                0x00037ec0       0x88 zephyr/subsys/bluetooth/host/libsubsys__bluetooth__host.a(smp.c.obj)
 .text.bt_smp_aes_cmac
                0x00037f48       0x38 zephyr/subsys/bluetooth/host/libsubsys__bluetooth__host.a(smp.c.obj)
 .text.smp_sign_buf
                0x00037f80       0xa0 zephyr/subsys/bluetooth/host/libsubsys__bluetooth__host.a(smp.c.obj)
 .text.smp_f6   0x00038020       0xf4 zephyr/subsys/bluetooth/host/libsubsys__bluetooth__host.a(smp.c.obj)
 .text.smp_pairing_failed
                0x00038114       0x84 zephyr/subsys/bluetooth/host/libsubsys__bluetooth__host.a(smp.c.obj)
 .text.bt_smp_disconnected
                0x00038198       0x34 zephyr/subsys/bluetooth/host/libsubsys__bluetooth__host.a(smp.c.obj)
 .text.smp_timeout
                0x000381cc       0x4c zephyr/subsys/bluetooth/host/libsubsys__bluetooth__host.a(smp.c.obj)
 .text.smp_signing_info
                0x00038218       0x5c zephyr/subsys/bluetooth/host/libsubsys__bluetooth__host.a(smp.c.obj)
 .text.smp_ident_info
                0x00038274       0x50 zephyr/subsys/bluetooth/host/libsubsys__bluetooth__host.a(smp.c.obj)
 .text.smp_master_ident
                0x000382c4       0xb8 zephyr/subsys/bluetooth/host/libsubsys__bluetooth__host.a(smp.c.obj)
 .text.smp_encrypt_info
                0x0003837c       0x50 zephyr/subsys/bluetooth/host/libsubsys__bluetooth__host.a(smp.c.obj)
 .text.smp_ident_addr_info
                0x000383cc       0xf0 zephyr/subsys/bluetooth/host/libsubsys__bluetooth__host.a(smp.c.obj)
 .text.bt_smp_connected
                0x000384bc       0x1c zephyr/subsys/bluetooth/host/libsubsys__bluetooth__host.a(smp.c.obj)
 .text.get_auth.isra.3
                0x000384d8       0x3c zephyr/subsys/bluetooth/host/libsubsys__bluetooth__host.a(smp.c.obj)
 .text.smp_check_complete.part.5
                0x00038514       0x28 zephyr/subsys/bluetooth/host/libsubsys__bluetooth__host.a(smp.c.obj)
 .text.smp_sign_info_sent
                0x0003853c       0x10 zephyr/subsys/bluetooth/host/libsubsys__bluetooth__host.a(smp.c.obj)
                0x0003853c                smp_sign_info_sent
 .text.smp_ident_sent
                0x0003854c        0xc zephyr/subsys/bluetooth/host/libsubsys__bluetooth__host.a(smp.c.obj)
                0x0003854c                smp_ident_sent
 .text.smp_f4   0x00038558       0x78 zephyr/subsys/bluetooth/host/libsubsys__bluetooth__host.a(smp.c.obj)
 .text.smp_create_pdu.isra.7
                0x000385d0       0x58 zephyr/subsys/bluetooth/host/libsubsys__bluetooth__host.a(smp.c.obj)
 .text.smp_error
                0x00038628       0x40 zephyr/subsys/bluetooth/host/libsubsys__bluetooth__host.a(smp.c.obj)
 .text.smp_c1   0x00038668       0xb4 zephyr/subsys/bluetooth/host/libsubsys__bluetooth__host.a(smp.c.obj)
 .text.smp_send.isra.9
                0x0003871c       0x30 zephyr/subsys/bluetooth/host/libsubsys__bluetooth__host.a(smp.c.obj)
 .text.smp_send_pairing_confirm
                0x0003874c       0xa4 zephyr/subsys/bluetooth/host/libsubsys__bluetooth__host.a(smp.c.obj)
 .text.compute_and_check_and_send_slave_dhcheck
                0x000387f0      0x238 zephyr/subsys/bluetooth/host/libsubsys__bluetooth__host.a(smp.c.obj)
 .text.smp_dhkey_check
                0x00038a28       0x90 zephyr/subsys/bluetooth/host/libsubsys__bluetooth__host.a(smp.c.obj)
 .text.bt_smp_dhkey_ready
                0x00038ab8       0xa4 zephyr/subsys/bluetooth/host/libsubsys__bluetooth__host.a(smp.c.obj)
 .text.smp_send_pairing_random
                0x00038b5c       0x34 zephyr/subsys/bluetooth/host/libsubsys__bluetooth__host.a(smp.c.obj)
 .text.smp_pairing_random
                0x00038b90      0x304 zephyr/subsys/bluetooth/host/libsubsys__bluetooth__host.a(smp.c.obj)
 .text.send_pairing_rsp
                0x00038e94       0x34 zephyr/subsys/bluetooth/host/libsubsys__bluetooth__host.a(smp.c.obj)
 .text.sc_send_public_key
                0x00038ec8       0x48 zephyr/subsys/bluetooth/host/libsubsys__bluetooth__host.a(smp.c.obj)
 .text.bt_smp_encrypt_change
                0x00038f10      0x27c zephyr/subsys/bluetooth/host/libsubsys__bluetooth__host.a(smp.c.obj)
 .text.legacy_pairing_confirm
                0x0003918c       0xc0 zephyr/subsys/bluetooth/host/libsubsys__bluetooth__host.a(smp.c.obj)
 .text.smp_pairing_confirm
                0x0003924c       0xd0 zephyr/subsys/bluetooth/host/libsubsys__bluetooth__host.a(smp.c.obj)
 .text.smp_init
                0x0003931c       0x50 zephyr/subsys/bluetooth/host/libsubsys__bluetooth__host.a(smp.c.obj)
 .text.smp_pairing_req
                0x0003936c      0x47c zephyr/subsys/bluetooth/host/libsubsys__bluetooth__host.a(smp.c.obj)
 .text.bt_smp_recv
                0x000397e8       0xb0 zephyr/subsys/bluetooth/host/libsubsys__bluetooth__host.a(smp.c.obj)
 .text.smp_public_key_slave.part.14
                0x00039898      0x15c zephyr/subsys/bluetooth/host/libsubsys__bluetooth__host.a(smp.c.obj)
 .text.smp_public_key
                0x000399f4       0xb8 zephyr/subsys/bluetooth/host/libsubsys__bluetooth__host.a(smp.c.obj)
 .text.smp_security_request
                0x00039aac        0x4 zephyr/subsys/bluetooth/host/libsubsys__bluetooth__host.a(smp.c.obj)
 .text.bt_smp_pkey_ready
                0x00039ab0       0x50 zephyr/subsys/bluetooth/host/libsubsys__bluetooth__host.a(smp.c.obj)
 .text.bt_smp_request_ltk
                0x00039b00      0x1b0 zephyr/subsys/bluetooth/host/libsubsys__bluetooth__host.a(smp.c.obj)
                0x00039b00                bt_smp_request_ltk
 .text.bt_smp_sign_verify
                0x00039cb0       0x80 zephyr/subsys/bluetooth/host/libsubsys__bluetooth__host.a(smp.c.obj)
                0x00039cb0                bt_smp_sign_verify
 .text.bt_smp_sign
                0x00039d30       0x60 zephyr/subsys/bluetooth/host/libsubsys__bluetooth__host.a(smp.c.obj)
                0x00039d30                bt_smp_sign
 .text.bt_smp_start_security
                0x00039d90      0x1d4 zephyr/subsys/bluetooth/host/libsubsys__bluetooth__host.a(smp.c.obj)
                0x00039d90                bt_smp_start_security
 .text.bt_smp_update_keys
                0x00039f64      0x104 zephyr/subsys/bluetooth/host/libsubsys__bluetooth__host.a(smp.c.obj)
                0x00039f64                bt_smp_update_keys
 .text.bt_smp_init
                0x0003a068       0x30 zephyr/subsys/bluetooth/host/libsubsys__bluetooth__host.a(smp.c.obj)
                0x0003a068                bt_smp_init
 .text.keys_commit
                0x0003a098       0x24 zephyr/subsys/bluetooth/host/libsubsys__bluetooth__host.a(keys.c.obj)
 .text.bt_keys_get_addr
                0x0003a0bc       0x94 zephyr/subsys/bluetooth/host/libsubsys__bluetooth__host.a(keys.c.obj)
                0x0003a0bc                bt_keys_get_addr
 .text.bt_foreach_bond
                0x0003a150       0x44 zephyr/subsys/bluetooth/host/libsubsys__bluetooth__host.a(keys.c.obj)
                0x0003a150                bt_foreach_bond
 .text.bt_keys_foreach
                0x0003a194       0x2c zephyr/subsys/bluetooth/host/libsubsys__bluetooth__host.a(keys.c.obj)
                0x0003a194                bt_keys_foreach
 .text.bt_keys_find
                0x0003a1c0       0x50 zephyr/subsys/bluetooth/host/libsubsys__bluetooth__host.a(keys.c.obj)
                0x0003a1c0                bt_keys_find
 .text.bt_keys_get_type
                0x0003a210       0x24 zephyr/subsys/bluetooth/host/libsubsys__bluetooth__host.a(keys.c.obj)
                0x0003a210                bt_keys_get_type
 .text.bt_keys_find_irk
                0x0003a234       0xb4 zephyr/subsys/bluetooth/host/libsubsys__bluetooth__host.a(keys.c.obj)
                0x0003a234                bt_keys_find_irk
 .text.bt_keys_find_addr
                0x0003a2e8       0x38 zephyr/subsys/bluetooth/host/libsubsys__bluetooth__host.a(keys.c.obj)
                0x0003a2e8                bt_keys_find_addr
 .text.bt_keys_add_type
                0x0003a320        0x8 zephyr/subsys/bluetooth/host/libsubsys__bluetooth__host.a(keys.c.obj)
                0x0003a320                bt_keys_add_type
 .text.bt_keys_clear
                0x0003a328       0x54 zephyr/subsys/bluetooth/host/libsubsys__bluetooth__host.a(keys.c.obj)
                0x0003a328                bt_keys_clear
 .text.keys_set
                0x0003a37c       0x8c zephyr/subsys/bluetooth/host/libsubsys__bluetooth__host.a(keys.c.obj)
 .text.bt_keys_clear_all
                0x0003a408       0x34 zephyr/subsys/bluetooth/host/libsubsys__bluetooth__host.a(keys.c.obj)
                0x0003a408                bt_keys_clear_all
 .text.bt_keys_store
                0x0003a43c       0x44 zephyr/subsys/bluetooth/host/libsubsys__bluetooth__host.a(keys.c.obj)
                0x0003a43c                bt_keys_store
 .text.fixed_data_alloc
                0x0003a480       0x3c zephyr/subsys/net/libsubsys__net.a(buf.c.obj)
 .text.fixed_data_unref
                0x0003a4bc        0x4 zephyr/subsys/net/libsubsys__net.a(buf.c.obj)
 .text.net_buf_pool_get
                0x0003a4c0        0xc zephyr/subsys/net/libsubsys__net.a(buf.c.obj)
                0x0003a4c0                net_buf_pool_get
 .text.net_buf_alloc_len
                0x0003a4cc       0xe8 zephyr/subsys/net/libsubsys__net.a(buf.c.obj)
                0x0003a4cc                net_buf_alloc_len
 .text.net_buf_alloc_fixed
                0x0003a5b4        0xc zephyr/subsys/net/libsubsys__net.a(buf.c.obj)
                0x0003a5b4                net_buf_alloc_fixed
 .text.net_buf_get
                0x0003a5c0       0x38 zephyr/subsys/net/libsubsys__net.a(buf.c.obj)
                0x0003a5c0                net_buf_get
 .text.net_buf_simple_reserve
                0x0003a5f8        0x8 zephyr/subsys/net/libsubsys__net.a(buf.c.obj)
                0x0003a5f8                net_buf_simple_reserve
 .text.net_buf_put
                0x0003a600       0x28 zephyr/subsys/net/libsubsys__net.a(buf.c.obj)
                0x0003a600                net_buf_put
 .text.net_buf_unref
                0x0003a628       0x6c zephyr/subsys/net/libsubsys__net.a(buf.c.obj)
                0x0003a628                net_buf_unref
 .text.net_buf_ref
                0x0003a694        0x8 zephyr/subsys/net/libsubsys__net.a(buf.c.obj)
                0x0003a694                net_buf_ref
 .text.net_buf_simple_add
                0x0003a69c        0xc zephyr/subsys/net/libsubsys__net.a(buf.c.obj)
                0x0003a69c                net_buf_simple_add
 .text.net_buf_simple_add_mem
                0x0003a6a8       0x14 zephyr/subsys/net/libsubsys__net.a(buf.c.obj)
                0x0003a6a8                net_buf_simple_add_mem
 .text.net_buf_simple_add_u8
                0x0003a6bc       0x14 zephyr/subsys/net/libsubsys__net.a(buf.c.obj)
                0x0003a6bc                net_buf_simple_add_u8
 .text.net_buf_simple_push
                0x0003a6d0       0x10 zephyr/subsys/net/libsubsys__net.a(buf.c.obj)
                0x0003a6d0                net_buf_simple_push
 .text.net_buf_simple_pull
                0x0003a6e0       0x10 zephyr/subsys/net/libsubsys__net.a(buf.c.obj)
                0x0003a6e0                net_buf_simple_pull
 .text.net_buf_simple_pull_mem
                0x0003a6f0       0x10 zephyr/subsys/net/libsubsys__net.a(buf.c.obj)
                0x0003a6f0                net_buf_simple_pull_mem
 .text.net_buf_simple_pull_le16
                0x0003a700       0x14 zephyr/subsys/net/libsubsys__net.a(buf.c.obj)
                0x0003a700                net_buf_simple_pull_le16
 .text.net_buf_simple_headroom
                0x0003a714        0x8 zephyr/subsys/net/libsubsys__net.a(buf.c.obj)
                0x0003a714                net_buf_simple_headroom
 .text.net_buf_simple_tailroom
                0x0003a71c       0x10 zephyr/subsys/net/libsubsys__net.a(buf.c.obj)
                0x0003a71c                net_buf_simple_tailroom
 .text.hid_interface_config
                0x0003a72c        0x4 zephyr/subsys/usb/class/hid/libsubsys__usb__class__hid.a(core.c.obj)
 .text.usb_hid_device_init
                0x0003a730        0x4 zephyr/subsys/usb/class/hid/libsubsys__usb__class__hid.a(core.c.obj)
 .text.hid_int_in
                0x0003a734       0x2c zephyr/subsys/usb/class/hid/libsubsys__usb__class__hid.a(core.c.obj)
 .text.hid_custom_handle_req
                0x0003a760       0x78 zephyr/subsys/usb/class/hid/libsubsys__usb__class__hid.a(core.c.obj)
 .text.hid_class_handle_req
                0x0003a7d8      0x108 zephyr/subsys/usb/class/hid/libsubsys__usb__class__hid.a(core.c.obj)
 .text.hid_status_cb
                0x0003a8e0       0x34 zephyr/subsys/usb/class/hid/libsubsys__usb__class__hid.a(core.c.obj)
 .text.usb_hid_init
                0x0003a914       0x18 zephyr/subsys/usb/class/hid/libsubsys__usb__class__hid.a(core.c.obj)
                0x0003a914                usb_hid_init
 .text.usb_hid_register_device
                0x0003a92c       0x2c zephyr/subsys/usb/class/hid/libsubsys__usb__class__hid.a(core.c.obj)
                0x0003a92c                usb_hid_register_device
 .text.hid_int_ep_write
                0x0003a958        0xc zephyr/subsys/usb/class/hid/libsubsys__usb__class__hid.a(core.c.obj)
                0x0003a958                hid_int_ep_write
 .text.sys_rand32_get
                0x0003a964       0x38 zephyr/subsys/random/libsubsys__random.a(rand32_entropy_device.c.obj)
                0x0003a964                sys_rand32_get
 .text.adc_context_on_timer_expired
                0x0003a99c       0x48 zephyr/drivers/adc/libdrivers__adc.a(adc_nrfx_saadc.c.obj)
 .text.init_saadc
                0x0003a9e4       0x54 zephyr/drivers/adc/libdrivers__adc.a(adc_nrfx_saadc.c.obj)
 .text.adc_nrfx_channel_setup
                0x0003aa38       0xf8 zephyr/drivers/adc/libdrivers__adc.a(adc_nrfx_saadc.c.obj)
 .text.start_read.isra.6
                0x0003ab30      0x1cc zephyr/drivers/adc/libdrivers__adc.a(adc_nrfx_saadc.c.obj)
 .text.adc_nrfx_read_async
                0x0003acfc       0x40 zephyr/drivers/adc/libdrivers__adc.a(adc_nrfx_saadc.c.obj)
 .text.adc_nrfx_read
                0x0003ad3c       0x3c zephyr/drivers/adc/libdrivers__adc.a(adc_nrfx_saadc.c.obj)
 .text.saadc_irq_handler
                0x0003ad78      0x114 zephyr/drivers/adc/libdrivers__adc.a(adc_nrfx_saadc.c.obj)
 .text.gpiote_pin_int_cfg
                0x0003ae8c      0x170 zephyr/drivers/gpio/libdrivers__gpio.a(gpio_nrfx.c.obj)
 .text.gpio_nrfx_config
                0x0003affc      0x1c4 zephyr/drivers/gpio/libdrivers__gpio.a(gpio_nrfx.c.obj)
 .text.gpio_nrfx_write
                0x0003b1c0       0x44 zephyr/drivers/gpio/libdrivers__gpio.a(gpio_nrfx.c.obj)
 .text.gpio_nrfx_read
                0x0003b204       0x34 zephyr/drivers/gpio/libdrivers__gpio.a(gpio_nrfx.c.obj)
 .text.gpio_nrfx_manage_callback
                0x0003b238       0x6c zephyr/drivers/gpio/libdrivers__gpio.a(gpio_nrfx.c.obj)
 .text.gpio_nrfx_pin_disable_callback
                0x0003b2a4       0x44 zephyr/drivers/gpio/libdrivers__gpio.a(gpio_nrfx.c.obj)
 .text.cfg_level_pins
                0x0003b2e8       0x80 zephyr/drivers/gpio/libdrivers__gpio.a(gpio_nrfx.c.obj)
 .text.check_level_trigger_pins
                0x0003b368       0x78 zephyr/drivers/gpio/libdrivers__gpio.a(gpio_nrfx.c.obj)
 .text.gpio_nrfx_init
                0x0003b3e0       0x34 zephyr/drivers/gpio/libdrivers__gpio.a(gpio_nrfx.c.obj)
 .text.gpio_nrfx_pin_enable_callback
                0x0003b414       0x44 zephyr/drivers/gpio/libdrivers__gpio.a(gpio_nrfx.c.obj)
 .text.gpiote_event_handler
                0x0003b458      0x11c zephyr/drivers/gpio/libdrivers__gpio.a(gpio_nrfx.c.obj)
 .text.pwm_nrfx_get_cycles_per_sec
                0x0003b574       0x10 zephyr/drivers/pwm/libdrivers__pwm.a(pwm_nrfx.c.obj)
 .text.pwm_nrfx_init
                0x0003b584       0x24 zephyr/drivers/pwm/libdrivers__pwm.a(pwm_nrfx.c.obj)
 .text.pwm_nrfx_set_power_state
                0x0003b5a8       0x40 zephyr/drivers/pwm/libdrivers__pwm.a(pwm_nrfx.c.obj)
 .text.pwm_nrfx_pin_set
                0x0003b5e8      0x190 zephyr/drivers/pwm/libdrivers__pwm.a(pwm_nrfx.c.obj)
 .text.pwm_0_nrfx_pm_control
                0x0003b778       0x50 zephyr/drivers/pwm/libdrivers__pwm.a(pwm_nrfx.c.obj)
 .text.pwm_1_nrfx_pm_control
                0x0003b7c8       0x50 zephyr/drivers/pwm/libdrivers__pwm.a(pwm_nrfx.c.obj)
 .text.qdec_nrfx_channel_get
                0x0003b818       0x78 zephyr/drivers/sensor/qdec_nrfx/libdrivers__sensor__qdec_nrfx.a(qdec_nrfx.c.obj)
 .text.qdec_nrfx_trigger_set
                0x0003b890       0x3c zephyr/drivers/sensor/qdec_nrfx/libdrivers__sensor__qdec_nrfx.a(qdec_nrfx.c.obj)
 .text.qdec_nrfx_init
                0x0003b8cc       0x5c zephyr/drivers/sensor/qdec_nrfx/libdrivers__sensor__qdec_nrfx.a(qdec_nrfx.c.obj)
 .text.accumulate.isra.0.constprop.3
                0x0003b928       0x4c zephyr/drivers/sensor/qdec_nrfx/libdrivers__sensor__qdec_nrfx.a(qdec_nrfx.c.obj)
 .text.qdec_nrfx_sample_fetch
                0x0003b974       0x30 zephyr/drivers/sensor/qdec_nrfx/libdrivers__sensor__qdec_nrfx.a(qdec_nrfx.c.obj)
 .text.qdec_nrfx_event_handler
                0x0003b9a4       0x64 zephyr/drivers/sensor/qdec_nrfx/libdrivers__sensor__qdec_nrfx.a(qdec_nrfx.c.obj)
 .text.qdec_nrfx_pm_control
                0x0003ba08       0xe4 zephyr/drivers/sensor/qdec_nrfx/libdrivers__sensor__qdec_nrfx.a(qdec_nrfx.c.obj)
 .text.hfclk_on_callback
                0x0003baec        0xc zephyr/drivers/sensor/nrf5/libdrivers__sensor__nrf5.a(temp_nrf5.c.obj)
 .text.temp_nrf5_channel_get
                0x0003baf8       0x40 zephyr/drivers/sensor/nrf5/libdrivers__sensor__nrf5.a(temp_nrf5.c.obj)
 .text.temp_nrf5_sample_fetch
                0x0003bb38       0x60 zephyr/drivers/sensor/nrf5/libdrivers__sensor__nrf5.a(temp_nrf5.c.obj)
 .text.temp_nrf5_init
                0x0003bb98       0x3c zephyr/drivers/sensor/nrf5/libdrivers__sensor__nrf5.a(temp_nrf5.c.obj)
 .text.temp_nrf5_isr
                0x0003bbd4       0x1c zephyr/drivers/sensor/nrf5/libdrivers__sensor__nrf5.a(temp_nrf5.c.obj)
 .text.spi_nrfx_release
                0x0003bbf0       0x58 zephyr/drivers/spi/libdrivers__spi.a(spi_nrfx_spim.c.obj)
 .text.transfer_next_chunk
                0x0003bc48      0x10c zephyr/drivers/spi/libdrivers__spi.a(spi_nrfx_spim.c.obj)
 .text.event_handler
                0x0003bd54       0x80 zephyr/drivers/spi/libdrivers__spi.a(spi_nrfx_spim.c.obj)
 .text.init_spim
                0x0003bdd4       0x6c zephyr/drivers/spi/libdrivers__spi.a(spi_nrfx_spim.c.obj)
 .text.spim_nrfx_pm_control
                0x0003be40       0x6c zephyr/drivers/spi/libdrivers__spi.a(spi_nrfx_spim.c.obj)
 .text.spi_1_init
                0x0003beac       0x18 zephyr/drivers/spi/libdrivers__spi.a(spi_nrfx_spim.c.obj)
 .text.spi_nrfx_transceive
                0x0003bec4      0x1dc zephyr/drivers/spi/libdrivers__spi.a(spi_nrfx_spim.c.obj)
 .text.flash_page_foreach
                0x0003c0a0       0x68 zephyr/drivers/flash/libdrivers__flash.a(flash_page_layout.c.obj)
                0x0003c0a0                flash_page_foreach
 .text.btctlr_flash_write_protection_set
                0x0003c108        0x4 zephyr/drivers/flash/libdrivers__flash.a(flash_ll_nrfxlib.c.obj)
 .text.btctlr_flash_page_layout_get
                0x0003c10c       0x10 zephyr/drivers/flash/libdrivers__flash.a(flash_ll_nrfxlib.c.obj)
 .text.nrf_btctrl_flash_init
                0x0003c11c       0x38 zephyr/drivers/flash/libdrivers__flash.a(flash_ll_nrfxlib.c.obj)
 .text.flash_op_execute
                0x0003c154       0xc8 zephyr/drivers/flash/libdrivers__flash.a(flash_ll_nrfxlib.c.obj)
 .text.flash_operation_complete_callback
                0x0003c21c       0x34 zephyr/drivers/flash/libdrivers__flash.a(flash_ll_nrfxlib.c.obj)
 .text.btctlr_flash_erase
                0x0003c250       0x80 zephyr/drivers/flash/libdrivers__flash.a(flash_ll_nrfxlib.c.obj)
 .text.btctlr_flash_read
                0x0003c2d0       0x4c zephyr/drivers/flash/libdrivers__flash.a(flash_ll_nrfxlib.c.obj)
 .text.btctlr_flash_write
                0x0003c31c       0x64 zephyr/drivers/flash/libdrivers__flash.a(flash_ll_nrfxlib.c.obj)
 .text.rng_driver_init
                0x0003c380       0x1c zephyr/drivers/entropy/libdrivers__entropy.a(entropy_ll_nrfxlib.c.obj)
 .text.rng_driver_isr
                0x0003c39c       0x14 zephyr/drivers/entropy/libdrivers__entropy.a(entropy_ll_nrfxlib.c.obj)
 .text.rng_driver_get_entropy_isr
                0x0003c3b0       0x50 zephyr/drivers/entropy/libdrivers__entropy.a(entropy_ll_nrfxlib.c.obj)
 .text.rng_driver_get_entropy
                0x0003c400       0x44 zephyr/drivers/entropy/libdrivers__entropy.a(entropy_ll_nrfxlib.c.obj)
 .text.multithreading_lock_acquire
                0x0003c444        0xc zephyr/modules/nrf/lib/multithreading_lock/lib..__nrf__lib__multithreading_lock.a(multithreading_lock.c.obj)
                0x0003c444                multithreading_lock_acquire
 .text.multithreading_lock_release
                0x0003c450        0xc zephyr/modules/nrf/lib/multithreading_lock/lib..__nrf__lib__multithreading_lock.a(multithreading_lock.c.obj)
                0x0003c450                multithreading_lock_release
 .text.blectlr_assertion_handler
                0x0003c45c       0x10 zephyr/modules/nrf/subsys/bluetooth/controller/lib..__nrf__subsys__bluetooth__controller.a(hci_driver.c.obj)
                0x0003c45c                blectlr_assertion_handler
 .text.host_signal
                0x0003c46c        0xc zephyr/modules/nrf/subsys/bluetooth/controller/lib..__nrf__subsys__bluetooth__controller.a(hci_driver.c.obj)
                0x0003c46c                host_signal
 .text.SIGNALLING_Handler
                0x0003c478        0xc zephyr/modules/nrf/subsys/bluetooth/controller/lib..__nrf__subsys__bluetooth__controller.a(hci_driver.c.obj)
                0x0003c478                SIGNALLING_Handler
 .text.hci_driver_open
                0x0003c484       0x3c zephyr/modules/nrf/subsys/bluetooth/controller/lib..__nrf__subsys__bluetooth__controller.a(hci_driver.c.obj)
 .text.signal_thread
                0x0003c4c0       0x18 zephyr/modules/nrf/subsys/bluetooth/controller/lib..__nrf__subsys__bluetooth__controller.a(hci_driver.c.obj)
 .text.ble_init
                0x0003c4d8       0x24 zephyr/modules/nrf/subsys/bluetooth/controller/lib..__nrf__subsys__bluetooth__controller.a(hci_driver.c.obj)
 .text.hci_driver_send
                0x0003c4fc       0x74 zephyr/modules/nrf/subsys/bluetooth/controller/lib..__nrf__subsys__bluetooth__controller.a(hci_driver.c.obj)
 .text.hci_driver_init
                0x0003c570       0xfc zephyr/modules/nrf/subsys/bluetooth/controller/lib..__nrf__subsys__bluetooth__controller.a(hci_driver.c.obj)
 .text.recv_thread
                0x0003c66c       0xec zephyr/modules/nrf/subsys/bluetooth/controller/lib..__nrf__subsys__bluetooth__controller.a(hci_driver.c.obj)
 .text.bt_read_static_addr
                0x0003c758       0x5c zephyr/modules/nrf/subsys/bluetooth/controller/lib..__nrf__subsys__bluetooth__controller.a(hci_driver.c.obj)
                0x0003c758                bt_read_static_addr
 .text.bt_rand  0x0003c7b4       0x40 zephyr/modules/nrf/subsys/bluetooth/controller/lib..__nrf__subsys__bluetooth__controller.a(crypto.c.obj)
                0x0003c7b4                bt_rand
 .text.bt_encrypt_le
                0x0003c7f4       0x70 zephyr/modules/nrf/subsys/bluetooth/controller/lib..__nrf__subsys__bluetooth__controller.a(crypto.c.obj)
                0x0003c7f4                bt_encrypt_le
 .text.pmw3360_channel_get
                0x0003c864       0x38 zephyr/modules/nrf/drivers/sensor/pmw3360/lib..__nrf__drivers__sensor__pmw3360.a(pmw3360.c.obj)
 .text.pmw3360_trigger_set
                0x0003c89c       0x6c zephyr/modules/nrf/drivers/sensor/pmw3360/lib..__nrf__drivers__sensor__pmw3360.a(pmw3360.c.obj)
 .text.trigger_handler
                0x0003c908       0x90 zephyr/modules/nrf/drivers/sensor/pmw3360/lib..__nrf__drivers__sensor__pmw3360.a(pmw3360.c.obj)
 .text.spi_cs_ctrl.isra.1
                0x0003c998       0x30 zephyr/modules/nrf/drivers/sensor/pmw3360/lib..__nrf__drivers__sensor__pmw3360.a(pmw3360.c.obj)
 .text.reg_write
                0x0003c9c8       0x70 zephyr/modules/nrf/drivers/sensor/pmw3360/lib..__nrf__drivers__sensor__pmw3360.a(pmw3360.c.obj)
 .text.pmw3360_attr_set
                0x0003ca38       0xc0 zephyr/modules/nrf/drivers/sensor/pmw3360/lib..__nrf__drivers__sensor__pmw3360.a(pmw3360.c.obj)
 .text.pmw3360_async_init_power_up
                0x0003caf8        0x8 zephyr/modules/nrf/drivers/sensor/pmw3360/lib..__nrf__drivers__sensor__pmw3360.a(pmw3360.c.obj)
 .text.pmw3360_async_init_configure
                0x0003cb00       0x3c zephyr/modules/nrf/drivers/sensor/pmw3360/lib..__nrf__drivers__sensor__pmw3360.a(pmw3360.c.obj)
 .text.reg_read
                0x0003cb3c       0x84 zephyr/modules/nrf/drivers/sensor/pmw3360/lib..__nrf__drivers__sensor__pmw3360.a(pmw3360.c.obj)
 .text.pmw3360_async_init_fw_load_verify
                0x0003cbc0       0x44 zephyr/modules/nrf/drivers/sensor/pmw3360/lib..__nrf__drivers__sensor__pmw3360.a(pmw3360.c.obj)
 .text.pmw3360_async_init_fw_load_start
                0x0003cc04       0x50 zephyr/modules/nrf/drivers/sensor/pmw3360/lib..__nrf__drivers__sensor__pmw3360.a(pmw3360.c.obj)
 .text.pmw3360_async_init
                0x0003cc54       0x54 zephyr/modules/nrf/drivers/sensor/pmw3360/lib..__nrf__drivers__sensor__pmw3360.a(pmw3360.c.obj)
 .text.pmw3360_init
                0x0003cca8       0xd4 zephyr/modules/nrf/drivers/sensor/pmw3360/lib..__nrf__drivers__sensor__pmw3360.a(pmw3360.c.obj)
 .text.pmw3360_sample_fetch
                0x0003cd7c       0xd4 zephyr/modules/nrf/drivers/sensor/pmw3360/lib..__nrf__drivers__sensor__pmw3360.a(pmw3360.c.obj)
 .text.pmw3360_async_init_fw_load_continue
                0x0003ce50       0xb4 zephyr/modules/nrf/drivers/sensor/pmw3360/lib..__nrf__drivers__sensor__pmw3360.a(pmw3360.c.obj)
 .text.irq_handler
                0x0003cf04       0x5c zephyr/modules/nrf/drivers/sensor/pmw3360/lib..__nrf__drivers__sensor__pmw3360.a(pmw3360.c.obj)
 .text.hf_clock_get_rate
                0x0003cf60       0x14 zephyr/modules/nrf/drivers/clock_control/lib..__nrf__drivers__clock_control.a(clock_control_nrfxlib.c.obj)
 .text.lf_clock_start
                0x0003cf74        0x4 zephyr/modules/nrf/drivers/clock_control/lib..__nrf__drivers__clock_control.a(clock_control_nrfxlib.c.obj)
 .text.lf_clock_get_rate
                0x0003cf78       0x14 zephyr/modules/nrf/drivers/clock_control/lib..__nrf__drivers__clock_control.a(clock_control_nrfxlib.c.obj)
 .text.nrf_power_clock_isr
                0x0003cf8c       0x70 zephyr/modules/nrf/drivers/clock_control/lib..__nrf__drivers__clock_control.a(clock_control_nrfxlib.c.obj)
                0x0003cf8c                nrf_power_clock_isr
 .text.clock_control_init
                0x0003cffc       0x10 zephyr/modules/nrf/drivers/clock_control/lib..__nrf__drivers__clock_control.a(clock_control_nrfxlib.c.obj)
 .text.hf_clock_stop
                0x0003d00c       0x30 zephyr/modules/nrf/drivers/clock_control/lib..__nrf__drivers__clock_control.a(clock_control_nrfxlib.c.obj)
 .text.hf_clock_start
                0x0003d03c       0x98 zephyr/modules/nrf/drivers/clock_control/lib..__nrf__drivers__clock_control.a(clock_control_nrfxlib.c.obj)
 .text.nrf5_power_usb_power_int_enable
                0x0003d0d4       0x1c zephyr/modules/nrf/drivers/clock_control/lib..__nrf__drivers__clock_control.a(clock_control_nrfxlib.c.obj)
                0x0003d0d4                nrf5_power_usb_power_int_enable
 .text.hw_cc310_init
                0x0003d0f0       0x14 zephyr/modules/nrf/drivers/hw_cc310/lib..__nrf__drivers__hw_cc310.a(hw_cc310.c.obj)
 .text.SystemInit
                0x0003d104      0x194 zephyr/modules/nordic/lib..__modules__hal__nordic.a(system_nrf52840.c.obj)
                0x0003d104                SystemInit
 .text.nrfx_isr
                0x0003d298        0x4 zephyr/modules/nordic/lib..__modules__hal__nordic.a(nrfx_glue.c.obj)
                0x0003d298                nrfx_isr
 .text.nrfx_nvmc_flash_size_get
                0x0003d29c       0x10 zephyr/modules/nordic/lib..__modules__hal__nordic.a(nrfx_nvmc.c.obj)
                0x0003d29c                nrfx_nvmc_flash_size_get
 .text.nrfx_nvmc_flash_page_size_get
                0x0003d2ac        0x8 zephyr/modules/nordic/lib..__modules__hal__nordic.a(nrfx_nvmc.c.obj)
                0x0003d2ac                nrfx_nvmc_flash_page_size_get
 .text.nrfx_nvmc_flash_page_count_get
                0x0003d2b4        0x8 zephyr/modules/nordic/lib..__modules__hal__nordic.a(nrfx_nvmc.c.obj)
                0x0003d2b4                nrfx_nvmc_flash_page_count_get
 .text.start_playback.isra.1
                0x0003d2bc       0x4c zephyr/modules/nordic/lib..__modules__hal__nordic.a(nrfx_pwm.c.obj)
 .text.nrfx_pwm_init
                0x0003d308      0x15c zephyr/modules/nordic/lib..__modules__hal__nordic.a(nrfx_pwm.c.obj)
                0x0003d308                nrfx_pwm_init
 .text.nrfx_pwm_uninit
                0x0003d464       0x2c zephyr/modules/nordic/lib..__modules__hal__nordic.a(nrfx_pwm.c.obj)
                0x0003d464                nrfx_pwm_uninit
 .text.nrfx_pwm_simple_playback
                0x0003d490       0x94 zephyr/modules/nordic/lib..__modules__hal__nordic.a(nrfx_pwm.c.obj)
                0x0003d490                nrfx_pwm_simple_playback
 .text.nrfx_pwm_stop
                0x0003d524       0x54 zephyr/modules/nordic/lib..__modules__hal__nordic.a(nrfx_pwm.c.obj)
                0x0003d524                nrfx_pwm_stop
 .text.nrfx_pwm_is_stopped
                0x0003d578       0x2c zephyr/modules/nordic/lib..__modules__hal__nordic.a(nrfx_pwm.c.obj)
                0x0003d578                nrfx_pwm_is_stopped
 .text.nrfx_qdec_irq_handler
                0x0003d5a4       0xc8 zephyr/modules/nordic/lib..__modules__hal__nordic.a(nrfx_qdec.c.obj)
                0x0003d5a4                nrfx_qdec_irq_handler
 .text.nrfx_qdec_init
                0x0003d66c      0x104 zephyr/modules/nordic/lib..__modules__hal__nordic.a(nrfx_qdec.c.obj)
                0x0003d66c                nrfx_qdec_init
 .text.nrfx_qdec_uninit
                0x0003d770       0x2c zephyr/modules/nordic/lib..__modules__hal__nordic.a(nrfx_qdec.c.obj)
                0x0003d770                nrfx_qdec_uninit
 .text.nrfx_qdec_enable
                0x0003d79c       0x1c zephyr/modules/nordic/lib..__modules__hal__nordic.a(nrfx_qdec.c.obj)
                0x0003d79c                nrfx_qdec_enable
 .text.nrfx_qdec_disable
                0x0003d7b8       0x24 zephyr/modules/nordic/lib..__modules__hal__nordic.a(nrfx_qdec.c.obj)
                0x0003d7b8                nrfx_qdec_disable
 .text.nrfx_qdec_accumulators_read
                0x0003d7dc       0x24 zephyr/modules/nordic/lib..__modules__hal__nordic.a(nrfx_qdec.c.obj)
                0x0003d7dc                nrfx_qdec_accumulators_read
 .text.nrfx_spim_init
                0x0003d800      0x244 zephyr/modules/nordic/lib..__modules__hal__nordic.a(nrfx_spim.c.obj)
                0x0003d800                nrfx_spim_init
 .text.nrfx_spim_uninit
                0x0003da44       0x94 zephyr/modules/nordic/lib..__modules__hal__nordic.a(nrfx_spim.c.obj)
                0x0003da44                nrfx_spim_uninit
 .text.nrfx_spim_xfer
                0x0003dad8      0x1a0 zephyr/modules/nordic/lib..__modules__hal__nordic.a(nrfx_spim.c.obj)
                0x0003dad8                nrfx_spim_xfer
 .text.nrfx_spim_1_irq_handler
                0x0003dc78       0x78 zephyr/modules/nordic/lib..__modules__hal__nordic.a(nrfx_spim.c.obj)
                0x0003dc78                nrfx_spim_1_irq_handler
 .text.nrfx_systick_delay_us
                0x0003dcf0       0x30 zephyr/modules/nordic/lib..__modules__hal__nordic.a(nrfx_systick.c.obj)
                0x0003dcf0                nrfx_systick_delay_us
 .text.nrfx_usbd_consumer
                0x0003dd20       0x3c zephyr/modules/nordic/lib..__modules__hal__nordic.a(nrfx_usbd.c.obj)
                0x0003dd20                nrfx_usbd_consumer
 .text.nrfx_usbd_feeder_ram
                0x0003dd5c       0x24 zephyr/modules/nordic/lib..__modules__hal__nordic.a(nrfx_usbd.c.obj)
                0x0003dd5c                nrfx_usbd_feeder_ram
 .text.nrfx_usbd_feeder_ram_zlp
                0x0003dd80       0x2c zephyr/modules/nordic/lib..__modules__hal__nordic.a(nrfx_usbd.c.obj)
                0x0003dd80                nrfx_usbd_feeder_ram_zlp
 .text.ev_usbreset_handler
                0x0003ddac       0x30 zephyr/modules/nordic/lib..__modules__hal__nordic.a(nrfx_usbd.c.obj)
 .text.ev_started_handler
                0x0003dddc        0x4 zephyr/modules/nordic/lib..__modules__hal__nordic.a(nrfx_usbd.c.obj)
 .text.ev_sof_handler
                0x0003dde0       0x48 zephyr/modules/nordic/lib..__modules__hal__nordic.a(nrfx_usbd.c.obj)
 .text.nrfx_usbd_feeder_flash
                0x0003de28       0x38 zephyr/modules/nordic/lib..__modules__hal__nordic.a(nrfx_usbd.c.obj)
                0x0003de28                nrfx_usbd_feeder_flash
 .text.nrfx_usbd_feeder_flash_zlp
                0x0003de60       0x40 zephyr/modules/nordic/lib..__modules__hal__nordic.a(nrfx_usbd.c.obj)
                0x0003de60                nrfx_usbd_feeder_flash_zlp
 .text.ev_usbevent_handler
                0x0003dea0       0x88 zephyr/modules/nordic/lib..__modules__hal__nordic.a(nrfx_usbd.c.obj)
 .text.usbd_ep_data_handler
                0x0003df28      0x13c zephyr/modules/nordic/lib..__modules__hal__nordic.a(nrfx_usbd.c.obj)
 .text.ev_setup_data_handler
                0x0003e064       0x1c zephyr/modules/nordic/lib..__modules__hal__nordic.a(nrfx_usbd.c.obj)
 .text.usbd_dmareq_process.part.4
                0x0003e080      0x2f0 zephyr/modules/nordic/lib..__modules__hal__nordic.a(nrfx_usbd.c.obj)
 .text.ev_epdata_handler
                0x0003e370       0x8c zephyr/modules/nordic/lib..__modules__hal__nordic.a(nrfx_usbd.c.obj)
 .text.ev_dma_epout6_handler
                0x0003e3fc       0x9c zephyr/modules/nordic/lib..__modules__hal__nordic.a(nrfx_usbd.c.obj)
 .text.ev_dma_epout8_handler
                0x0003e498       0x7c zephyr/modules/nordic/lib..__modules__hal__nordic.a(nrfx_usbd.c.obj)
 .text.ev_dma_epin8_handler
                0x0003e514       0x98 zephyr/modules/nordic/lib..__modules__hal__nordic.a(nrfx_usbd.c.obj)
 .text.ev_dma_epin0_handler
                0x0003e5ac       0x58 zephyr/modules/nordic/lib..__modules__hal__nordic.a(nrfx_usbd.c.obj)
 .text.ev_dma_epin1_handler
                0x0003e604       0x58 zephyr/modules/nordic/lib..__modules__hal__nordic.a(nrfx_usbd.c.obj)
 .text.ev_dma_epin2_handler
                0x0003e65c       0x58 zephyr/modules/nordic/lib..__modules__hal__nordic.a(nrfx_usbd.c.obj)
 .text.ev_dma_epin3_handler
                0x0003e6b4       0x58 zephyr/modules/nordic/lib..__modules__hal__nordic.a(nrfx_usbd.c.obj)
 .text.ev_dma_epin4_handler
                0x0003e70c       0x58 zephyr/modules/nordic/lib..__modules__hal__nordic.a(nrfx_usbd.c.obj)
 .text.ev_dma_epin5_handler
                0x0003e764       0x58 zephyr/modules/nordic/lib..__modules__hal__nordic.a(nrfx_usbd.c.obj)
 .text.ev_dma_epin6_handler
                0x0003e7bc       0x58 zephyr/modules/nordic/lib..__modules__hal__nordic.a(nrfx_usbd.c.obj)
 .text.ev_dma_epin7_handler
                0x0003e814       0x58 zephyr/modules/nordic/lib..__modules__hal__nordic.a(nrfx_usbd.c.obj)
 .text.ev_dma_epout1_handler
                0x0003e86c       0x9c zephyr/modules/nordic/lib..__modules__hal__nordic.a(nrfx_usbd.c.obj)
 .text.ev_dma_epout2_handler
                0x0003e908       0xa0 zephyr/modules/nordic/lib..__modules__hal__nordic.a(nrfx_usbd.c.obj)
 .text.ev_dma_epout7_handler
                0x0003e9a8       0xa0 zephyr/modules/nordic/lib..__modules__hal__nordic.a(nrfx_usbd.c.obj)
 .text.ev_dma_epout3_handler
                0x0003ea48       0xa0 zephyr/modules/nordic/lib..__modules__hal__nordic.a(nrfx_usbd.c.obj)
 .text.ev_dma_epout4_handler
                0x0003eae8       0xa0 zephyr/modules/nordic/lib..__modules__hal__nordic.a(nrfx_usbd.c.obj)
 .text.ev_dma_epout5_handler
                0x0003eb88       0xa0 zephyr/modules/nordic/lib..__modules__hal__nordic.a(nrfx_usbd.c.obj)
 .text.nrfx_usbd_init
                0x0003ec28       0x90 zephyr/modules/nordic/lib..__modules__hal__nordic.a(nrfx_usbd.c.obj)
                0x0003ec28                nrfx_usbd_init
 .text.nrfx_usbd_uninit
                0x0003ecb8       0x14 zephyr/modules/nordic/lib..__modules__hal__nordic.a(nrfx_usbd.c.obj)
                0x0003ecb8                nrfx_usbd_uninit
 .text.nrfx_usbd_enable
                0x0003eccc      0x1d0 zephyr/modules/nordic/lib..__modules__hal__nordic.a(nrfx_usbd.c.obj)
                0x0003eccc                nrfx_usbd_enable
 .text.nrfx_usbd_start
                0x0003ee9c       0x58 zephyr/modules/nordic/lib..__modules__hal__nordic.a(nrfx_usbd.c.obj)
                0x0003ee9c                nrfx_usbd_start
 .text.nrfx_usbd_is_enabled
                0x0003eef4       0x14 zephyr/modules/nordic/lib..__modules__hal__nordic.a(nrfx_usbd.c.obj)
                0x0003eef4                nrfx_usbd_is_enabled
 .text.nrfx_usbd_ep_max_packet_size_set
                0x0003ef08       0x20 zephyr/modules/nordic/lib..__modules__hal__nordic.a(nrfx_usbd.c.obj)
                0x0003ef08                nrfx_usbd_ep_max_packet_size_set
 .text.nrfx_usbd_ep_transfer
                0x0003ef28      0x13c zephyr/modules/nordic/lib..__modules__hal__nordic.a(nrfx_usbd.c.obj)
                0x0003ef28                nrfx_usbd_ep_transfer
 .text.nrfx_usbd_ep_status_get
                0x0003f064       0x48 zephyr/modules/nordic/lib..__modules__hal__nordic.a(nrfx_usbd.c.obj)
                0x0003f064                nrfx_usbd_ep_status_get
 .text.nrfx_usbd_ep_stall
                0x0003f0ac       0x10 zephyr/modules/nordic/lib..__modules__hal__nordic.a(nrfx_usbd.c.obj)
                0x0003f0ac                nrfx_usbd_ep_stall
 .text.nrfx_usbd_ep_stall_check
                0x0003f0bc       0x44 zephyr/modules/nordic/lib..__modules__hal__nordic.a(nrfx_usbd.c.obj)
                0x0003f0bc                nrfx_usbd_ep_stall_check
 .text.nrfx_usbd_setup_get
                0x0003f100       0x4c zephyr/modules/nordic/lib..__modules__hal__nordic.a(nrfx_usbd.c.obj)
                0x0003f100                nrfx_usbd_setup_get
 .text.nrfx_usbd_setup_data_clear
                0x0003f14c       0x40 zephyr/modules/nordic/lib..__modules__hal__nordic.a(nrfx_usbd.c.obj)
                0x0003f14c                nrfx_usbd_setup_data_clear
 .text.ev_dma_epout0_handler
                0x0003f18c       0x98 zephyr/modules/nordic/lib..__modules__hal__nordic.a(nrfx_usbd.c.obj)
 .text.nrfx_usbd_setup_clear
                0x0003f224       0x10 zephyr/modules/nordic/lib..__modules__hal__nordic.a(nrfx_usbd.c.obj)
                0x0003f224                nrfx_usbd_setup_clear
 .text.nrfx_usbd_setup_stall
                0x0003f234       0x10 zephyr/modules/nordic/lib..__modules__hal__nordic.a(nrfx_usbd.c.obj)
                0x0003f234                nrfx_usbd_setup_stall
 .text.nrfx_usbd_last_setup_dir_get
                0x0003f244        0xc zephyr/modules/nordic/lib..__modules__hal__nordic.a(nrfx_usbd.c.obj)
                0x0003f244                nrfx_usbd_last_setup_dir_get
 .text.nrfx_usbd_transfer_out_drop
                0x0003f250       0xc8 zephyr/modules/nordic/lib..__modules__hal__nordic.a(nrfx_usbd.c.obj)
                0x0003f250                nrfx_usbd_transfer_out_drop
 .text.ev_setup_handler
                0x0003f318      0x1c4 zephyr/modules/nordic/lib..__modules__hal__nordic.a(nrfx_usbd.c.obj)
 .text.nrfx_usbd_irq_handler
                0x0003f4dc      0x21c zephyr/modules/nordic/lib..__modules__hal__nordic.a(nrfx_usbd.c.obj)
                0x0003f4dc                nrfx_usbd_irq_handler
 .text.nrfx_usbd_ep_enable
                0x0003f6f8       0xa0 zephyr/modules/nordic/lib..__modules__hal__nordic.a(nrfx_usbd.c.obj)
                0x0003f6f8                nrfx_usbd_ep_enable
 .text.nrfx_usbd_ep_stall_clear
                0x0003f798       0x38 zephyr/modules/nordic/lib..__modules__hal__nordic.a(nrfx_usbd.c.obj)
                0x0003f798                nrfx_usbd_ep_stall_clear
 .text.usbd_ep_abort_all
                0x0003f7d0      0x19c zephyr/modules/nordic/lib..__modules__hal__nordic.a(nrfx_usbd.c.obj)
 .text.nrfx_usbd_stop
                0x0003f96c       0x3c zephyr/modules/nordic/lib..__modules__hal__nordic.a(nrfx_usbd.c.obj)
                0x0003f96c                nrfx_usbd_stop
 .text.nrfx_usbd_disable
                0x0003f9a8       0x4c zephyr/modules/nordic/lib..__modules__hal__nordic.a(nrfx_usbd.c.obj)
                0x0003f9a8                nrfx_usbd_disable
 .text.nrfx_usbd_suspend
                0x0003f9f4       0x6c zephyr/modules/nordic/lib..__modules__hal__nordic.a(nrfx_usbd.c.obj)
                0x0003f9f4                nrfx_usbd_suspend
 .text.nrfx_usbd_ep_disable
                0x0003fa60      0x170 zephyr/modules/nordic/lib..__modules__hal__nordic.a(nrfx_usbd.c.obj)
                0x0003fa60                nrfx_usbd_ep_disable
 .text.nrfx_wdt_init
                0x0003fbd0       0x5c zephyr/modules/nordic/lib..__modules__hal__nordic.a(nrfx_wdt.c.obj)
                0x0003fbd0                nrfx_wdt_init
 .text.nrfx_wdt_enable
                0x0003fc2c       0x18 zephyr/modules/nordic/lib..__modules__hal__nordic.a(nrfx_wdt.c.obj)
                0x0003fc2c                nrfx_wdt_enable
 .text.nrfx_wdt_channel_alloc
                0x0003fc44       0x54 zephyr/modules/nordic/lib..__modules__hal__nordic.a(nrfx_wdt.c.obj)
                0x0003fc44                nrfx_wdt_channel_alloc
 .text.nrfx_wdt_channel_feed
                0x0003fc98       0x14 zephyr/modules/nordic/lib..__modules__hal__nordic.a(nrfx_wdt.c.obj)
                0x0003fc98                nrfx_wdt_channel_feed
 .text.nrfx_wdt_0_irq_handler
                0x0003fcac       0x28 zephyr/modules/nordic/lib..__modules__hal__nordic.a(nrfx_wdt.c.obj)
                0x0003fcac                nrfx_wdt_0_irq_handler
 .text.z_sys_device_do_config_level
                0x0003fcd4       0x2c zephyr/kernel/libkernel.a(device.c.obj)
                0x0003fcd4                z_sys_device_do_config_level
 .text.z_impl_device_get_binding
                0x0003fd00       0x44 zephyr/kernel/libkernel.a(device.c.obj)
                0x0003fd00                z_impl_device_get_binding
 .text.device_pm_control_nop
                0x0003fd44        0x4 zephyr/kernel/libkernel.a(device.c.obj)
                0x0003fd44                device_pm_control_nop
 .text.device_list_get
                0x0003fd48       0x24 zephyr/kernel/libkernel.a(device.c.obj)
                0x0003fd48                device_list_get
 .text.z_impl_z_errno
                0x0003fd6c        0xc zephyr/kernel/libkernel.a(errno.c.obj)
                0x0003fd6c                z_impl_z_errno
 .text.arch_system_halt
                0x0003fd78       0x14 zephyr/kernel/libkernel.a(fatal.c.obj)
                0x0003fd78                arch_system_halt
 .text.k_sys_fatal_error_handler
                0x0003fd8c        0x8 zephyr/kernel/libkernel.a(fatal.c.obj)
                0x0003fd8c                k_sys_fatal_error_handler
 .text.z_fatal_error
                0x0003fd94       0x20 zephyr/kernel/libkernel.a(fatal.c.obj)
                0x0003fd94                z_fatal_error
 .text.z_sys_power_save_idle_exit
                0x0003fdb4        0x4 zephyr/kernel/libkernel.a(idle.c.obj)
                0x0003fdb4                z_sys_power_save_idle_exit
 .text.idle     0x0003fdb8       0x50 zephyr/kernel/libkernel.a(idle.c.obj)
                0x0003fdb8                idle
 .text.z_bss_zero
                0x0003fe08       0x14 zephyr/kernel/libkernel.a(init.c.obj)
                0x0003fe08                z_bss_zero
 .text.z_data_copy
                0x0003fe1c       0x34 zephyr/kernel/libkernel.a(init.c.obj)
                0x0003fe1c                z_data_copy
 .text.bg_thread_main
                0x0003fe50       0x28 zephyr/kernel/libkernel.a(init.c.obj)
 .text.z_cstart
                0x0003fe78      0x114 zephyr/kernel/libkernel.a(init.c.obj)
                0x0003fe78                z_cstart
 .text.init_mem_slab_module
                0x0003ff8c       0x48 zephyr/kernel/libkernel.a(mem_slab.c.obj)
 .text.k_mem_slab_init
                0x0003ffd4       0x30 zephyr/kernel/libkernel.a(mem_slab.c.obj)
                0x0003ffd4                k_mem_slab_init
 .text.k_mem_slab_alloc
                0x00040004       0x60 zephyr/kernel/libkernel.a(mem_slab.c.obj)
                0x00040004                k_mem_slab_alloc
 .text.k_mem_slab_free
                0x00040064       0x6c zephyr/kernel/libkernel.a(mem_slab.c.obj)
                0x00040064                k_mem_slab_free
 .text.init_static_pools
                0x000400d0       0x2c zephyr/kernel/libkernel.a(mempool.c.obj)
                0x000400d0                init_static_pools
 .text.k_mem_pool_alloc
                0x000400fc       0x98 zephyr/kernel/libkernel.a(mempool.c.obj)
                0x000400fc                k_mem_pool_alloc
 .text.k_mem_pool_free_id
                0x00040194       0x58 zephyr/kernel/libkernel.a(mempool.c.obj)
                0x00040194                k_mem_pool_free_id
 .text.k_mem_pool_free
                0x000401ec        0x8 zephyr/kernel/libkernel.a(mempool.c.obj)
                0x000401ec                k_mem_pool_free
 .text.k_mem_pool_malloc
                0x000401f4       0x2c zephyr/kernel/libkernel.a(mempool.c.obj)
                0x000401f4                k_mem_pool_malloc
 .text.k_free   0x00040220        0xc zephyr/kernel/libkernel.a(mempool.c.obj)
                0x00040220                k_free
 .text.k_malloc
                0x0004022c        0xc zephyr/kernel/libkernel.a(mempool.c.obj)
                0x0004022c                k_malloc
 .text.z_thread_malloc
                0x00040238       0x18 zephyr/kernel/libkernel.a(mempool.c.obj)
                0x00040238                z_thread_malloc
 .text.z_impl_k_mutex_init
                0x00040250        0xc zephyr/kernel/libkernel.a(mutex.c.obj)
                0x00040250                z_impl_k_mutex_init
 .text.z_impl_k_mutex_lock
                0x0004025c       0xe8 zephyr/kernel/libkernel.a(mutex.c.obj)
                0x0004025c                z_impl_k_mutex_lock
 .text.z_impl_k_mutex_unlock
                0x00040344       0x98 zephyr/kernel/libkernel.a(mutex.c.obj)
                0x00040344                z_impl_k_mutex_unlock
 .text.queue_insert
                0x000403dc       0x9c zephyr/kernel/libkernel.a(queue.c.obj)
 .text.z_impl_k_queue_init
                0x00040478       0x10 zephyr/kernel/libkernel.a(queue.c.obj)
                0x00040478                z_impl_k_queue_init
 .text.k_queue_append
                0x00040488        0xc zephyr/kernel/libkernel.a(queue.c.obj)
                0x00040488                k_queue_append
 .text.k_queue_prepend
                0x00040494        0xc zephyr/kernel/libkernel.a(queue.c.obj)
                0x00040494                k_queue_prepend
 .text.k_queue_append_list
                0x000404a0       0x40 zephyr/kernel/libkernel.a(queue.c.obj)
                0x000404a0                k_queue_append_list
 .text.z_impl_k_queue_get
                0x000404e0       0xe4 zephyr/kernel/libkernel.a(queue.c.obj)
                0x000404e0                z_impl_k_queue_get
 .text.z_reset_time_slice.part.16
                0x000405c4       0x24 zephyr/kernel/libkernel.a(sched.c.obj)
 .text.z_is_t1_higher_prio_than_t2
                0x000405e8       0x14 zephyr/kernel/libkernel.a(sched.c.obj)
                0x000405e8                z_is_t1_higher_prio_than_t2
 .text.k_sched_time_slice_set
                0x000405fc       0x48 zephyr/kernel/libkernel.a(sched.c.obj)
                0x000405fc                k_sched_time_slice_set
 .text.z_find_first_thread_to_unpend
                0x00040644       0x20 zephyr/kernel/libkernel.a(sched.c.obj)
                0x00040644                z_find_first_thread_to_unpend
 .text.z_unpend_thread_no_timeout
                0x00040664       0x34 zephyr/kernel/libkernel.a(sched.c.obj)
                0x00040664                z_unpend_thread_no_timeout
 .text.z_reschedule
                0x00040698       0x18 zephyr/kernel/libkernel.a(sched.c.obj)
                0x00040698                z_reschedule
 .text.z_reschedule_irqlock
                0x000406b0       0x1c zephyr/kernel/libkernel.a(sched.c.obj)
                0x000406b0                z_reschedule_irqlock
 .text.k_sched_lock
                0x000406cc       0x28 zephyr/kernel/libkernel.a(sched.c.obj)
                0x000406cc                k_sched_lock
 .text.z_priq_dumb_remove
                0x000406f4       0x30 zephyr/kernel/libkernel.a(sched.c.obj)
                0x000406f4                z_priq_dumb_remove
 .text.z_unpend_thread
                0x00040724       0x3c zephyr/kernel/libkernel.a(sched.c.obj)
                0x00040724                z_unpend_thread
 .text.z_priq_dumb_best
                0x00040760        0xc zephyr/kernel/libkernel.a(sched.c.obj)
                0x00040760                z_priq_dumb_best
 .text.update_cache
                0x0004076c       0x50 zephyr/kernel/libkernel.a(sched.c.obj)
 .text.k_sched_unlock
                0x000407bc       0x48 zephyr/kernel/libkernel.a(sched.c.obj)
                0x000407bc                k_sched_unlock
 .text.z_add_thread_to_ready_q
                0x00040804       0x74 zephyr/kernel/libkernel.a(sched.c.obj)
                0x00040804                z_add_thread_to_ready_q
 .text.z_thread_timeout
                0x00040878       0x64 zephyr/kernel/libkernel.a(sched.c.obj)
                0x00040878                z_thread_timeout
 .text.z_move_thread_to_end_of_prio_q
                0x000408dc       0xa8 zephyr/kernel/libkernel.a(sched.c.obj)
                0x000408dc                z_move_thread_to_end_of_prio_q
 .text.z_time_slice
                0x00040984       0x74 zephyr/kernel/libkernel.a(sched.c.obj)
                0x00040984                z_time_slice
 .text.z_remove_thread_from_ready_q
                0x000409f8       0x60 zephyr/kernel/libkernel.a(sched.c.obj)
                0x000409f8                z_remove_thread_from_ready_q
 .text.pend     0x00040a58       0x7c zephyr/kernel/libkernel.a(sched.c.obj)
 .text.z_pend_curr_irqlock
                0x00040ad4       0x48 zephyr/kernel/libkernel.a(sched.c.obj)
                0x00040ad4                z_pend_curr_irqlock
 .text.z_pend_curr
                0x00040b1c       0x28 zephyr/kernel/libkernel.a(sched.c.obj)
                0x00040b1c                z_pend_curr
 .text.z_tick_sleep.part.18
                0x00040b44       0x5c zephyr/kernel/libkernel.a(sched.c.obj)
 .text.z_set_prio
                0x00040ba0       0x98 zephyr/kernel/libkernel.a(sched.c.obj)
                0x00040ba0                z_set_prio
 .text.z_unpend_first_thread
                0x00040c38       0x5c zephyr/kernel/libkernel.a(sched.c.obj)
                0x00040c38                z_unpend_first_thread
 .text.z_unpend_all
                0x00040c94       0x38 zephyr/kernel/libkernel.a(sched.c.obj)
                0x00040c94                z_unpend_all
 .text.z_sched_init
                0x00040ccc       0x18 zephyr/kernel/libkernel.a(sched.c.obj)
                0x00040ccc                z_sched_init
 .text.z_impl_k_yield
                0x00040ce4       0xc0 zephyr/kernel/libkernel.a(sched.c.obj)
                0x00040ce4                z_impl_k_yield
 .text.z_impl_k_sleep
                0x00040da4       0x28 zephyr/kernel/libkernel.a(sched.c.obj)
                0x00040da4                z_impl_k_sleep
 .text.z_impl_k_current_get
                0x00040dcc        0xc zephyr/kernel/libkernel.a(sched.c.obj)
                0x00040dcc                z_impl_k_current_get
 .text.z_impl_k_sem_init
                0x00040dd8       0x14 zephyr/kernel/libkernel.a(sem.c.obj)
                0x00040dd8                z_impl_k_sem_init
 .text.z_impl_k_sem_give
                0x00040dec       0x64 zephyr/kernel/libkernel.a(sem.c.obj)
                0x00040dec                z_impl_k_sem_give
 .text.z_impl_k_sem_take
                0x00040e50       0x4c zephyr/kernel/libkernel.a(sem.c.obj)
                0x00040e50                z_impl_k_sem_take
 .text.k_sys_work_q_init
                0x00040e9c       0x30 zephyr/kernel/libkernel.a(system_work_q.c.obj)
 .text.k_is_in_isr
                0x00040ecc        0xc zephyr/kernel/libkernel.a(thread.c.obj)
                0x00040ecc                k_is_in_isr
 .text.z_impl_k_busy_wait
                0x00040ed8        0x4 zephyr/kernel/libkernel.a(thread.c.obj)
                0x00040ed8                z_impl_k_busy_wait
 .text.z_impl_k_thread_name_set
                0x00040edc        0x8 zephyr/kernel/libkernel.a(thread.c.obj)
                0x00040edc                z_impl_k_thread_name_set
 .text.z_impl_k_thread_start
                0x00040ee4       0x54 zephyr/kernel/libkernel.a(thread.c.obj)
                0x00040ee4                z_impl_k_thread_start
 .text.z_new_thread_init
                0x00040f38       0x20 zephyr/kernel/libkernel.a(thread.c.obj)
                0x00040f38                z_new_thread_init
 .text.z_setup_new_thread
                0x00040f58       0x30 zephyr/kernel/libkernel.a(thread.c.obj)
                0x00040f58                z_setup_new_thread
 .text.z_impl_k_thread_create
                0x00040f88       0x58 zephyr/kernel/libkernel.a(thread.c.obj)
                0x00040f88                z_impl_k_thread_create
 .text.z_thread_single_suspend
                0x00040fe0       0x24 zephyr/kernel/libkernel.a(thread.c.obj)
                0x00040fe0                z_thread_single_suspend
 .text.z_impl_k_thread_suspend
                0x00041004       0x40 zephyr/kernel/libkernel.a(thread.c.obj)
                0x00041004                z_impl_k_thread_suspend
 .text.z_thread_single_abort
                0x00041044       0x5c zephyr/kernel/libkernel.a(thread.c.obj)
                0x00041044                z_thread_single_abort
 .text.z_init_static_threads
                0x000410a0       0xc0 zephyr/kernel/libkernel.a(thread.c.obj)
                0x000410a0                z_init_static_threads
 .text.work_cancel
                0x00041160       0x90 zephyr/kernel/libkernel.a(work_q.c.obj)
 .text.work_timeout
                0x000411f0       0x34 zephyr/kernel/libkernel.a(work_q.c.obj)
 .text.k_work_q_start
                0x00041224       0x48 zephyr/kernel/libkernel.a(work_q.c.obj)
                0x00041224                k_work_q_start
 .text.k_delayed_work_init
                0x0004126c       0x10 zephyr/kernel/libkernel.a(work_q.c.obj)
                0x0004126c                k_delayed_work_init
 .text.k_delayed_work_submit_to_queue
                0x0004127c       0x98 zephyr/kernel/libkernel.a(work_q.c.obj)
                0x0004127c                k_delayed_work_submit_to_queue
 .text.k_delayed_work_cancel
                0x00041314       0x2c zephyr/kernel/libkernel.a(work_q.c.obj)
                0x00041314                k_delayed_work_cancel
 .text.next_timeout
                0x00041340       0x48 zephyr/kernel/libkernel.a(timeout.c.obj)
 .text.z_add_timeout
                0x00041388       0xb0 zephyr/kernel/libkernel.a(timeout.c.obj)
                0x00041388                z_add_timeout
 .text.z_abort_timeout
                0x00041438       0x50 zephyr/kernel/libkernel.a(timeout.c.obj)
                0x00041438                z_abort_timeout
 .text.z_timeout_remaining
                0x00041488       0x68 zephyr/kernel/libkernel.a(timeout.c.obj)
                0x00041488                z_timeout_remaining
 .text.z_get_next_timeout_expiry
                0x000414f0       0x20 zephyr/kernel/libkernel.a(timeout.c.obj)
                0x000414f0                z_get_next_timeout_expiry
 .text.z_set_timeout_expiry
                0x00041510       0x34 zephyr/kernel/libkernel.a(timeout.c.obj)
                0x00041510                z_set_timeout_expiry
 .text.z_clock_announce
                0x00041544       0xe8 zephyr/kernel/libkernel.a(timeout.c.obj)
                0x00041544                z_clock_announce
 .text.z_tick_get
                0x0004162c       0x3c zephyr/kernel/libkernel.a(timeout.c.obj)
                0x0004162c                z_tick_get
 .text.z_tick_get_32
                0x00041668        0x8 zephyr/kernel/libkernel.a(timeout.c.obj)
                0x00041668                z_tick_get_32
 .text.z_impl_k_uptime_get
                0x00041670        0x4 zephyr/kernel/libkernel.a(timeout.c.obj)
                0x00041670                z_impl_k_uptime_get
 .text.z_timer_expiration_handler
                0x00041674       0x50 zephyr/kernel/libkernel.a(timer.c.obj)
                0x00041674                z_timer_expiration_handler
 .text.z_impl_k_timer_start
                0x000416c4       0x2c zephyr/kernel/libkernel.a(timer.c.obj)
                0x000416c4                z_impl_k_timer_start
 .text.z_impl_k_timer_stop
                0x000416f0       0x50 zephyr/kernel/libkernel.a(timer.c.obj)
                0x000416f0                z_impl_k_timer_stop
 .text.k_poll_poller_cb
                0x00041740       0x44 zephyr/kernel/libkernel.a(poll.c.obj)
 .text.k_poll_event_init
                0x00041784       0x30 zephyr/kernel/libkernel.a(poll.c.obj)
                0x00041784                k_poll_event_init
 .text.z_impl_k_poll
                0x000417b4      0x37c zephyr/kernel/libkernel.a(poll.c.obj)
                0x000417b4                z_impl_k_poll
 .text.z_handle_obj_poll_events
                0x00041b30       0x44 zephyr/kernel/libkernel.a(poll.c.obj)
                0x00041b30                z_handle_obj_poll_events
 .text.z_impl_k_poll_signal_raise
                0x00041b74       0x74 zephyr/kernel/libkernel.a(poll.c.obj)
                0x00041b74                z_impl_k_poll_signal_raise
 .text._OffsetAbsSyms
                0x00041be8        0x4 zephyr/CMakeFiles/offsets.dir/arch/arm/core/offsets/offsets.c.obj
                0x00041be8                _OffsetAbsSyms
 .text.nrf_cc310_platform_init_no_rng
                0x00041bec       0x34 C:/ncs.sojkk/nrfxlib/crypto/nrf_cc310_platform/lib/cortex-m4/soft-float/no-interrupts/libnrf_cc310_platform_0.9.1.a(nrf_cc310_platform.c.obj)
                0x00041bec                nrf_cc310_platform_init_no_rng
 .text.nrf_cc310_platform_abort
                0x00041c20       0x24 C:/ncs.sojkk/nrfxlib/crypto/nrf_cc310_platform/lib/cortex-m4/soft-float/no-interrupts/libnrf_cc310_platform_0.9.1.a(nrf_cc310_platform_abort.c.obj)
 .text.CC_PalAbort
                0x00041c44        0xc C:/ncs.sojkk/nrfxlib/crypto/nrf_cc310_platform/lib/cortex-m4/soft-float/no-interrupts/libnrf_cc310_platform_0.9.1.a(nrf_cc310_platform_abort.c.obj)
                0x00041c44                CC_PalAbort
 .text.nrf_cc310_platform_set_abort
                0x00041c50       0x10 C:/ncs.sojkk/nrfxlib/crypto/nrf_cc310_platform/lib/cortex-m4/soft-float/no-interrupts/libnrf_cc310_platform_0.9.1.a(nrf_cc310_platform_abort.c.obj)
                0x00041c50                nrf_cc310_platform_set_abort
 .text.mutex_free
                0x00041c60        0x4 C:/ncs.sojkk/nrfxlib/crypto/nrf_cc310_platform/lib/cortex-m4/soft-float/no-interrupts/libnrf_cc310_platform_0.9.1.a(nrf_cc310_platform_mutex.c.obj)
 .text.mutex_unlock
                0x00041c64       0x24 C:/ncs.sojkk/nrfxlib/crypto/nrf_cc310_platform/lib/cortex-m4/soft-float/no-interrupts/libnrf_cc310_platform_0.9.1.a(nrf_cc310_platform_mutex.c.obj)
 .text.mutex_init
                0x00041c88       0x1c C:/ncs.sojkk/nrfxlib/crypto/nrf_cc310_platform/lib/cortex-m4/soft-float/no-interrupts/libnrf_cc310_platform_0.9.1.a(nrf_cc310_platform_mutex.c.obj)
 .text.mutex_lock
                0x00041ca4       0x24 C:/ncs.sojkk/nrfxlib/crypto/nrf_cc310_platform/lib/cortex-m4/soft-float/no-interrupts/libnrf_cc310_platform_0.9.1.a(nrf_cc310_platform_mutex.c.obj)
 .text.nrf_cc310_platform_set_mutexes
                0x00041cc8       0x38 C:/ncs.sojkk/nrfxlib/crypto/nrf_cc310_platform/lib/cortex-m4/soft-float/no-interrupts/libnrf_cc310_platform_0.9.1.a(nrf_cc310_platform_mutex.c.obj)
                0x00041cc8                nrf_cc310_platform_set_mutexes
 .text.CC_LibInitNoRng
                0x00041d00       0x6c C:/ncs.sojkk/nrfxlib/crypto/nrf_cc310_platform/lib/cortex-m4/soft-float/no-interrupts/libnrf_cc310_platform_0.9.1.a(cc_lib.c.obj)
                0x00041d00                CC_LibInitNoRng
 .text.CC_HalInit
                0x00041d6c        0x4 C:/ncs.sojkk/nrfxlib/crypto/nrf_cc310_platform/lib/cortex-m4/soft-float/no-interrupts/libnrf_cc310_platform_0.9.1.a(cc_hal.c.obj)
                0x00041d6c                CC_HalInit
 .text.CC_HalTerminate
                0x00041d70        0x4 C:/ncs.sojkk/nrfxlib/crypto/nrf_cc310_platform/lib/cortex-m4/soft-float/no-interrupts/libnrf_cc310_platform_0.9.1.a(cc_hal.c.obj)
                0x00041d70                CC_HalTerminate
 .text.CC_PalInit
                0x00041d74       0x5c C:/ncs.sojkk/nrfxlib/crypto/nrf_cc310_platform/lib/cortex-m4/soft-float/no-interrupts/libnrf_cc310_platform_0.9.1.a(cc_pal.c.obj)
                0x00041d74                CC_PalInit
 .text.CC_PalTerminate
                0x00041dd0       0x34 C:/ncs.sojkk/nrfxlib/crypto/nrf_cc310_platform/lib/cortex-m4/soft-float/no-interrupts/libnrf_cc310_platform_0.9.1.a(cc_pal.c.obj)
                0x00041dd0                CC_PalTerminate
 .text.CC_PalDmaInit
                0x00041e04        0x4 C:/ncs.sojkk/nrfxlib/crypto/nrf_cc310_platform/lib/cortex-m4/soft-float/no-interrupts/libnrf_cc310_platform_0.9.1.a(cc_pal_dma.c.obj)
                0x00041e04                CC_PalDmaInit
 .text.CC_PalDmaTerminate
                0x00041e08        0x4 C:/ncs.sojkk/nrfxlib/crypto/nrf_cc310_platform/lib/cortex-m4/soft-float/no-interrupts/libnrf_cc310_platform_0.9.1.a(cc_pal_dma.c.obj)
                0x00041e08                CC_PalDmaTerminate
 .text.CC_PalMutexCreate
                0x00041e0c       0x14 C:/ncs.sojkk/nrfxlib/crypto/nrf_cc310_platform/lib/cortex-m4/soft-float/no-interrupts/libnrf_cc310_platform_0.9.1.a(cc_pal_mutex.c.obj)
                0x00041e0c                CC_PalMutexCreate
 .text.CC_PalMutexDestroy
                0x00041e20       0x14 C:/ncs.sojkk/nrfxlib/crypto/nrf_cc310_platform/lib/cortex-m4/soft-float/no-interrupts/libnrf_cc310_platform_0.9.1.a(cc_pal_mutex.c.obj)
                0x00041e20                CC_PalMutexDestroy
 .text.CC_PalPowerSaveModeInit
                0x00041e34       0x3c C:/ncs.sojkk/nrfxlib/crypto/nrf_cc310_platform/lib/cortex-m4/soft-float/no-interrupts/libnrf_cc310_platform_0.9.1.a(cc_pal_pm.c.obj)
                0x00041e34                CC_PalPowerSaveModeInit
 .text.CC_PalPowerSaveModeSelect
                0x00041e70       0x68 C:/ncs.sojkk/nrfxlib/crypto/nrf_cc310_platform/lib/cortex-m4/soft-float/no-interrupts/libnrf_cc310_platform_0.9.1.a(cc_pal_pm.c.obj)
                0x00041e70                CC_PalPowerSaveModeSelect
 *(SORT_BY_ALIGNMENT(.gnu.linkonce.t.*))
 *(SORT_BY_ALIGNMENT(.glue_7t))
 .glue_7t       0x00041ed8        0x0 linker stubs
 *(SORT_BY_ALIGNMENT(.glue_7))
 .glue_7        0x00041ed8        0x0 linker stubs
 *(SORT_BY_ALIGNMENT(.vfp11_veneer))
 .vfp11_veneer  0x00041ed8        0x0 linker stubs
 *(SORT_BY_ALIGNMENT(.v4_bx))
 .v4_bx         0x00041ed8        0x0 linker stubs
                0x00041ed8                _image_text_end = .

.ARM.exidx      0x00041ed8        0x8
                0x00041ed8                __exidx_start = .
 *(SORT_BY_ALIGNMENT(.ARM.exidx*) SORT_BY_ALIGNMENT(gnu.linkonce.armexidx.*))
 .ARM.exidx     0x00041ed8        0x8 c:/program files (x86)/gnu tools arm embedded/7 2018-q2-update/bin/../lib/gcc/arm-none-eabi/7.3.1/thumb/v7e-m\libgcc.a(_udivmoddi4.o)
                0x00041ee0                __exidx_end = .
                0x00041ee0                _image_rodata_start = .

sw_isr_table    0x00041ee0      0x180
                0x00041ee0                . = ALIGN (0x0)
 *(SORT_BY_ALIGNMENT(.gnu.linkonce.sw_isr_table))
 .gnu.linkonce.sw_isr_table
                0x00041ee0      0x180 zephyr/arch/common/libarch__common.a(isr_tables.c.obj)
                0x00041ee0                _sw_isr_table

app_shmem_regions
                0x00042060        0x0
                0x00042060                __app_shmem_regions_start = .
 *(SORT_BY_NAME(SORT_BY_ALIGNMENT(.app_regions.*)))
                0x00042060                __app_shmem_regions_end = .

devconfig       0x00042060      0x208
                0x00042060                __devconfig_start = .
 *(SORT_BY_ALIGNMENT(.devconfig.*))
 .devconfig.init
                0x00042060       0x14 zephyr/libzephyr.a(usb_device.c.obj)
 .devconfig.init
                0x00042074       0x14 zephyr/libzephyr.a(power.c.obj)
 .devconfig.init
                0x00042088       0x14 zephyr/libzephyr.a(wdt_nrfx.c.obj)
 .devconfig.init
                0x0004209c       0x14 zephyr/libzephyr.a(sys_clock_init.c.obj)
 .devconfig.init
                0x000420b0       0x14 zephyr/arch/arch/arm/core/cortex_m/mpu/libarch__arm__core__cortex_m__mpu.a(arm_mpu.c.obj)
 .devconfig.init
                0x000420c4       0x14 zephyr/soc/arm/nordic_nrf/nrf52/libsoc__arm__nordic_nrf__nrf52.a(soc.c.obj)
 .devconfig.init
                0x000420d8       0x14 zephyr/subsys/usb/class/hid/libsubsys__usb__class__hid.a(core.c.obj)
 .devconfig.init
                0x000420ec       0x14 zephyr/drivers/adc/libdrivers__adc.a(adc_nrfx_saadc.c.obj)
 .devconfig.init
                0x00042100       0x28 zephyr/drivers/gpio/libdrivers__gpio.a(gpio_nrfx.c.obj)
 .devconfig.init
                0x00042128       0x28 zephyr/drivers/pwm/libdrivers__pwm.a(pwm_nrfx.c.obj)
 .devconfig.init
                0x00042150       0x14 zephyr/drivers/sensor/qdec_nrfx/libdrivers__sensor__qdec_nrfx.a(qdec_nrfx.c.obj)
 .devconfig.init
                0x00042164       0x14 zephyr/drivers/sensor/nrf5/libdrivers__sensor__nrf5.a(temp_nrf5.c.obj)
 .devconfig.init
                0x00042178       0x14 zephyr/drivers/spi/libdrivers__spi.a(spi_nrfx_spim.c.obj)
 .devconfig.init
                0x0004218c       0x14 zephyr/drivers/flash/libdrivers__flash.a(flash_ll_nrfxlib.c.obj)
 .devconfig.init
                0x000421a0       0x14 zephyr/drivers/entropy/libdrivers__entropy.a(entropy_ll_nrfxlib.c.obj)
 .devconfig.init
                0x000421b4       0x28 zephyr/modules/nrf/subsys/bluetooth/controller/lib..__nrf__subsys__bluetooth__controller.a(hci_driver.c.obj)
 .devconfig.init
                0x000421dc       0x14 zephyr/modules/nrf/drivers/sensor/pmw3360/lib..__nrf__drivers__sensor__pmw3360.a(pmw3360.c.obj)
 .devconfig.init
                0x000421f0       0x28 zephyr/modules/nrf/drivers/clock_control/lib..__nrf__drivers__clock_control.a(clock_control_nrfxlib.c.obj)
 .devconfig.init
                0x00042218       0x14 zephyr/modules/nrf/drivers/hw_cc310/lib..__nrf__drivers__hw_cc310.a(hw_cc310.c.obj)
 .devconfig.init
                0x0004222c       0x14 zephyr/kernel/libkernel.a(mem_slab.c.obj)
 .devconfig.init
                0x00042240       0x14 zephyr/kernel/libkernel.a(mempool.c.obj)
 .devconfig.init
                0x00042254       0x14 zephyr/kernel/libkernel.a(system_work_q.c.obj)
 *(SORT_BY_NAME(SORT_BY_ALIGNMENT(.devconfig*)))
                0x00042268                __devconfig_end = .

net_l2          0x00042268        0x0
                0x00042268                __net_l2_start = .
 *(SORT_BY_ALIGNMENT(.net_l2.init))
 *(SORT_BY_NAME(SORT_BY_ALIGNMENT(.net_l2.init*)))
                0x00042268                __net_l2_end = .

_bt_channels_area
                0x00042268       0x18
                0x00042268                _bt_l2cap_fixed_chan_list_start = .
 *(SORT_BY_NAME(SORT_BY_ALIGNMENT(._bt_l2cap_fixed_chan.static.*)))
 ._bt_l2cap_fixed_chan.static.att_fixed_chan
                0x00042268        0x8 zephyr/subsys/bluetooth/host/libsubsys__bluetooth__host.a(att.c.obj)
                0x00042268                att_fixed_chan
 ._bt_l2cap_fixed_chan.static.le_fixed_chan
                0x00042270        0x8 zephyr/subsys/bluetooth/host/libsubsys__bluetooth__host.a(l2cap.c.obj)
                0x00042270                le_fixed_chan
 ._bt_l2cap_fixed_chan.static.smp_fixed_chan
                0x00042278        0x8 zephyr/subsys/bluetooth/host/libsubsys__bluetooth__host.a(smp.c.obj)
                0x00042278                smp_fixed_chan
                0x00042280                _bt_l2cap_fixed_chan_list_end = .

_bt_services_area
                0x00042280       0x28
                0x00042280                _bt_gatt_service_static_list_start = .
 *(SORT_BY_NAME(SORT_BY_ALIGNMENT(._bt_gatt_service_static.static.*)))
 ._bt_gatt_service_static.static._1_gatt_svc
                0x00042280        0x8 zephyr/subsys/bluetooth/host/libsubsys__bluetooth__host.a(gatt.c.obj)
                0x00042280                _1_gatt_svc
 ._bt_gatt_service_static.static._2_gap_svc
                0x00042288        0x8 zephyr/subsys/bluetooth/host/libsubsys__bluetooth__host.a(gatt.c.obj)
                0x00042288                _2_gap_svc
 ._bt_gatt_service_static.static.bas_svc
                0x00042290        0x8 app/libapp.a(bas.c.obj)
                0x00042290                bas_svc
 ._bt_gatt_service_static.static.custom_desc_svc
                0x00042298        0x8 app/libapp.a(dev_descr.c.obj)
                0x00042298                custom_desc_svc
 ._bt_gatt_service_static.static.dis_svc
                0x000422a0        0x8 zephyr/libzephyr.a(dis.c.obj)
                0x000422a0                dis_svc
                0x000422a8                _bt_gatt_service_static_list_end = .

_settings_handlers_area
                0x000422a8       0x78
                0x000422a8                _settings_handler_static_list_start = .
 *(SORT_BY_NAME(SORT_BY_ALIGNMENT(._settings_handler_static.static.*)))
 ._settings_handler_static.static.settings_handler_bt
                0x000422a8       0x14 zephyr/subsys/bluetooth/host/libsubsys__bluetooth__host.a(settings.c.obj)
                0x000422a8                settings_handler_bt
 ._settings_handler_static.static.settings_handler_bt_ccc
                0x000422bc       0x14 zephyr/subsys/bluetooth/host/libsubsys__bluetooth__host.a(gatt.c.obj)
                0x000422bc                settings_handler_bt_ccc
 ._settings_handler_static.static.settings_handler_bt_cf
                0x000422d0       0x14 zephyr/subsys/bluetooth/host/libsubsys__bluetooth__host.a(gatt.c.obj)
                0x000422d0                settings_handler_bt_cf
 ._settings_handler_static.static.settings_handler_bt_hash
                0x000422e4       0x14 zephyr/subsys/bluetooth/host/libsubsys__bluetooth__host.a(gatt.c.obj)
                0x000422e4                settings_handler_bt_hash
 ._settings_handler_static.static.settings_handler_bt_keys
                0x000422f8       0x14 zephyr/subsys/bluetooth/host/libsubsys__bluetooth__host.a(keys.c.obj)
                0x000422f8                settings_handler_bt_keys
 ._settings_handler_static.static.settings_handler_bt_sc
                0x0004230c       0x14 zephyr/subsys/bluetooth/host/libsubsys__bluetooth__host.a(gatt.c.obj)
                0x0004230c                settings_handler_bt_sc
                0x00042320                _settings_handler_static_list_end = .

log_const_sections
                0x00042320        0x0
                0x00042320                __log_const_start = .
 *(SORT_BY_NAME(SORT_BY_ALIGNMENT(.log_const_*)))
                0x00042320                __log_const_end = .

log_backends_sections
                0x00042320        0x0
                0x00042320                __log_backends_start = .
 *(SORT_BY_ALIGNMENT(._log_backend.*))
                0x00042320                __log_backends_end = .

shell_root_cmds_sections
                0x00042320        0x0
                0x00042320                __shell_root_cmds_start = .
 *(SORT_BY_NAME(SORT_BY_ALIGNMENT(.shell_root_cmd_*)))
                0x00042320                __shell_root_cmds_end = .

font_entry_sections
                0x00042320        0x0
                0x00042320                __font_entry_start = .
 *(SORT_BY_NAME(SORT_BY_ALIGNMENT(._cfb_font.*)))
                0x00042320                __font_entry_end = .

rodata          0x00042320     0x2c4c
 *(SORT_BY_ALIGNMENT(.rodata))
 .rodata        0x00042320       0x2c zephyr/libzephyr.a(aes_encrypt.c.obj)
 .rodata        0x0004234c        0x6 zephyr/subsys/bluetooth/host/libsubsys__bluetooth__host.a(hci_core.c.obj)
 *fill*         0x00042352        0x2 
 .rodata        0x00042354        0x8 zephyr/subsys/bluetooth/host/libsubsys__bluetooth__host.a(conn.c.obj)
 .rodata        0x0004235c        0x2 zephyr/subsys/bluetooth/host/libsubsys__bluetooth__host.a(smp.c.obj)
 *(SORT_BY_ALIGNMENT(.rodata.*))
 *fill*         0x0004235e        0x2 
 .rodata.delay_machine_code.9016
                0x00042360        0x6 zephyr/soc/arm/nordic_nrf/nrf52/libsoc__arm__nordic_nrf__nrf52.a(soc.c.obj)
 *fill*         0x00042366        0x2 
 .rodata.__module_main
                0x00042368        0x4 app/libapp.a(main.c.obj)
                0x00042368                __module_main
 .rodata.main.str1.4
                0x0004236c       0x21 app/libapp.a(main.c.obj)
 *fill*         0x0004238d        0x3 
 .rodata.hid_report_desc
                0x00042390       0x51 app/libapp.a(hid_report_desc.c.obj)
                0x00042390                hid_report_desc
 *fill*         0x000423e1        0x3 
 .rodata.hid_report_desc_size
                0x000423e4        0x4 app/libapp.a(hid_report_desc.c.obj)
                0x000423e4                hid_report_desc_size
 .rodata.battery_level_event_log_arg_types
                0x000423e8        0x0 app/libapp.a(battery_event.c.obj)
 .rodata.battery_state_event_log_arg_types
                0x000423e8        0x0 app/libapp.a(battery_event.c.obj)
 .rodata.log_battery_level_event.str1.4
                0x000423e8        0x9 app/libapp.a(battery_event.c.obj)
 *fill*         0x000423f1        0x3 
 .rodata.log_battery_state_event.str1.4
                0x000423f4        0xb app/libapp.a(battery_event.c.obj)
 *fill*         0x000423ff        0x1 
 .rodata.state_name
                0x00042400        0xc app/libapp.a(battery_event.c.obj)
 .rodata.str1.4
                0x0004240c       0x42 app/libapp.a(battery_event.c.obj)
 *fill*         0x0004244e        0x2 
 .rodata.ble_peer_event_log_arg_types
                0x00042450        0x0 app/libapp.a(ble_event.c.obj)
 .rodata.ble_peer_operation_event_log_arg_types
                0x00042450        0x0 app/libapp.a(ble_event.c.obj)
 .rodata.ble_peer_search_event_log_arg_types
                0x00042450        0x0 app/libapp.a(ble_event.c.obj)
 .rodata.log_ble_peer_event.str1.4
                0x00042450        0x9 app/libapp.a(ble_event.c.obj)
 *fill*         0x00042459        0x3 
 .rodata.log_ble_peer_operation_event.str1.4
                0x0004245c       0x1f app/libapp.a(ble_event.c.obj)
 *fill*         0x0004247b        0x1 
 .rodata.log_ble_peer_search_event.str1.4
                0x0004247c        0xd app/libapp.a(ble_event.c.obj)
                                 0x11 (size before relaxing)
 *fill*         0x00042489        0x3 
 .rodata.op_name
                0x0004248c       0x20 app/libapp.a(ble_event.c.obj)
 .rodata.state_name
                0x000424ac       0x10 app/libapp.a(ble_event.c.obj)
 .rodata.str1.4
                0x000424bc       0xf0 app/libapp.a(ble_event.c.obj)
 .rodata.button_event_log_arg_types
                0x000425ac        0x0 app/libapp.a(button_event.c.obj)
 .rodata.log_button_event.str1.4
                0x000425ac       0x23 app/libapp.a(button_event.c.obj)
 *fill*         0x000425cf        0x1 
 .rodata.str1.4
                0x000425d0        0xd app/libapp.a(button_event.c.obj)
 *fill*         0x000425dd        0x3 
 .rodata.click_event_log_arg_types
                0x000425e0        0x0 app/libapp.a(click_event.c.obj)
 .rodata.click_name
                0x000425e0       0x10 app/libapp.a(click_event.c.obj)
 .rodata.log_click_event.str1.4
                0x000425f0       0x15 app/libapp.a(click_event.c.obj)
 *fill*         0x00042605        0x3 
 .rodata.str1.4
                0x00042608       0x2b app/libapp.a(click_event.c.obj)
 *fill*         0x00042633        0x1 
 .rodata.log_selector_event.str1.4
                0x00042634       0x14 app/libapp.a(selector_event.c.obj)
 .rodata.selector_event_log_arg_types
                0x00042648        0x0 app/libapp.a(selector_event.c.obj)
 .rodata.str1.4
                0x00042648        0xf app/libapp.a(selector_event.c.obj)
 *fill*         0x00042657        0x1 
 .rodata.hid_consumer_ctrl_event_log_arg_types
                0x00042658        0x0 app/libapp.a(hid_event.c.obj)
 .rodata.hid_mouse_event_log_arg_types
                0x00042658        0x0 app/libapp.a(hid_event.c.obj)
 .rodata.hid_report_sent_event_log_arg_types
                0x00042658        0x0 app/libapp.a(hid_event.c.obj)
 .rodata.hid_report_subscriber_event_log_arg_types
                0x00042658        0x0 app/libapp.a(hid_event.c.obj)
 .rodata.hid_report_subscription_event_log_arg_types
                0x00042658        0x0 app/libapp.a(hid_event.c.obj)
 .rodata.in_report_name
                0x00042658        0xc app/libapp.a(hid_event.c.obj)
 .rodata.log_hid_consumer_ctrl_event.str1.4
                0x00042664       0x12 app/libapp.a(hid_event.c.obj)
 *fill*         0x00042676        0x2 
 .rodata.log_hid_keyboard_event.str1.4
                0x00042678       0x1f app/libapp.a(hid_event.c.obj)
 *fill*         0x00042697        0x1 
 .rodata.log_hid_mouse_event.str1.4
                0x00042698       0x28 app/libapp.a(hid_event.c.obj)
 .rodata.log_hid_report_sent_event.str1.4
                0x000426c0       0x39 app/libapp.a(hid_event.c.obj)
 *fill*         0x000426f9        0x3 
 .rodata.log_hid_report_subscriber_event.str1.4
                0x000426fc       0x29 app/libapp.a(hid_event.c.obj)
                                 0x2d (size before relaxing)
 *fill*         0x00042725        0x3 
 .rodata.log_hid_report_subscription_event.str1.4
                0x00042728       0x29 app/libapp.a(hid_event.c.obj)
 *fill*         0x00042751        0x3 
 .rodata.str1.4
                0x00042754       0xb6 app/libapp.a(hid_event.c.obj)
 *fill*         0x0004280a        0x2 
 .rodata.log_led_event.str1.4
                0x0004280c       0x14 app/libapp.a(led_event.c.obj)
 .rodata.str1.4
                0x00042820       0x1a app/libapp.a(led_event.c.obj)
 *fill*         0x0004283a        0x2 
 .rodata.config_event_log_arg_types
                0x0004283c        0x0 app/libapp.a(config_event.c.obj)
 .rodata.config_fetch_event_log_arg_types
                0x0004283c        0x0 app/libapp.a(config_event.c.obj)
 .rodata.config_fetch_request_event_log_arg_types
                0x0004283c        0x0 app/libapp.a(config_event.c.obj)
 .rodata.log_config_event.str1.4
                0x0004283c        0x6 app/libapp.a(config_event.c.obj)
 *fill*         0x00042842        0x2 
 .rodata.str1.4
                0x00042844       0x89 app/libapp.a(config_event.c.obj)
 *fill*         0x000428cd        0x3 
 .rodata.log_module_state_event.str1.4
                0x000428d0       0x13 app/libapp.a(module_state_event.c.obj)
 *fill*         0x000428e3        0x1 
 .rodata.state_name
                0x000428e4       0x10 app/libapp.a(module_state_event.c.obj)
 .rodata.str1.4
                0x000428f4       0x28 app/libapp.a(module_state_event.c.obj)
                                 0x2e (size before relaxing)
 .rodata.log_motion_event.str1.4
                0x0004291c        0xd app/libapp.a(motion_event.c.obj)
 *fill*         0x00042929        0x3 
 .rodata.motion_event_log_arg_types
                0x0004292c        0x0 app/libapp.a(motion_event.c.obj)
 .rodata.str1.4
                0x0004292c        0xd app/libapp.a(motion_event.c.obj)
 *fill*         0x00042939        0x3 
 .rodata.str1.4
                0x0004293c       0x21 app/libapp.a(power_event.c.obj)
 *fill*         0x0004295d        0x3 
 .rodata.log_wheel_event.str1.4
                0x00042960        0x9 app/libapp.a(wheel_event.c.obj)
 *fill*         0x00042969        0x3 
 .rodata.str1.4
                0x0004296c        0xc app/libapp.a(wheel_event.c.obj)
 .rodata.log_usb_state_event.str1.4
                0x00042978        0xf app/libapp.a(usb_event.c.obj)
 *fill*         0x00042987        0x1 
 .rodata.state_name
                0x00042988       0x10 app/libapp.a(usb_event.c.obj)
 .rodata.str1.4
                0x00042998       0x2a app/libapp.a(usb_event.c.obj)
                                 0x3a (size before relaxing)
 *fill*         0x000429c2        0x2 
 .rodata.log_hid_notification_event.str1.4
                0x000429c4       0x21 app/libapp.a(hids_event.c.obj)
 *fill*         0x000429e5        0x3 
 .rodata.str1.4
                0x000429e8       0x17 app/libapp.a(hids_event.c.obj)
 *fill*         0x000429ff        0x1 
 .rodata.port0_off
                0x00042a00        0x0 app/libapp.a(board.c.obj)
 .rodata.port0_on
                0x00042a00       0x18 app/libapp.a(board.c.obj)
 .rodata.port1_off
                0x00042a18        0x8 app/libapp.a(board.c.obj)
 .rodata.port1_on
                0x00042a20       0x20 app/libapp.a(board.c.obj)
 .rodata.port_state_off
                0x00042a40       0x18 app/libapp.a(board.c.obj)
 .rodata.port_state_on
                0x00042a58       0x18 app/libapp.a(board.c.obj)
 .rodata.str1.4
                0x00042a70        0xf app/libapp.a(board.c.obj)
 *fill*         0x00042a7f        0x1 
 .rodata.turn_board_on.str1.4
                0x00042a80        0x6 app/libapp.a(board.c.obj)
                                 0x22 (size before relaxing)
 *fill*         0x00042a86        0x2 
 .rodata.CSWTCH.70
                0x00042a88        0x4 app/libapp.a(motion_sensor.c.obj)
 .rodata.__module_motion
                0x00042a8c        0x4 app/libapp.a(motion_sensor.c.obj)
                0x00042a8c                __module_motion
 .rodata.data_ready_handler.str1.4
                0x00042a90       0x19 app/libapp.a(motion_sensor.c.obj)
 .rodata.event_handler.str1.4
                0x00042a90        0xe app/libapp.a(motion_sensor.c.obj)
 *fill*         0x00042a9e        0x2 
 .rodata.motion_sensor_option_attr
                0x00042aa0       0x10 app/libapp.a(motion_sensor.c.obj)
 .rodata.motion_thread_fn.str1.4
                0x00042ab0        0xf app/libapp.a(motion_sensor.c.obj)
 *fill*         0x00042abf        0x1 
 .rodata.button_pressed_isr.str1.4
                0x00042ac0        0x8 app/libapp.a(buttons.c.obj)
                                 0x24 (size before relaxing)
 .rodata.event_handler.str1.4
                0x00042ac8        0xf app/libapp.a(buttons.c.obj)
 .rodata.row    0x00042ac8       0x10 app/libapp.a(buttons.c.obj)
 .rodata.click_check_fn.str1.4
                0x00042ad8       0x19 app/libapp.a(click_detector.c.obj)
 .rodata.event_handler.str1.4
                0x00042ad8        0xf app/libapp.a(click_detector.c.obj)
 *fill*         0x00042ae7        0x1 
 .rodata.config0
                0x00042ae8        0xc app/libapp.a(selector_hw.c.obj)
 .rodata.event_handler.str1.4
                0x00042af4        0xf app/libapp.a(selector_hw.c.obj)
 .rodata.pins0  0x00042af4        0x4 app/libapp.a(selector_hw.c.obj)
 .rodata.read_state.str1.4
                0x00042af8       0x19 app/libapp.a(selector_hw.c.obj)
 .rodata.selector_work_fn.str1.4
                0x00042af8        0xc app/libapp.a(selector_hw.c.obj)
 .rodata.data_ready_handler.str1.4
                0x00042b04       0x19 app/libapp.a(wheel.c.obj)
 .rodata.event_handler.str1.4
                0x00042b04        0x5 app/libapp.a(wheel.c.obj)
                                  0xf (size before relaxing)
 *fill*         0x00042b09        0x3 
 .rodata.qdec_pin
                0x00042b0c        0x8 app/libapp.a(wheel.c.obj)
 .rodata.qdec_trig
                0x00042b14        0x4 app/libapp.a(wheel.c.obj)
 .rodata.wakeup_cb.str1.4
                0x00042b18        0x6 app/libapp.a(wheel.c.obj)
 *fill*         0x00042b1e        0x2 
 .rodata.__module_leds
                0x00042b20        0x4 app/libapp.a(leds.c.obj)
                0x00042b20                __module_leds
 .rodata.event_handler.str1.4
                0x00042b24        0x5 app/libapp.a(leds.c.obj)
 *fill*         0x00042b29        0x3 
 .rodata.led_pins
                0x00042b2c       0x18 app/libapp.a(leds.c.obj)
 .rodata.str1.4
                0x00042b44        0xe app/libapp.a(leds.c.obj)
 .rodata.work_handler.str1.4
                0x00042b52       0x19 app/libapp.a(leds.c.obj)
 .rodata.error_check_handler.str1.4
                0x00042b52       0x19 app/libapp.a(battery_charger.c.obj)
 *fill*         0x00042b52        0x2 
 .rodata.event_handler.str1.4
                0x00042b54       0x10 app/libapp.a(battery_charger.c.obj)
                                 0x18 (size before relaxing)
 .rodata.battery_monitor_stop.str1.4
                0x00042b64        0xd app/libapp.a(battery_meas.c.obj)
                                 0x29 (size before relaxing)
 *fill*         0x00042b71        0x3 
 .rodata.battery_voltage_to_soc
                0x00042b74       0x6f app/libapp.a(battery_meas.c.obj)
 *fill*         0x00042be3        0x1 
 .rodata.channel_cfg.10036
                0x00042be4        0x8 app/libapp.a(battery_meas.c.obj)
 .rodata.event_handler.str1.4
                0x00042bec        0x6 app/libapp.a(battery_meas.c.obj)
                                  0xe (size before relaxing)
 *fill*         0x00042bf2        0x2 
 .rodata.sequence.10070
                0x00042bf4       0x14 app/libapp.a(battery_meas.c.obj)
 .rodata.sequence_calibrate.10071
                0x00042c08       0x14 app/libapp.a(battery_meas.c.obj)
 .rodata.__module_ble_state
                0x00042c1c        0x4 app/libapp.a(ble_state.c.obj)
                0x00042c1c                __module_ble_state
 .rodata.bt_ready.str1.4
                0x00042c20        0xa app/libapp.a(ble_state.c.obj)
                                 0x26 (size before relaxing)
 *fill*         0x00042c2a        0x2 
 .rodata.security_changed.str1.4
                0x00042c2c       0x53 app/libapp.a(ble_state.c.obj)
 *fill*         0x00042c7f        0x1 
 .rodata.__module_ble_bond
                0x00042c80        0x4 app/libapp.a(ble_bond.c.obj)
                0x00042c80                __module_ble_bond
 .rodata.erase_adv_confirm.part.9.str1.4
                0x00042c84        0x9 app/libapp.a(ble_bond.c.obj)
 .rodata.erase_start.str1.4
                0x00042c8d       0x19 app/libapp.a(ble_bond.c.obj)
 *fill*         0x00042c8d        0x3 
 .rodata.settings_set.str1.4
                0x00042c90        0xf app/libapp.a(ble_bond.c.obj)
 *fill*         0x00042c9f        0x1 
 .rodata.state_switch
                0x00042ca0       0x28 app/libapp.a(ble_bond.c.obj)
 .rodata.store_bt_stack_id_lut.str1.4
                0x00042cc8       0x10 app/libapp.a(ble_bond.c.obj)
 .rodata.store_peer_id.str1.4
                0x00042cd8       0x11 app/libapp.a(ble_bond.c.obj)
 *fill*         0x00042ce9        0x3 
 .rodata.str1.4
                0x00042cec        0xc app/libapp.a(ble_latency.c.obj)
 .rodata.__module_ble_adv
                0x00042cf8        0x4 app/libapp.a(ble_adv.c.obj)
                0x00042cf8                __module_ble_adv
 .rodata.ad     0x00042cfc       0x20 app/libapp.a(ble_adv.c.obj)
 .rodata.ble_adv_stop.part.8.str1.4
                0x00042d1c       0x19 app/libapp.a(ble_adv.c.obj)
 .rodata.sd     0x00042d1c        0x0 app/libapp.a(ble_adv.c.obj)
 .rodata.sp_grace_period_fn.part.9.str1.4
                0x00042d1c        0x8 app/libapp.a(ble_adv.c.obj)
 .rodata.str1.4
                0x00042d24        0xc app/libapp.a(ble_adv.c.obj)
 .rodata.__module_config
                0x00042d30        0x4 app/libapp.a(config.c.obj)
                0x00042d30                __module_config
 .rodata.event_handler.str1.4
                0x00042d34       0x13 app/libapp.a(config.c.obj)
 .rodata.settings_set.str1.4
                0x00042d47       0x19 app/libapp.a(config.c.obj)
 *fill*         0x00042d47        0x1 
 .rodata.hid_keymap
                0x00042d48       0x2a app/libapp.a(hid_state.c.obj)
 .rodata.report_send.str1.4
                0x00042d72       0x19 app/libapp.a(hid_state.c.obj)
 *fill*         0x00042d72        0x2 
 .rodata.str1.4
                0x00042d74        0xa app/libapp.a(hid_state.c.obj)
 *fill*         0x00042d7e        0x2 
 .rodata.device_status.str1.4
                0x00042d80        0xa app/libapp.a(usb_state.c.obj)
 *fill*         0x00042d8a        0x2 
 .rodata.event_handler.str1.4
                0x00042d8c        0x6 app/libapp.a(usb_state.c.obj)
 *fill*         0x00042d92        0x2 
 .rodata.ops.10183
                0x00042d94       0x28 app/libapp.a(usb_state.c.obj)
 .rodata.report_sent.str1.4
                0x00042dbc       0x19 app/libapp.a(usb_state.c.obj)
 .rodata.__compound_literal.0
                0x00042dbc        0x8 app/libapp.a(led_state.c.obj)
 .rodata.__compound_literal.1
                0x00042dc4        0x8 app/libapp.a(led_state.c.obj)
 .rodata.__compound_literal.10
                0x00042dcc        0x8 app/libapp.a(led_state.c.obj)
 .rodata.__compound_literal.11
                0x00042dd4       0x20 app/libapp.a(led_state.c.obj)
 .rodata.__compound_literal.12
                0x00042df4       0x10 app/libapp.a(led_state.c.obj)
 .rodata.__compound_literal.13
                0x00042e04       0x10 app/libapp.a(led_state.c.obj)
 .rodata.__compound_literal.14
                0x00042e14       0x20 app/libapp.a(led_state.c.obj)
 .rodata.__compound_literal.15
                0x00042e34        0x8 app/libapp.a(led_state.c.obj)
 .rodata.__compound_literal.16
                0x00042e3c        0x8 app/libapp.a(led_state.c.obj)
 .rodata.__compound_literal.17
                0x00042e44       0x20 app/libapp.a(led_state.c.obj)
 .rodata.__compound_literal.18
                0x00042e64       0x10 app/libapp.a(led_state.c.obj)
 .rodata.__compound_literal.19
                0x00042e74       0x10 app/libapp.a(led_state.c.obj)
 .rodata.__compound_literal.2
                0x00042e84       0x10 app/libapp.a(led_state.c.obj)
 .rodata.__compound_literal.20
                0x00042e94       0x20 app/libapp.a(led_state.c.obj)
 .rodata.__compound_literal.21
                0x00042eb4        0x8 app/libapp.a(led_state.c.obj)
 .rodata.__compound_literal.22
                0x00042ebc        0x8 app/libapp.a(led_state.c.obj)
 .rodata.__compound_literal.23
                0x00042ec4       0x20 app/libapp.a(led_state.c.obj)
 .rodata.__compound_literal.24
                0x00042ee4       0x10 app/libapp.a(led_state.c.obj)
 .rodata.__compound_literal.25
                0x00042ef4       0x10 app/libapp.a(led_state.c.obj)
 .rodata.__compound_literal.26
                0x00042f04       0x20 app/libapp.a(led_state.c.obj)
 .rodata.__compound_literal.3
                0x00042f24        0x8 app/libapp.a(led_state.c.obj)
 .rodata.__compound_literal.4
                0x00042f2c        0x8 app/libapp.a(led_state.c.obj)
 .rodata.__compound_literal.5
                0x00042f34       0x20 app/libapp.a(led_state.c.obj)
 .rodata.__compound_literal.6
                0x00042f54       0x10 app/libapp.a(led_state.c.obj)
 .rodata.__compound_literal.7
                0x00042f64       0x10 app/libapp.a(led_state.c.obj)
 .rodata.__compound_literal.8
                0x00042f74       0x20 app/libapp.a(led_state.c.obj)
 .rodata.__compound_literal.9
                0x00042f94        0x8 app/libapp.a(led_state.c.obj)
 .rodata.led_peer_state_effect
                0x00042f9c       0xc0 app/libapp.a(led_state.c.obj)
 .rodata.led_system_state_effect
                0x0004305c       0x18 app/libapp.a(led_state.c.obj)
 .rodata.load_peer_state_led.str1.4
                0x00043074       0x19 app/libapp.a(led_state.c.obj)
 .rodata.str1.4
                0x00043074        0xa app/libapp.a(led_state.c.obj)
 *fill*         0x0004307e        0x2 
 .rodata.event_handler.str1.4
                0x00043080        0xb app/libapp.a(led_stream.c.obj)
 .rodata.send_effect.str1.4
                0x0004308b       0x19 app/libapp.a(led_stream.c.obj)
 .rodata.error.str1.4
                0x0004308b       0x19 app/libapp.a(power_manager.c.obj)
 *fill*         0x0004308b        0x1 
 .rodata.str1.4
                0x0004308c        0xe app/libapp.a(power_manager.c.obj)
 *fill*         0x0004309a        0x2 
 .rodata.event_handler.part.4.str1.4
                0x0004309c        0x9 app/libapp.a(watchdog.c.obj)
                                 0x25 (size before relaxing)
 *fill*         0x000430a5        0x3 
 .rodata.event_handler.str1.4
                0x000430a8        0x4 app/libapp.a(watchdog.c.obj)
 .rodata.wdt_settings.9271
                0x000430ac       0x10 app/libapp.a(watchdog.c.obj)
 .rodata.__module_bas
                0x000430bc        0x4 app/libapp.a(bas.c.obj)
                0x000430bc                __module_bas
 .rodata.attr_bas_svc
                0x000430c0       0x50 app/libapp.a(bas.c.obj)
                0x000430c0                attr_bas_svc
 .rodata.event_handler.str1.4
                0x00043110        0x4 app/libapp.a(bas.c.obj)
                                 0x20 (size before relaxing)
 .rodata.attr_custom_desc_svc
                0x00043114       0x3c app/libapp.a(dev_descr.c.obj)
                0x00043114                attr_custom_desc_svc
 .rodata.custom_desc_chrc_uuid
                0x00043150       0x11 app/libapp.a(dev_descr.c.obj)
 *fill*         0x00043161        0x3 
 .rodata.__module_hids
                0x00043164        0x4 app/libapp.a(hids.c.obj)
                0x00043164                __module_hids
 .rodata.broadcast_subscription_change.str1.4
                0x00043168       0x19 app/libapp.a(hids.c.obj)
 .rodata.event_handler.str1.4
                0x00043168        0x5 app/libapp.a(hids.c.obj)
 *fill*         0x0004316d        0x3 
 .rodata.mouse_mask.10981
                0x00043170        0x1 app/libapp.a(hids.c.obj)
 .rodata.config_channel_report_get.str1.4
                0x00043171       0x19 app/libapp.a(config_channel.c.obj)
 *fill*         0x00043171        0x3 
 .rodata.crc8_ccitt_small_table
                0x00043174       0x10 zephyr/libzephyr.a(crc8_sw.c.obj)
 .rodata.curve_secp256r1
                0x00043184       0xb0 zephyr/libzephyr.a(ecc.c.obj)
 .rodata.sbox   0x00043234      0x100 zephyr/libzephyr.a(aes_encrypt.c.obj)
 .rodata.attr_dis_svc
                0x00043334       0x8c zephyr/libzephyr.a(dis.c.obj)
                0x00043334                attr_dis_svc
 .rodata.str1.4
                0x000433c0       0x2d zephyr/libzephyr.a(dis.c.obj)
 .rodata.str1.4
                0x000433ed        0x1 zephyr/libzephyr.a(usb_device.c.obj)
 *fill*         0x000433ed        0x3 
 .rodata.usb_fix_descriptor.str1.4
                0x000433f0        0x5 zephyr/libzephyr.a(usb_descriptor.c.obj)
 *fill*         0x000433f5        0x3 
 .rodata.default_flash_map
                0x000433f8       0x50 zephyr/libzephyr.a(flash_map_default.c.obj)
                0x000433f8                default_flash_map
 .rodata.flash_map_entries
                0x00043448        0x4 zephyr/libzephyr.a(flash_map_default.c.obj)
                0x00043448                flash_map_entries
 .rodata.str1.4
                0x0004344c       0x13 zephyr/libzephyr.a(flash_map_default.c.obj)
 *fill*         0x0004345f        0x1 
 .rodata.settings_fcb_itf
                0x00043460       0x10 zephyr/libzephyr.a(settings_fcb.c.obj)
 .rodata.str1.4
                0x00043470        0x1 zephyr/libzephyr.a(power.c.obj)
 .rodata.core_devices
                0x00043470       0x40 zephyr/libzephyr.a(device.c.obj)
 .rodata.sys_reboot.str1.4
                0x000434b0       0x29 zephyr/libzephyr.a(reboot.c.obj)
 *fill*         0x000434d9        0x3 
 .rodata.hf_clock_enable.constprop.6.str1.4
                0x000434dc        0xa zephyr/libzephyr.a(usb_dc_nrfx.c.obj)
 .rodata.str1.4
                0x000434e6        0x4 zephyr/libzephyr.a(wdt_nrfx.c.obj)
 *fill*         0x000434e6        0x2 
 .rodata.wdt_0z_config
                0x000434e8       0x14 zephyr/libzephyr.a(wdt_nrfx.c.obj)
 .rodata.wdt_nrfx_driver_api
                0x000434fc       0x10 zephyr/libzephyr.a(wdt_nrfx.c.obj)
 .rodata.str1.4
                0x0004350c        0xa zephyr/libzephyr.a(sys_clock_init.c.obj)
 *fill*         0x00043516        0x2 
 .rodata.z_clock_driver_init.str1.4
                0x00043518        0xa zephyr/libzephyr.a(nrf_rtc_timer.c.obj)
 *fill*         0x00043522        0x2 
 .rodata.apis   0x00043524        0x8 zephyr/libzephyr.a(nrf_cc310_platform_abort_zephyr.c.obj)
 .rodata.mutex_apis
                0x0004352c       0x10 zephyr/libzephyr.a(nrf_cc310_platform_mutex_zephyr.c.obj)
 .rodata.mutex_free.str1.4
                0x0004353c       0x26 zephyr/libzephyr.a(nrf_cc310_platform_mutex_zephyr.c.obj)
 *fill*         0x00043562        0x2 
 .rodata.mutex_init.str1.4
                0x00043564       0x2d zephyr/libzephyr.a(nrf_cc310_platform_mutex_zephyr.c.obj)
 *fill*         0x00043591        0x3 
 .rodata.mutexes
                0x00043594       0x14 zephyr/libzephyr.a(nrf_cc310_platform_mutex_zephyr.c.obj)
 .rodata.str1.4
                0x000435a8        0x1 zephyr/arch/arch/arm/core/cortex_m/mpu/libarch__arm__core__cortex_m__mpu.a(arm_mpu.c.obj)
 .rodata.z_prf.str1.4
                0x000435a8        0xc zephyr/lib/libc/minimal/liblib__libc__minimal.a(prf.c.obj)
 .rodata.str1.4
                0x000435b4        0x1 zephyr/soc/arm/nordic_nrf/nrf52/libsoc__arm__nordic_nrf__nrf52.a(soc.c.obj)
 .rodata.mpu_config
                0x000435b4        0x8 zephyr/soc/arm/nordic_nrf/nrf52/libsoc__arm__nordic_nrf__nrf52.a(mpu_regions.c.obj)
                0x000435b4                mpu_config
 .rodata.mpu_regions
                0x000435bc       0x18 zephyr/soc/arm/nordic_nrf/nrf52/libsoc__arm__nordic_nrf__nrf52.a(mpu_regions.c.obj)
 .rodata.str1.4
                0x000435d4        0xf zephyr/soc/arm/nordic_nrf/nrf52/libsoc__arm__nordic_nrf__nrf52.a(mpu_regions.c.obj)
 *fill*         0x000435e3        0x1 
 .rodata.bt_hci_ecc_init.str1.4
                0x000435e4        0x7 zephyr/subsys/bluetooth/host/libsubsys__bluetooth__host.a(hci_ecc.c.obj)
 *fill*         0x000435eb        0x1 
 .rodata.curve_secp256r1
                0x000435ec       0xb0 zephyr/subsys/bluetooth/host/libsubsys__bluetooth__host.a(hci_ecc.c.obj)
 .rodata.debug_private_key
                0x0004369c       0x20 zephyr/subsys/bluetooth/host/libsubsys__bluetooth__host.a(hci_ecc.c.obj)
 .rodata.bt_settings_encode_key.str1.4
                0x000436bc       0x45 zephyr/subsys/bluetooth/host/libsubsys__bluetooth__host.a(settings.c.obj)
 *fill*         0x00043701        0x3 
 .rodata.save_id.str1.4
                0x00043704        0x6 zephyr/subsys/bluetooth/host/libsubsys__bluetooth__host.a(settings.c.obj)
 *fill*         0x0004370a        0x2 
 .rodata.set.str1.4
                0x0004370c        0x3 zephyr/subsys/bluetooth/host/libsubsys__bluetooth__host.a(settings.c.obj)
 *fill*         0x0004370f        0x1 
 .rodata.str1.4
                0x00043710        0x3 zephyr/subsys/bluetooth/host/libsubsys__bluetooth__host.a(settings.c.obj)
 *fill*         0x00043713        0x1 
 .rodata.uuid128_base
                0x00043714       0x11 zephyr/subsys/bluetooth/host/libsubsys__bluetooth__host.a(uuid.c.obj)
 *fill*         0x00043725        0x3 
 .rodata.CSWTCH.259
                0x00043728       0x2a zephyr/subsys/bluetooth/host/libsubsys__bluetooth__host.a(hci_core.c.obj)
 *fill*         0x00043752        0x2 
 .rodata.bt_enable.str1.4
                0x00043754        0xe zephyr/subsys/bluetooth/host/libsubsys__bluetooth__host.a(hci_core.c.obj)
 *fill*         0x00043762        0x2 
 .rodata.bt_recv_prio.str1.4
                0x00043764       0x67 zephyr/subsys/bluetooth/host/libsubsys__bluetooth__host.a(hci_core.c.obj)
 *fill*         0x000437cb        0x1 
 .rodata.hci_rx_thread.str1.4
                0x000437cc       0x5c zephyr/subsys/bluetooth/host/libsubsys__bluetooth__host.a(hci_core.c.obj)
 .rodata.hci_tx_thread.str1.4
                0x00043828       0x32 zephyr/subsys/bluetooth/host/libsubsys__bluetooth__host.a(hci_core.c.obj)
 .rodata.le_adv_update.str1.4
                0x0004385a       0x14 zephyr/subsys/bluetooth/host/libsubsys__bluetooth__host.a(hci_core.c.obj)
 *fill*         0x0004385a        0x2 
 .rodata.meta_events
                0x0004385c       0x48 zephyr/subsys/bluetooth/host/libsubsys__bluetooth__host.a(hci_core.c.obj)
 .rodata.net_buf_fixed_alloc_discardable_pool
                0x000438a4        0x8 zephyr/subsys/bluetooth/host/libsubsys__bluetooth__host.a(hci_core.c.obj)
 .rodata.net_buf_fixed_alloc_hci_cmd_pool
                0x000438ac        0x8 zephyr/subsys/bluetooth/host/libsubsys__bluetooth__host.a(hci_core.c.obj)
 .rodata.net_buf_fixed_alloc_hci_rx_pool
                0x000438b4        0x8 zephyr/subsys/bluetooth/host/libsubsys__bluetooth__host.a(hci_core.c.obj)
 .rodata.net_buf_fixed_alloc_num_complete_pool
                0x000438bc        0x8 zephyr/subsys/bluetooth/host/libsubsys__bluetooth__host.a(hci_core.c.obj)
 .rodata.net_buf_fixed_discardable_pool
                0x000438c4        0x8 zephyr/subsys/bluetooth/host/libsubsys__bluetooth__host.a(hci_core.c.obj)
 .rodata.net_buf_fixed_hci_cmd_pool
                0x000438cc        0x8 zephyr/subsys/bluetooth/host/libsubsys__bluetooth__host.a(hci_core.c.obj)
 .rodata.net_buf_fixed_hci_rx_pool
                0x000438d4        0x8 zephyr/subsys/bluetooth/host/libsubsys__bluetooth__host.a(hci_core.c.obj)
 .rodata.net_buf_fixed_num_complete_pool
                0x000438dc        0x8 zephyr/subsys/bluetooth/host/libsubsys__bluetooth__host.a(hci_core.c.obj)
 .rodata.normal_events
                0x000438e4       0x28 zephyr/subsys/bluetooth/host/libsubsys__bluetooth__host.a(hci_core.c.obj)
 .rodata.prio_events
                0x0004390c       0x20 zephyr/subsys/bluetooth/host/libsubsys__bluetooth__host.a(hci_core.c.obj)
 .rodata.bt_conn_process_tx.str1.4
                0x0004392c       0x16 zephyr/subsys/bluetooth/host/libsubsys__bluetooth__host.a(conn.c.obj)
 .rodata.net_buf_fixed_acl_tx_pool
                0x0004392c        0x8 zephyr/subsys/bluetooth/host/libsubsys__bluetooth__host.a(conn.c.obj)
 .rodata.net_buf_fixed_alloc_acl_tx_pool
                0x00043934        0x8 zephyr/subsys/bluetooth/host/libsubsys__bluetooth__host.a(conn.c.obj)
 .rodata.net_buf_fixed_alloc_frag_pool
                0x0004393c        0x8 zephyr/subsys/bluetooth/host/libsubsys__bluetooth__host.a(conn.c.obj)
 .rodata.net_buf_fixed_frag_pool
                0x00043944        0x8 zephyr/subsys/bluetooth/host/libsubsys__bluetooth__host.a(conn.c.obj)
 .rodata.CSWTCH.158
                0x0004394c       0x14 zephyr/subsys/bluetooth/host/libsubsys__bluetooth__host.a(att.c.obj)
 .rodata.handlers
                0x00043960       0x70 zephyr/subsys/bluetooth/host/libsubsys__bluetooth__host.a(att.c.obj)
 .rodata.attr__1_gatt_svc
                0x000439d0       0xa0 zephyr/subsys/bluetooth/host/libsubsys__bluetooth__host.a(gatt.c.obj)
                0x000439d0                attr__1_gatt_svc
 .rodata.attr__2_gap_svc
                0x00043a70       0x8c zephyr/subsys/bluetooth/host/libsubsys__bluetooth__host.a(gatt.c.obj)
                0x00043a70                attr__2_gap_svc
 .rodata.bt_gatt_disconnected.str1.4
                0x00043afc        0x3 zephyr/subsys/bluetooth/host/libsubsys__bluetooth__host.a(gatt.c.obj)
 *fill*         0x00043aff        0x1 
 .rodata.bt_gatt_store_ccc.str1.4
                0x00043b00        0x4 zephyr/subsys/bluetooth/host/libsubsys__bluetooth__host.a(gatt.c.obj)
 .rodata.db_hash_gen.str1.4
                0x00043b04        0x8 zephyr/subsys/bluetooth/host/libsubsys__bluetooth__host.a(gatt.c.obj)
 .rodata.sc_store.str1.4
                0x00043b0c        0x3 zephyr/subsys/bluetooth/host/libsubsys__bluetooth__host.a(gatt.c.obj)
 *fill*         0x00043b0f        0x1 
 .rodata.str1.4
                0x00043b10       0x17 zephyr/subsys/bluetooth/host/libsubsys__bluetooth__host.a(gatt.c.obj)
 *fill*         0x00043b27        0x1 
 .rodata.CSWTCH.241
                0x00043b28        0xe zephyr/subsys/bluetooth/host/libsubsys__bluetooth__host.a(smp.c.obj)
 *fill*         0x00043b36        0x2 
 .rodata.gen_method_legacy
                0x00043b38       0x19 zephyr/subsys/bluetooth/host/libsubsys__bluetooth__host.a(smp.c.obj)
 *fill*         0x00043b51        0x3 
 .rodata.gen_method_sc
                0x00043b54       0x19 zephyr/subsys/bluetooth/host/libsubsys__bluetooth__host.a(smp.c.obj)
 *fill*         0x00043b6d        0x3 
 .rodata.handlers
                0x00043b70       0x70 zephyr/subsys/bluetooth/host/libsubsys__bluetooth__host.a(smp.c.obj)
 .rodata.salt.11243
                0x00043be0       0x10 zephyr/subsys/bluetooth/host/libsubsys__bluetooth__host.a(smp.c.obj)
 .rodata.sc_debug_public_key
                0x00043bf0       0x40 zephyr/subsys/bluetooth/host/libsubsys__bluetooth__host.a(smp.c.obj)
 .rodata.bt_keys_clear.str1.4
                0x00043c30        0x5 zephyr/subsys/bluetooth/host/libsubsys__bluetooth__host.a(keys.c.obj)
 *fill*         0x00043c35        0x3 
 .rodata.str1.4
                0x00043c38        0x8 zephyr/subsys/bluetooth/host/libsubsys__bluetooth__host.a(keys.c.obj)
 .rodata.net_buf_fixed_cb
                0x00043c40        0xc zephyr/subsys/net/libsubsys__net.a(buf.c.obj)
                0x00043c40                net_buf_fixed_cb
 .rodata.str1.4
                0x00043c4c        0x6 zephyr/subsys/usb/class/hid/libsubsys__usb__class__hid.a(core.c.obj)
 .rodata.rand_get.str1.4
                0x00043c4c        0xa zephyr/subsys/random/libsubsys__random.a(rand32_entropy_device.c.obj)
 *fill*         0x00043c56        0x2 
 .rodata.adc_nrfx_driver_api
                0x00043c58       0x10 zephyr/drivers/adc/libdrivers__adc.a(adc_nrfx_saadc.c.obj)
 .rodata.str1.4
                0x00043c68        0x6 zephyr/drivers/adc/libdrivers__adc.a(adc_nrfx_saadc.c.obj)
 .rodata.gpio_nrfx_drv_api_funcs
                0x00043c68       0x1c zephyr/drivers/gpio/libdrivers__gpio.a(gpio_nrfx.c.obj)
 .rodata.gpio_nrfx_p0_cfg
                0x00043c84        0x8 zephyr/drivers/gpio/libdrivers__gpio.a(gpio_nrfx.c.obj)
 .rodata.gpio_nrfx_p1_cfg
                0x00043c8c        0x8 zephyr/drivers/gpio/libdrivers__gpio.a(gpio_nrfx.c.obj)
 .rodata.str1.4
                0x00043c94        0xf zephyr/drivers/gpio/libdrivers__gpio.a(gpio_nrfx.c.obj)
 .rodata.pwm_nrfx_0config
                0x00043c94       0x24 zephyr/drivers/pwm/libdrivers__pwm.a(pwm_nrfx.c.obj)
 .rodata.pwm_nrfx_1config
                0x00043cb8       0x24 zephyr/drivers/pwm/libdrivers__pwm.a(pwm_nrfx.c.obj)
 .rodata.pwm_nrfx_drv_api_funcs
                0x00043cdc        0x8 zephyr/drivers/pwm/libdrivers__pwm.a(pwm_nrfx.c.obj)
 .rodata.str1.4
                0x00043ce4        0xe zephyr/drivers/pwm/libdrivers__pwm.a(pwm_nrfx.c.obj)
 .rodata.config.9787
                0x00043ce4       0x18 zephyr/drivers/sensor/qdec_nrfx/libdrivers__sensor__qdec_nrfx.a(qdec_nrfx.c.obj)
 .rodata.qdec_nrfx_driver_api
                0x00043cfc       0x10 zephyr/drivers/sensor/qdec_nrfx/libdrivers__sensor__qdec_nrfx.a(qdec_nrfx.c.obj)
 .rodata.str1.4
                0x00043d0c        0x5 zephyr/drivers/sensor/qdec_nrfx/libdrivers__sensor__qdec_nrfx.a(qdec_nrfx.c.obj)
 .rodata.str1.4
                0x00043d0c        0x7 zephyr/drivers/sensor/nrf5/libdrivers__sensor__nrf5.a(temp_nrf5.c.obj)
 *fill*         0x00043d13        0x1 
 .rodata.temp_nrf5_driver_api
                0x00043d14       0x10 zephyr/drivers/sensor/nrf5/libdrivers__sensor__nrf5.a(temp_nrf5.c.obj)
 .rodata.temp_nrf5_init.str1.4
                0x00043d24        0xa zephyr/drivers/sensor/nrf5/libdrivers__sensor__nrf5.a(temp_nrf5.c.obj)
 .rodata.spi_1z_config
                0x00043d24       0x1c zephyr/drivers/spi/libdrivers__spi.a(spi_nrfx_spim.c.obj)
 .rodata.spi_nrfx_driver_api
                0x00043d40        0x8 zephyr/drivers/spi/libdrivers__spi.a(spi_nrfx_spim.c.obj)
 .rodata.str1.4
                0x00043d48        0x6 zephyr/drivers/spi/libdrivers__spi.a(spi_nrfx_spim.c.obj)
 *fill*         0x00043d4e        0x2 
 .rodata.btctrl_flash_api
                0x00043d50       0x18 zephyr/drivers/flash/libdrivers__flash.a(flash_ll_nrfxlib.c.obj)
 .rodata.str1.4
                0x00043d68       0x13 zephyr/drivers/flash/libdrivers__flash.a(flash_ll_nrfxlib.c.obj)
 .rodata.rng_driver_api_funcs
                0x00043d68        0x8 zephyr/drivers/entropy/libdrivers__entropy.a(entropy_ll_nrfxlib.c.obj)
 .rodata.str1.4
                0x00043d70        0xa zephyr/drivers/entropy/libdrivers__entropy.a(entropy_ll_nrfxlib.c.obj)
 .rodata.drv    0x00043d70       0x14 zephyr/modules/nrf/subsys/bluetooth/controller/lib..__nrf__subsys__bluetooth__controller.a(hci_driver.c.obj)
 .rodata.str1.4
                0x00043d84        0xb zephyr/modules/nrf/subsys/bluetooth/controller/lib..__nrf__subsys__bluetooth__controller.a(hci_driver.c.obj)
                                  0xf (size before relaxing)
 *fill*         0x00043d8f        0x1 
 .rodata.async_init_delay
                0x00043d90       0x14 zephyr/modules/nrf/drivers/sensor/pmw3360/lib..__nrf__drivers__sensor__pmw3360.a(pmw3360.c.obj)
 .rodata.async_init_fn
                0x00043da4       0x14 zephyr/modules/nrf/drivers/sensor/pmw3360/lib..__nrf__drivers__sensor__pmw3360.a(pmw3360.c.obj)
 .rodata.pmw3360_driver_api
                0x00043db8       0x10 zephyr/modules/nrf/drivers/sensor/pmw3360/lib..__nrf__drivers__sensor__pmw3360.a(pmw3360.c.obj)
 .rodata.pmw3360_init.str1.4
                0x00043dc8        0xe zephyr/modules/nrf/drivers/sensor/pmw3360/lib..__nrf__drivers__sensor__pmw3360.a(pmw3360.c.obj)
 .rodata.spi_cfg
                0x00043dc8        0xc zephyr/modules/nrf/drivers/sensor/pmw3360/lib..__nrf__drivers__sensor__pmw3360.a(pmw3360.c.obj)
 .rodata.str1.4
                0x00043dd4        0x8 zephyr/modules/nrf/drivers/sensor/pmw3360/lib..__nrf__drivers__sensor__pmw3360.a(pmw3360.c.obj)
 .rodata.pmw3360_firmware_data
                0x00043dd4      0xffe zephyr/modules/nrf/drivers/sensor/pmw3360/lib..__nrf__drivers__sensor__pmw3360.a(pmw3360_priv.c.obj)
                0x00043dd4                pmw3360_firmware_data
 *fill*         0x00044dd2        0x2 
 .rodata.pmw3360_firmware_length
                0x00044dd4        0x4 zephyr/modules/nrf/drivers/sensor/pmw3360/lib..__nrf__drivers__sensor__pmw3360.a(pmw3360_priv.c.obj)
                0x00044dd4                pmw3360_firmware_length
 .rodata.hf_clock_control_api
                0x00044dd8       0x14 zephyr/modules/nrf/drivers/clock_control/lib..__nrf__drivers__clock_control.a(clock_control_nrfxlib.c.obj)
 .rodata.lf_clock_control_api
                0x00044dec       0x14 zephyr/modules/nrf/drivers/clock_control/lib..__nrf__drivers__clock_control.a(clock_control_nrfxlib.c.obj)
 .rodata.str1.4
                0x00044e00       0x16 zephyr/modules/nrf/drivers/clock_control/lib..__nrf__drivers__clock_control.a(clock_control_nrfxlib.c.obj)
 .rodata.str1.4
                0x00044e00        0xb zephyr/modules/nrf/drivers/hw_cc310/lib..__nrf__drivers__hw_cc310.a(hw_cc310.c.obj)
 *fill*         0x00044e0b        0x1 
 .rodata.CSWTCH.3
                0x00044e0c        0x4 zephyr/modules/nordic/lib..__modules__hal__nordic.a(system_nrf52840.c.obj)
 .rodata.epin_bitpos.7314
                0x00044e10        0x9 zephyr/modules/nordic/lib..__modules__hal__nordic.a(nrfx_usbd.c.obj)
 *fill*         0x00044e19        0x3 
 .rodata.epin_endev.7309
                0x00044e1c       0x12 zephyr/modules/nordic/lib..__modules__hal__nordic.a(nrfx_usbd.c.obj)
 *fill*         0x00044e2e        0x2 
 .rodata.epout_bitpos.7315
                0x00044e30        0x9 zephyr/modules/nordic/lib..__modules__hal__nordic.a(nrfx_usbd.c.obj)
 *fill*         0x00044e39        0x3 
 .rodata.epout_endev.7310
                0x00044e3c       0x12 zephyr/modules/nordic/lib..__modules__hal__nordic.a(nrfx_usbd.c.obj)
 *fill*         0x00044e4e        0x2 
 .rodata.m_isr  0x00044e50       0x64 zephyr/modules/nordic/lib..__modules__hal__nordic.a(nrfx_usbd.c.obj)
 .rodata.config_levels.8680
                0x00044eb4       0x14 zephyr/kernel/libkernel.a(device.c.obj)
 .rodata._k_neg_eagain
                0x00044ec8        0x4 zephyr/kernel/libkernel.a(errno.c.obj)
                0x00044ec8                _k_neg_eagain
 .rodata.z_cstart.str1.4
                0x00044ecc        0x5 zephyr/kernel/libkernel.a(init.c.obj)
                                  0xd (size before relaxing)
 .rodata.str1.4
                0x00044ed1        0x1 zephyr/kernel/libkernel.a(mem_slab.c.obj)
 .rodata.str1.4
                0x00044ed1        0x1 zephyr/kernel/libkernel.a(mempool.c.obj)
 *fill*         0x00044ed1        0x3 
 .rodata.k_sys_work_q_init.str1.4
                0x00044ed4        0x9 zephyr/kernel/libkernel.a(system_work_q.c.obj)
 .rodata.str1.4
                0x00044edd        0x1 zephyr/kernel/libkernel.a(system_work_q.c.obj)
 *fill*         0x00044edd        0x3 
 .rodata.k_work_q_start.str1.4
                0x00044ee0        0xa zephyr/kernel/libkernel.a(work_q.c.obj)
 *fill*         0x00044eea        0x2 
 .rodata.CSWTCH.6
                0x00044eec       0x1c C:/ncs.sojkk/nrfxlib/crypto/nrf_cc310_platform/lib/cortex-m4/soft-float/no-interrupts/libnrf_cc310_platform_0.9.1.a(nrf_cc310_platform.c.obj)
 .rodata.mutex_init.str1.4
                0x00044f08       0x23 C:/ncs.sojkk/nrfxlib/crypto/nrf_cc310_platform/lib/cortex-m4/soft-float/no-interrupts/libnrf_cc310_platform_0.9.1.a(nrf_cc310_platform_mutex.c.obj)
 *fill*         0x00044f2b        0x1 
 .rodata.mutex_unlock.str1.4
                0x00044f2c       0x1f C:/ncs.sojkk/nrfxlib/crypto/nrf_cc310_platform/lib/cortex-m4/soft-float/no-interrupts/libnrf_cc310_platform_0.9.1.a(nrf_cc310_platform_mutex.c.obj)
 *fill*         0x00044f4b        0x1 
 .rodata.CC_PalPowerSaveModeInit.str1.4
                0x00044f4c       0x20 C:/ncs.sojkk/nrfxlib/crypto/nrf_cc310_platform/lib/cortex-m4/soft-float/no-interrupts/libnrf_cc310_platform_0.9.1.a(cc_pal_pm.c.obj)
 *(SORT_BY_ALIGNMENT(.gnu.linkonce.r.*))
                0x00044f6c                . = ALIGN (0x4)
                0x00044f6c                _ext_abis_start = .
 *(SORT_BY_ALIGNMENT(.ext_abis))
                0x00000000                _ext_abis_size = ABSOLUTE (((. - _ext_abis_start) / 0x4))
                0x00044f6c                . = ALIGN (0x4)
                0x00044f6c                _image_rodata_end = .

event_subscribers_battery_level_event_prio0_
                0x00044f6c        0x0
 event_subscribers_battery_level_event_prio0_
                0x00044f6c        0x0 app/libapp.a(battery_event.c.obj)

event_subscribers_battery_level_event_prio1_
                0x00044f6c        0x4
 event_subscribers_battery_level_event_prio1_
                0x00044f6c        0x0 app/libapp.a(battery_event.c.obj)
                0x00044f6c                event_subscribers_battery_level_event_prio1_empty
 event_subscribers_battery_level_event_prio1_
                0x00044f6c        0x4 app/libapp.a(bas.c.obj)
                0x00044f6c                __event_subscriber_battery_level_eventbas

event_subscribers_battery_level_event_prio2_
                0x00044f70        0x0
 event_subscribers_battery_level_event_prio2_
                0x00044f70        0x0 app/libapp.a(battery_event.c.obj)

event_subscribers_battery_state_event_prio0_
                0x00044f70        0x0
 event_subscribers_battery_state_event_prio0_
                0x00044f70        0x0 app/libapp.a(battery_event.c.obj)

event_subscribers_battery_state_event_prio1_
                0x00044f70        0x4
 event_subscribers_battery_state_event_prio1_
                0x00044f70        0x0 app/libapp.a(battery_event.c.obj)
                0x00044f70                event_subscribers_battery_state_event_prio1_empty
 event_subscribers_battery_state_event_prio1_
                0x00044f70        0x4 app/libapp.a(led_state.c.obj)
                0x00044f70                __event_subscriber_battery_state_eventled_state

event_subscribers_battery_state_event_prio2_
                0x00044f74        0x0
 event_subscribers_battery_state_event_prio2_
                0x00044f74        0x0 app/libapp.a(battery_event.c.obj)

event_infos     0x00044f74      0x110
 event_infos    0x00044f74       0x20 app/libapp.a(battery_event.c.obj)
 event_infos    0x00044f94       0x30 app/libapp.a(ble_event.c.obj)
 event_infos    0x00044fc4       0x10 app/libapp.a(button_event.c.obj)
 event_infos    0x00044fd4       0x10 app/libapp.a(click_event.c.obj)
 event_infos    0x00044fe4       0x10 app/libapp.a(selector_event.c.obj)
 event_infos    0x00044ff4       0x50 app/libapp.a(hid_event.c.obj)
 event_infos    0x00045044       0x30 app/libapp.a(config_event.c.obj)
 event_infos    0x00045074       0x10 app/libapp.a(motion_event.c.obj)

event_types     0x00045084      0x4b0
 event_types    0x00045084       0x50 app/libapp.a(battery_event.c.obj)
                0x00045084                __event_type_battery_state_event
                0x000450ac                __event_type_battery_level_event
 event_types    0x000450d4       0xa0 app/libapp.a(ble_event.c.obj)
                0x000450d4                __event_type_ble_peer_event
                0x000450fc                __event_type_ble_peer_search_event
                0x00045124                __event_type_ble_peer_operation_event
                0x0004514c                __event_type_ble_discovery_complete_event
 event_types    0x00045174       0x28 app/libapp.a(button_event.c.obj)
                0x00045174                __event_type_button_event
 event_types    0x0004519c       0x28 app/libapp.a(click_event.c.obj)
                0x0004519c                __event_type_click_event
 event_types    0x000451c4       0x28 app/libapp.a(selector_event.c.obj)
                0x000451c4                __event_type_selector_event
 event_types    0x000451ec       0xf0 app/libapp.a(hid_event.c.obj)
                0x000451ec                __event_type_hid_keyboard_event
                0x00045214                __event_type_hid_mouse_event
                0x0004523c                __event_type_hid_consumer_ctrl_event
                0x00045264                __event_type_hid_report_subscriber_event
                0x0004528c                __event_type_hid_report_sent_event
                0x000452b4                __event_type_hid_report_subscription_event
 event_types    0x000452dc       0x50 app/libapp.a(led_event.c.obj)
                0x000452dc                __event_type_led_event
                0x00045304                __event_type_led_ready_event
 event_types    0x0004532c       0xf0 app/libapp.a(config_event.c.obj)
                0x0004532c                __event_type_config_event
                0x00045354                __event_type_config_fetch_event
                0x0004537c                __event_type_config_fetch_request_event
                0x000453a4                __event_type_config_forwarded_event
                0x000453cc                __event_type_config_forward_get_event
                0x000453f4                __event_type_config_forward_event
 event_types    0x0004541c       0x28 app/libapp.a(module_state_event.c.obj)
                0x0004541c                __event_type_module_state_event
 event_types    0x00045444       0x28 app/libapp.a(motion_event.c.obj)
                0x00045444                __event_type_motion_event
 event_types    0x0004546c       0x50 app/libapp.a(power_event.c.obj)
                0x0004546c                __event_type_wake_up_event
                0x00045494                __event_type_power_down_event
 event_types    0x000454bc       0x28 app/libapp.a(wheel_event.c.obj)
                0x000454bc                __event_type_wheel_event
 event_types    0x000454e4       0x28 app/libapp.a(usb_event.c.obj)
                0x000454e4                __event_type_usb_state_event
 event_types    0x0004550c       0x28 app/libapp.a(hids_event.c.obj)
                0x0004550c                __event_type_hid_notification_event

event_subscribers_ble_discovery_complete_event_prio0_
                0x00045534        0x0
 event_subscribers_ble_discovery_complete_event_prio0_
                0x00045534        0x0 app/libapp.a(ble_event.c.obj)

event_subscribers_ble_discovery_complete_event_prio1_
                0x00045534        0x0
 event_subscribers_ble_discovery_complete_event_prio1_
                0x00045534        0x0 app/libapp.a(ble_event.c.obj)

event_subscribers_ble_discovery_complete_event_prio2_
                0x00045534        0x0
 event_subscribers_ble_discovery_complete_event_prio2_
                0x00045534        0x0 app/libapp.a(ble_event.c.obj)

event_subscribers_ble_peer_event_prio0_
                0x00045534        0x4
 event_subscribers_ble_peer_event_prio0_
                0x00045534        0x0 app/libapp.a(ble_event.c.obj)
                0x00045534                event_subscribers_ble_peer_event_prio0_empty
 event_subscribers_ble_peer_event_prio0_
                0x00045534        0x4 app/libapp.a(hids.c.obj)
                0x00045534                __event_subscriber_ble_peer_eventhids

event_subscribers_ble_peer_event_prio1_
                0x00045538       0x18
 event_subscribers_ble_peer_event_prio1_
                0x00045538        0x0 app/libapp.a(ble_event.c.obj)
                0x00045538                event_subscribers_ble_peer_event_prio1_empty
 event_subscribers_ble_peer_event_prio1_
                0x00045538        0x4 app/libapp.a(ble_bond.c.obj)
                0x00045538                __event_subscriber_ble_peer_eventble_bond
 event_subscribers_ble_peer_event_prio1_
                0x0004553c        0x4 app/libapp.a(ble_latency.c.obj)
                0x0004553c                __event_subscriber_ble_peer_eventble_latency
 event_subscribers_ble_peer_event_prio1_
                0x00045540        0x4 app/libapp.a(ble_adv.c.obj)
                0x00045540                __event_subscriber_ble_peer_eventble_adv
 event_subscribers_ble_peer_event_prio1_
                0x00045544        0x4 app/libapp.a(hid_state.c.obj)
                0x00045544                __event_subscriber_ble_peer_eventhid_state
 event_subscribers_ble_peer_event_prio1_
                0x00045548        0x4 app/libapp.a(led_state.c.obj)
                0x00045548                __event_subscriber_ble_peer_eventled_state
 event_subscribers_ble_peer_event_prio1_
                0x0004554c        0x4 app/libapp.a(power_manager.c.obj)
                0x0004554c                __event_subscriber_ble_peer_eventpower_manager

event_subscribers_ble_peer_event_prio2_
                0x00045550        0x4
 event_subscribers_ble_peer_event_prio2_
                0x00045550        0x0 app/libapp.a(ble_event.c.obj)
                0x00045550                event_subscribers_ble_peer_event_prio2_empty
 event_subscribers_ble_peer_event_prio2_
                0x00045550        0x4 app/libapp.a(ble_state.c.obj)
                0x00045550                __event_subscriber_ble_peer_eventble_state

event_subscribers_ble_peer_operation_event_prio0_
                0x00045554        0x0
 event_subscribers_ble_peer_operation_event_prio0_
                0x00045554        0x0 app/libapp.a(ble_event.c.obj)

event_subscribers_ble_peer_operation_event_prio1_
                0x00045554        0x8
 event_subscribers_ble_peer_operation_event_prio1_
                0x00045554        0x0 app/libapp.a(ble_event.c.obj)
                0x00045554                event_subscribers_ble_peer_operation_event_prio1_empty
 event_subscribers_ble_peer_operation_event_prio1_
                0x00045554        0x4 app/libapp.a(ble_adv.c.obj)
                0x00045554                __event_subscriber_ble_peer_operation_eventble_adv
 event_subscribers_ble_peer_operation_event_prio1_
                0x00045558        0x4 app/libapp.a(led_state.c.obj)
                0x00045558                __event_subscriber_ble_peer_operation_eventled_state

event_subscribers_ble_peer_operation_event_prio2_
                0x0004555c        0x0
 event_subscribers_ble_peer_operation_event_prio2_
                0x0004555c        0x0 app/libapp.a(ble_event.c.obj)

event_subscribers_ble_peer_search_event_prio0_
                0x0004555c        0x0
 event_subscribers_ble_peer_search_event_prio0_
                0x0004555c        0x0 app/libapp.a(ble_event.c.obj)

event_subscribers_ble_peer_search_event_prio1_
                0x0004555c        0x4
 event_subscribers_ble_peer_search_event_prio1_
                0x0004555c        0x0 app/libapp.a(ble_event.c.obj)
                0x0004555c                event_subscribers_ble_peer_search_event_prio1_empty
 event_subscribers_ble_peer_search_event_prio1_
                0x0004555c        0x4 app/libapp.a(led_state.c.obj)
                0x0004555c                __event_subscriber_ble_peer_search_eventled_state

event_subscribers_ble_peer_search_event_prio2_
                0x00045560        0x0
 event_subscribers_ble_peer_search_event_prio2_
                0x00045560        0x0 app/libapp.a(ble_event.c.obj)

event_subscribers_button_event_prio0_
                0x00045560        0x0
 event_subscribers_button_event_prio0_
                0x00045560        0x0 app/libapp.a(button_event.c.obj)

event_subscribers_button_event_prio1_
                0x00045560        0x4
 event_subscribers_button_event_prio1_
                0x00045560        0x0 app/libapp.a(button_event.c.obj)
                0x00045560                event_subscribers_button_event_prio1_empty
 event_subscribers_button_event_prio1_
                0x00045560        0x4 app/libapp.a(click_detector.c.obj)
                0x00045560                __event_subscriber_button_eventclick_detector

event_subscribers_button_event_prio2_
                0x00045564        0x4
 event_subscribers_button_event_prio2_
                0x00045564        0x0 app/libapp.a(button_event.c.obj)
                0x00045564                event_subscribers_button_event_prio2_empty
 event_subscribers_button_event_prio2_
                0x00045564        0x4 app/libapp.a(hid_state.c.obj)
                0x00045564                __event_subscriber_button_eventhid_state

event_subscribers_click_event_prio0_
                0x00045568        0x0
 event_subscribers_click_event_prio0_
                0x00045568        0x0 app/libapp.a(click_event.c.obj)

event_subscribers_click_event_prio1_
                0x00045568        0x4
 event_subscribers_click_event_prio1_
                0x00045568        0x0 app/libapp.a(click_event.c.obj)
                0x00045568                event_subscribers_click_event_prio1_empty
 event_subscribers_click_event_prio1_
                0x00045568        0x4 app/libapp.a(ble_bond.c.obj)
                0x00045568                __event_subscriber_click_eventble_bond

event_subscribers_click_event_prio2_
                0x0004556c        0x0
 event_subscribers_click_event_prio2_
                0x0004556c        0x0 app/libapp.a(click_event.c.obj)

event_subscribers_selector_event_prio0_
                0x0004556c        0x0
 event_subscribers_selector_event_prio0_
                0x0004556c        0x0 app/libapp.a(selector_event.c.obj)

event_subscribers_selector_event_prio1_
                0x0004556c        0x4
 event_subscribers_selector_event_prio1_
                0x0004556c        0x0 app/libapp.a(selector_event.c.obj)
                0x0004556c                event_subscribers_selector_event_prio1_empty
 event_subscribers_selector_event_prio1_
                0x0004556c        0x4 app/libapp.a(ble_bond.c.obj)
                0x0004556c                __event_subscriber_selector_eventble_bond

event_subscribers_selector_event_prio2_
                0x00045570        0x0
 event_subscribers_selector_event_prio2_
                0x00045570        0x0 app/libapp.a(selector_event.c.obj)

event_subscribers_hid_consumer_ctrl_event_prio0_
                0x00045570        0x0
 event_subscribers_hid_consumer_ctrl_event_prio0_
                0x00045570        0x0 app/libapp.a(hid_event.c.obj)

event_subscribers_hid_consumer_ctrl_event_prio1_
                0x00045570        0x8
 event_subscribers_hid_consumer_ctrl_event_prio1_
                0x00045570        0x0 app/libapp.a(hid_event.c.obj)
                0x00045570                event_subscribers_hid_consumer_ctrl_event_prio1_empty
 event_subscribers_hid_consumer_ctrl_event_prio1_
                0x00045570        0x4 app/libapp.a(usb_state.c.obj)
                0x00045570                __event_subscriber_hid_consumer_ctrl_eventusb_state
 event_subscribers_hid_consumer_ctrl_event_prio1_
                0x00045574        0x4 app/libapp.a(hids.c.obj)
                0x00045574                __event_subscriber_hid_consumer_ctrl_eventhids

event_subscribers_hid_consumer_ctrl_event_prio2_
                0x00045578        0x0
 event_subscribers_hid_consumer_ctrl_event_prio2_
                0x00045578        0x0 app/libapp.a(hid_event.c.obj)

event_subscribers_hid_keyboard_event_prio0_
                0x00045578        0x0
 event_subscribers_hid_keyboard_event_prio0_
                0x00045578        0x0 app/libapp.a(hid_event.c.obj)

event_subscribers_hid_keyboard_event_prio1_
                0x00045578        0xc
 event_subscribers_hid_keyboard_event_prio1_
                0x00045578        0x0 app/libapp.a(hid_event.c.obj)
                0x00045578                event_subscribers_hid_keyboard_event_prio1_empty
 event_subscribers_hid_keyboard_event_prio1_
                0x00045578        0x4 app/libapp.a(usb_state.c.obj)
                0x00045578                __event_subscriber_hid_keyboard_eventusb_state
 event_subscribers_hid_keyboard_event_prio1_
                0x0004557c        0x4 app/libapp.a(power_manager.c.obj)
                0x0004557c                __event_subscriber_hid_keyboard_eventpower_manager
 event_subscribers_hid_keyboard_event_prio1_
                0x00045580        0x4 app/libapp.a(hids.c.obj)
                0x00045580                __event_subscriber_hid_keyboard_eventhids

event_subscribers_hid_keyboard_event_prio2_
                0x00045584        0x0
 event_subscribers_hid_keyboard_event_prio2_
                0x00045584        0x0 app/libapp.a(hid_event.c.obj)

event_subscribers_hid_mouse_event_prio0_
                0x00045584        0x0
 event_subscribers_hid_mouse_event_prio0_
                0x00045584        0x0 app/libapp.a(hid_event.c.obj)

event_subscribers_hid_mouse_event_prio1_
                0x00045584        0xc
 event_subscribers_hid_mouse_event_prio1_
                0x00045584        0x0 app/libapp.a(hid_event.c.obj)
                0x00045584                event_subscribers_hid_mouse_event_prio1_empty
 event_subscribers_hid_mouse_event_prio1_
                0x00045584        0x4 app/libapp.a(usb_state.c.obj)
                0x00045584                __event_subscriber_hid_mouse_eventusb_state
 event_subscribers_hid_mouse_event_prio1_
                0x00045588        0x4 app/libapp.a(power_manager.c.obj)
                0x00045588                __event_subscriber_hid_mouse_eventpower_manager
 event_subscribers_hid_mouse_event_prio1_
                0x0004558c        0x4 app/libapp.a(hids.c.obj)
                0x0004558c                __event_subscriber_hid_mouse_eventhids

event_subscribers_hid_mouse_event_prio2_
                0x00045590        0x0
 event_subscribers_hid_mouse_event_prio2_
                0x00045590        0x0 app/libapp.a(hid_event.c.obj)

event_subscribers_hid_report_sent_event_prio0_
                0x00045590        0x0
 event_subscribers_hid_report_sent_event_prio0_
                0x00045590        0x0 app/libapp.a(hid_event.c.obj)

event_subscribers_hid_report_sent_event_prio1_
                0x00045590        0x8
 event_subscribers_hid_report_sent_event_prio1_
                0x00045590        0x0 app/libapp.a(hid_event.c.obj)
                0x00045590                event_subscribers_hid_report_sent_event_prio1_empty
 event_subscribers_hid_report_sent_event_prio1_
                0x00045590        0x4 app/libapp.a(motion_sensor.c.obj)
                0x00045590                __event_subscriber_hid_report_sent_eventmotion
 event_subscribers_hid_report_sent_event_prio1_
                0x00045594        0x4 app/libapp.a(hid_state.c.obj)
                0x00045594                __event_subscriber_hid_report_sent_eventhid_state

event_subscribers_hid_report_sent_event_prio2_
                0x00045598        0x0
 event_subscribers_hid_report_sent_event_prio2_
                0x00045598        0x0 app/libapp.a(hid_event.c.obj)

event_subscribers_hid_report_subscriber_event_prio0_
                0x00045598        0x0
 event_subscribers_hid_report_subscriber_event_prio0_
                0x00045598        0x0 app/libapp.a(hid_event.c.obj)

event_subscribers_hid_report_subscriber_event_prio1_
                0x00045598        0x0
 event_subscribers_hid_report_subscriber_event_prio1_
                0x00045598        0x0 app/libapp.a(hid_event.c.obj)

event_subscribers_hid_report_subscriber_event_prio2_
                0x00045598        0x0
 event_subscribers_hid_report_subscriber_event_prio2_
                0x00045598        0x0 app/libapp.a(hid_event.c.obj)

event_subscribers_hid_report_subscription_event_prio0_
                0x00045598        0x0
 event_subscribers_hid_report_subscription_event_prio0_
                0x00045598        0x0 app/libapp.a(hid_event.c.obj)

event_subscribers_hid_report_subscription_event_prio1_
                0x00045598        0x8
 event_subscribers_hid_report_subscription_event_prio1_
                0x00045598        0x0 app/libapp.a(hid_event.c.obj)
                0x00045598                event_subscribers_hid_report_subscription_event_prio1_empty
 event_subscribers_hid_report_subscription_event_prio1_
                0x00045598        0x4 app/libapp.a(motion_sensor.c.obj)
                0x00045598                __event_subscriber_hid_report_subscription_eventmotion
 event_subscribers_hid_report_subscription_event_prio1_
                0x0004559c        0x4 app/libapp.a(hid_state.c.obj)
                0x0004559c                __event_subscriber_hid_report_subscription_eventhid_state

event_subscribers_hid_report_subscription_event_prio2_
                0x000455a0        0x0
 event_subscribers_hid_report_subscription_event_prio2_
                0x000455a0        0x0 app/libapp.a(hid_event.c.obj)

event_subscribers_led_event_prio0_
                0x000455a0        0x4
 event_subscribers_led_event_prio0_
                0x000455a0        0x0 app/libapp.a(led_event.c.obj)
                0x000455a0                event_subscribers_led_event_prio0_empty
 event_subscribers_led_event_prio0_
                0x000455a0        0x4 app/libapp.a(led_stream.c.obj)
                0x000455a0                __event_subscriber_led_eventled_stream

event_subscribers_led_event_prio1_
                0x000455a4        0x4
 event_subscribers_led_event_prio1_
                0x000455a4        0x0 app/libapp.a(led_event.c.obj)
                0x000455a4                event_subscribers_led_event_prio1_empty
 event_subscribers_led_event_prio1_
                0x000455a4        0x4 app/libapp.a(leds.c.obj)
                0x000455a4                __event_subscriber_led_eventleds

event_subscribers_led_event_prio2_
                0x000455a8        0x0
 event_subscribers_led_event_prio2_
                0x000455a8        0x0 app/libapp.a(led_event.c.obj)

event_subscribers_led_ready_event_prio0_
                0x000455a8        0x0
 event_subscribers_led_ready_event_prio0_
                0x000455a8        0x0 app/libapp.a(led_event.c.obj)

event_subscribers_led_ready_event_prio1_
                0x000455a8        0x4
 event_subscribers_led_ready_event_prio1_
                0x000455a8        0x0 app/libapp.a(led_event.c.obj)
                0x000455a8                event_subscribers_led_ready_event_prio1_empty
 event_subscribers_led_ready_event_prio1_
                0x000455a8        0x4 app/libapp.a(led_stream.c.obj)
                0x000455a8                __event_subscriber_led_ready_eventled_stream

event_subscribers_led_ready_event_prio2_
                0x000455ac        0x0
 event_subscribers_led_ready_event_prio2_
                0x000455ac        0x0 app/libapp.a(led_event.c.obj)

event_subscribers_config_event_prio0_
                0x000455ac        0xc
 event_subscribers_config_event_prio0_
                0x000455ac        0x0 app/libapp.a(config_event.c.obj)
                0x000455ac                event_subscribers_config_event_prio0_empty
 event_subscribers_config_event_prio0_
                0x000455ac        0x4 app/libapp.a(motion_sensor.c.obj)
                0x000455ac                __event_subscriber_config_eventmotion
 event_subscribers_config_event_prio0_
                0x000455b0        0x4 app/libapp.a(ble_bond.c.obj)
                0x000455b0                __event_subscriber_config_eventble_bond
 event_subscribers_config_event_prio0_
                0x000455b4        0x4 app/libapp.a(config.c.obj)
                0x000455b4                __event_subscriber_config_eventconfig

event_subscribers_config_event_prio1_
                0x000455b8       0x10
 event_subscribers_config_event_prio1_
                0x000455b8        0x0 app/libapp.a(config_event.c.obj)
                0x000455b8                event_subscribers_config_event_prio1_empty
 event_subscribers_config_event_prio1_
                0x000455b8        0x4 app/libapp.a(ble_latency.c.obj)
                0x000455b8                __event_subscriber_config_eventble_latency
 event_subscribers_config_event_prio1_
                0x000455bc        0x4 app/libapp.a(usb_state.c.obj)
                0x000455bc                __event_subscriber_config_eventusb_state
 event_subscribers_config_event_prio1_
                0x000455c0        0x4 app/libapp.a(led_stream.c.obj)
                0x000455c0                __event_subscriber_config_eventled_stream
 event_subscribers_config_event_prio1_
                0x000455c4        0x4 app/libapp.a(hids.c.obj)
                0x000455c4                __event_subscriber_config_eventhids

event_subscribers_config_event_prio2_
                0x000455c8        0x0
 event_subscribers_config_event_prio2_
                0x000455c8        0x0 app/libapp.a(config_event.c.obj)

event_subscribers_config_fetch_event_prio0_
                0x000455c8        0x0
 event_subscribers_config_fetch_event_prio0_
                0x000455c8        0x0 app/libapp.a(config_event.c.obj)

event_subscribers_config_fetch_event_prio1_
                0x000455c8        0x8
 event_subscribers_config_fetch_event_prio1_
                0x000455c8        0x0 app/libapp.a(config_event.c.obj)
                0x000455c8                event_subscribers_config_fetch_event_prio1_empty
 event_subscribers_config_fetch_event_prio1_
                0x000455c8        0x4 app/libapp.a(usb_state.c.obj)
                0x000455c8                __event_subscriber_config_fetch_eventusb_state
 event_subscribers_config_fetch_event_prio1_
                0x000455cc        0x4 app/libapp.a(hids.c.obj)
                0x000455cc                __event_subscriber_config_fetch_eventhids

event_subscribers_config_fetch_event_prio2_
                0x000455d0        0x0
 event_subscribers_config_fetch_event_prio2_
                0x000455d0        0x0 app/libapp.a(config_event.c.obj)

event_subscribers_config_fetch_request_event_prio0_
                0x000455d0        0x0
 event_subscribers_config_fetch_request_event_prio0_
                0x000455d0        0x0 app/libapp.a(config_event.c.obj)

event_subscribers_config_fetch_request_event_prio1_
                0x000455d0        0xc
 event_subscribers_config_fetch_request_event_prio1_
                0x000455d0        0x0 app/libapp.a(config_event.c.obj)
                0x000455d0                event_subscribers_config_fetch_request_event_prio1_empty
 event_subscribers_config_fetch_request_event_prio1_
                0x000455d0        0x4 app/libapp.a(motion_sensor.c.obj)
                0x000455d0                __event_subscriber_config_fetch_request_eventmotion
 event_subscribers_config_fetch_request_event_prio1_
                0x000455d4        0x4 app/libapp.a(ble_latency.c.obj)
                0x000455d4                __event_subscriber_config_fetch_request_eventble_latency
 event_subscribers_config_fetch_request_event_prio1_
                0x000455d8        0x4 app/libapp.a(led_stream.c.obj)
                0x000455d8                __event_subscriber_config_fetch_request_eventled_stream

event_subscribers_config_fetch_request_event_prio2_
                0x000455dc        0x0
 event_subscribers_config_fetch_request_event_prio2_
                0x000455dc        0x0 app/libapp.a(config_event.c.obj)

event_subscribers_config_forward_event_prio0_
                0x000455dc        0x0
 event_subscribers_config_forward_event_prio0_
                0x000455dc        0x0 app/libapp.a(config_event.c.obj)

event_subscribers_config_forward_event_prio1_
                0x000455dc        0x0
 event_subscribers_config_forward_event_prio1_
                0x000455dc        0x0 app/libapp.a(config_event.c.obj)

event_subscribers_config_forward_event_prio2_
                0x000455dc        0x0
 event_subscribers_config_forward_event_prio2_
                0x000455dc        0x0 app/libapp.a(config_event.c.obj)

event_subscribers_config_forward_get_event_prio0_
                0x000455dc        0x0
 event_subscribers_config_forward_get_event_prio0_
                0x000455dc        0x0 app/libapp.a(config_event.c.obj)

event_subscribers_config_forward_get_event_prio1_
                0x000455dc        0x0
 event_subscribers_config_forward_get_event_prio1_
                0x000455dc        0x0 app/libapp.a(config_event.c.obj)

event_subscribers_config_forward_get_event_prio2_
                0x000455dc        0x0
 event_subscribers_config_forward_get_event_prio2_
                0x000455dc        0x0 app/libapp.a(config_event.c.obj)

event_subscribers_config_forwarded_event_prio0_
                0x000455dc        0x0
 event_subscribers_config_forwarded_event_prio0_
                0x000455dc        0x0 app/libapp.a(config_event.c.obj)

event_subscribers_config_forwarded_event_prio1_
                0x000455dc        0x4
 event_subscribers_config_forwarded_event_prio1_
                0x000455dc        0x0 app/libapp.a(config_event.c.obj)
                0x000455dc                event_subscribers_config_forwarded_event_prio1_empty
 event_subscribers_config_forwarded_event_prio1_
                0x000455dc        0x4 app/libapp.a(usb_state.c.obj)
                0x000455dc                __event_subscriber_config_forwarded_eventusb_state

event_subscribers_config_forwarded_event_prio2_
                0x000455e0        0x0
 event_subscribers_config_forwarded_event_prio2_
                0x000455e0        0x0 app/libapp.a(config_event.c.obj)

event_subscribers_module_state_event_prio0_
                0x000455e0        0x4
 event_subscribers_module_state_event_prio0_
                0x000455e0        0x0 app/libapp.a(module_state_event.c.obj)
                0x000455e0                event_subscribers_module_state_event_prio0_empty
 event_subscribers_module_state_event_prio0_
                0x000455e0        0x4 app/libapp.a(board.c.obj)
                0x000455e0                __event_subscriber_module_state_eventboard

event_subscribers_module_state_event_prio1_
                0x000455e4       0x54
 event_subscribers_module_state_event_prio1_
                0x000455e4        0x0 app/libapp.a(module_state_event.c.obj)
                0x000455e4                event_subscribers_module_state_event_prio1_empty
 event_subscribers_module_state_event_prio1_
                0x000455e4        0x4 app/libapp.a(motion_sensor.c.obj)
                0x000455e4                __event_subscriber_module_state_eventmotion
 event_subscribers_module_state_event_prio1_
                0x000455e8        0x4 app/libapp.a(buttons.c.obj)
                0x000455e8                __event_subscriber_module_state_eventbuttons
 event_subscribers_module_state_event_prio1_
                0x000455ec        0x4 app/libapp.a(click_detector.c.obj)
                0x000455ec                __event_subscriber_module_state_eventclick_detector
 event_subscribers_module_state_event_prio1_
                0x000455f0        0x4 app/libapp.a(selector_hw.c.obj)
                0x000455f0                __event_subscriber_module_state_eventselector_hw
 event_subscribers_module_state_event_prio1_
                0x000455f4        0x4 app/libapp.a(wheel.c.obj)
                0x000455f4                __event_subscriber_module_state_eventwheel
 event_subscribers_module_state_event_prio1_
                0x000455f8        0x4 app/libapp.a(leds.c.obj)
                0x000455f8                __event_subscriber_module_state_eventleds
 event_subscribers_module_state_event_prio1_
                0x000455fc        0x4 app/libapp.a(battery_charger.c.obj)
                0x000455fc                __event_subscriber_module_state_eventbattery_charger
 event_subscribers_module_state_event_prio1_
                0x00045600        0x4 app/libapp.a(battery_meas.c.obj)
                0x00045600                __event_subscriber_module_state_eventbattery_meas
 event_subscribers_module_state_event_prio1_
                0x00045604        0x4 app/libapp.a(ble_state.c.obj)
                0x00045604                __event_subscriber_module_state_eventble_state
 event_subscribers_module_state_event_prio1_
                0x00045608        0x4 app/libapp.a(ble_bond.c.obj)
                0x00045608                __event_subscriber_module_state_eventble_bond
 event_subscribers_module_state_event_prio1_
                0x0004560c        0x4 app/libapp.a(ble_latency.c.obj)
                0x0004560c                __event_subscriber_module_state_eventble_latency
 event_subscribers_module_state_event_prio1_
                0x00045610        0x4 app/libapp.a(ble_adv.c.obj)
                0x00045610                __event_subscriber_module_state_eventble_adv
 event_subscribers_module_state_event_prio1_
                0x00045614        0x4 app/libapp.a(config.c.obj)
                0x00045614                __event_subscriber_module_state_eventconfig
 event_subscribers_module_state_event_prio1_
                0x00045618        0x4 app/libapp.a(hid_state.c.obj)
                0x00045618                __event_subscriber_module_state_eventhid_state
 event_subscribers_module_state_event_prio1_
                0x0004561c        0x4 app/libapp.a(usb_state.c.obj)
                0x0004561c                __event_subscriber_module_state_eventusb_state
 event_subscribers_module_state_event_prio1_
                0x00045620        0x4 app/libapp.a(led_state.c.obj)
                0x00045620                __event_subscriber_module_state_eventled_state
 event_subscribers_module_state_event_prio1_
                0x00045624        0x4 app/libapp.a(led_stream.c.obj)
                0x00045624                __event_subscriber_module_state_eventled_stream
 event_subscribers_module_state_event_prio1_
                0x00045628        0x4 app/libapp.a(power_manager.c.obj)
                0x00045628                __event_subscriber_module_state_eventpower_manager
 event_subscribers_module_state_event_prio1_
                0x0004562c        0x4 app/libapp.a(watchdog.c.obj)
                0x0004562c                __event_subscriber_module_state_eventwatchdog
 event_subscribers_module_state_event_prio1_
                0x00045630        0x4 app/libapp.a(bas.c.obj)
                0x00045630                __event_subscriber_module_state_eventbas
 event_subscribers_module_state_event_prio1_
                0x00045634        0x4 app/libapp.a(hids.c.obj)
                0x00045634                __event_subscriber_module_state_eventhids

event_subscribers_module_state_event_prio2_
                0x00045638        0x0
 event_subscribers_module_state_event_prio2_
                0x00045638        0x0 app/libapp.a(module_state_event.c.obj)

event_subscribers_motion_event_prio0_
                0x00045638        0x0
 event_subscribers_motion_event_prio0_
                0x00045638        0x0 app/libapp.a(motion_event.c.obj)

event_subscribers_motion_event_prio1_
                0x00045638        0x4
 event_subscribers_motion_event_prio1_
                0x00045638        0x0 app/libapp.a(motion_event.c.obj)
                0x00045638                event_subscribers_motion_event_prio1_empty
 event_subscribers_motion_event_prio1_
                0x00045638        0x4 app/libapp.a(hid_state.c.obj)
                0x00045638                __event_subscriber_motion_eventhid_state

event_subscribers_motion_event_prio2_
                0x0004563c        0x0
 event_subscribers_motion_event_prio2_
                0x0004563c        0x0 app/libapp.a(motion_event.c.obj)

event_subscribers_power_down_event_prio0_
                0x0004563c       0x14
 event_subscribers_power_down_event_prio0_
                0x0004563c        0x0 app/libapp.a(power_event.c.obj)
                0x0004563c                event_subscribers_power_down_event_prio0_empty
 event_subscribers_power_down_event_prio0_
                0x0004563c        0x4 app/libapp.a(motion_sensor.c.obj)
                0x0004563c                __event_subscriber_power_down_eventmotion
 event_subscribers_power_down_event_prio0_
                0x00045640        0x4 app/libapp.a(buttons.c.obj)
                0x00045640                __event_subscriber_power_down_eventbuttons
 event_subscribers_power_down_event_prio0_
                0x00045644        0x4 app/libapp.a(wheel.c.obj)
                0x00045644                __event_subscriber_power_down_eventwheel
 event_subscribers_power_down_event_prio0_
                0x00045648        0x4 app/libapp.a(battery_charger.c.obj)
                0x00045648                __event_subscriber_power_down_eventbattery_charger
 event_subscribers_power_down_event_prio0_
                0x0004564c        0x4 app/libapp.a(battery_meas.c.obj)
                0x0004564c                __event_subscriber_power_down_eventbattery_meas

event_subscribers_power_down_event_prio1_
                0x00045650       0x14
 event_subscribers_power_down_event_prio1_
                0x00045650        0x0 app/libapp.a(power_event.c.obj)
                0x00045650                event_subscribers_power_down_event_prio1_empty
 event_subscribers_power_down_event_prio1_
                0x00045650        0x4 app/libapp.a(board.c.obj)
                0x00045650                __event_subscriber_power_down_eventboard
 event_subscribers_power_down_event_prio1_
                0x00045654        0x4 app/libapp.a(click_detector.c.obj)
                0x00045654                __event_subscriber_power_down_eventclick_detector
 event_subscribers_power_down_event_prio1_
                0x00045658        0x4 app/libapp.a(selector_hw.c.obj)
                0x00045658                __event_subscriber_power_down_eventselector_hw
 event_subscribers_power_down_event_prio1_
                0x0004565c        0x4 app/libapp.a(leds.c.obj)
                0x0004565c                __event_subscriber_power_down_eventleds
 event_subscribers_power_down_event_prio1_
                0x00045660        0x4 app/libapp.a(ble_adv.c.obj)
                0x00045660                __event_subscriber_power_down_eventble_adv

event_subscribers_power_down_event_prio2_
                0x00045664        0x4
 event_subscribers_power_down_event_prio2_
                0x00045664        0x0 app/libapp.a(power_event.c.obj)
                0x00045664                event_subscribers_power_down_event_prio2_empty
 event_subscribers_power_down_event_prio2_
                0x00045664        0x4 app/libapp.a(power_manager.c.obj)
                0x00045664                __event_subscriber_power_down_eventpower_manager

event_subscribers_wake_up_event_prio0_
                0x00045668        0x4
 event_subscribers_wake_up_event_prio0_
                0x00045668        0x0 app/libapp.a(power_event.c.obj)
                0x00045668                event_subscribers_wake_up_event_prio0_empty
 event_subscribers_wake_up_event_prio0_
                0x00045668        0x4 app/libapp.a(power_manager.c.obj)
                0x00045668                __event_subscriber_wake_up_eventpower_manager

event_subscribers_wake_up_event_prio1_
                0x0004566c       0x28
 event_subscribers_wake_up_event_prio1_
                0x0004566c        0x0 app/libapp.a(power_event.c.obj)
                0x0004566c                event_subscribers_wake_up_event_prio1_empty
 event_subscribers_wake_up_event_prio1_
                0x0004566c        0x4 app/libapp.a(board.c.obj)
                0x0004566c                __event_subscriber_wake_up_eventboard
 event_subscribers_wake_up_event_prio1_
                0x00045670        0x4 app/libapp.a(motion_sensor.c.obj)
                0x00045670                __event_subscriber_wake_up_eventmotion
 event_subscribers_wake_up_event_prio1_
                0x00045674        0x4 app/libapp.a(buttons.c.obj)
                0x00045674                __event_subscriber_wake_up_eventbuttons
 event_subscribers_wake_up_event_prio1_
                0x00045678        0x4 app/libapp.a(click_detector.c.obj)
                0x00045678                __event_subscriber_wake_up_eventclick_detector
 event_subscribers_wake_up_event_prio1_
                0x0004567c        0x4 app/libapp.a(selector_hw.c.obj)
                0x0004567c                __event_subscriber_wake_up_eventselector_hw
 event_subscribers_wake_up_event_prio1_
                0x00045680        0x4 app/libapp.a(wheel.c.obj)
                0x00045680                __event_subscriber_wake_up_eventwheel
 event_subscribers_wake_up_event_prio1_
                0x00045684        0x4 app/libapp.a(leds.c.obj)
                0x00045684                __event_subscriber_wake_up_eventleds
 event_subscribers_wake_up_event_prio1_
                0x00045688        0x4 app/libapp.a(battery_charger.c.obj)
                0x00045688                __event_subscriber_wake_up_eventbattery_charger
 event_subscribers_wake_up_event_prio1_
                0x0004568c        0x4 app/libapp.a(battery_meas.c.obj)
                0x0004568c                __event_subscriber_wake_up_eventbattery_meas
 event_subscribers_wake_up_event_prio1_
                0x00045690        0x4 app/libapp.a(ble_adv.c.obj)
                0x00045690                __event_subscriber_wake_up_eventble_adv

event_subscribers_wake_up_event_prio2_
                0x00045694        0x0
 event_subscribers_wake_up_event_prio2_
                0x00045694        0x0 app/libapp.a(power_event.c.obj)

event_subscribers_wheel_event_prio0_
                0x00045694        0x0
 event_subscribers_wheel_event_prio0_
                0x00045694        0x0 app/libapp.a(wheel_event.c.obj)

event_subscribers_wheel_event_prio1_
                0x00045694        0x4
 event_subscribers_wheel_event_prio1_
                0x00045694        0x0 app/libapp.a(wheel_event.c.obj)
                0x00045694                event_subscribers_wheel_event_prio1_empty
 event_subscribers_wheel_event_prio1_
                0x00045694        0x4 app/libapp.a(hid_state.c.obj)
                0x00045694                __event_subscriber_wheel_eventhid_state

event_subscribers_wheel_event_prio2_
                0x00045698        0x0
 event_subscribers_wheel_event_prio2_
                0x00045698        0x0 app/libapp.a(wheel_event.c.obj)

event_subscribers_usb_state_event_prio0_
                0x00045698        0x0
 event_subscribers_usb_state_event_prio0_
                0x00045698        0x0 app/libapp.a(usb_event.c.obj)

event_subscribers_usb_state_event_prio1_
                0x00045698        0xc
 event_subscribers_usb_state_event_prio1_
                0x00045698        0x0 app/libapp.a(usb_event.c.obj)
                0x00045698                event_subscribers_usb_state_event_prio1_empty
 event_subscribers_usb_state_event_prio1_
                0x00045698        0x4 app/libapp.a(battery_charger.c.obj)
                0x00045698                __event_subscriber_usb_state_eventbattery_charger
 event_subscribers_usb_state_event_prio1_
                0x0004569c        0x4 app/libapp.a(hid_state.c.obj)
                0x0004569c                __event_subscriber_usb_state_eventhid_state
 event_subscribers_usb_state_event_prio1_
                0x000456a0        0x4 app/libapp.a(power_manager.c.obj)
                0x000456a0                __event_subscriber_usb_state_eventpower_manager

event_subscribers_usb_state_event_prio2_
                0x000456a4        0x0
 event_subscribers_usb_state_event_prio2_
                0x000456a4        0x0 app/libapp.a(usb_event.c.obj)

event_subscribers_hid_notification_event_prio0_
                0x000456a4        0x0
 event_subscribers_hid_notification_event_prio0_
                0x000456a4        0x0 app/libapp.a(hids_event.c.obj)

event_subscribers_hid_notification_event_prio1_
                0x000456a4        0x4
 event_subscribers_hid_notification_event_prio1_
                0x000456a4        0x0 app/libapp.a(hids_event.c.obj)
                0x000456a4                event_subscribers_hid_notification_event_prio1_empty
 event_subscribers_hid_notification_event_prio1_
                0x000456a4        0x4 app/libapp.a(hids.c.obj)
                0x000456a4                __event_subscriber_hid_notification_eventhids

event_subscribers_hid_notification_event_prio2_
                0x000456a8        0x0
 event_subscribers_hid_notification_event_prio2_
                0x000456a8        0x0 app/libapp.a(hids_event.c.obj)

event_listeners
                0x000456a8       0xb0
 event_listeners
                0x000456a8        0x8 app/libapp.a(board.c.obj)
                0x000456a8                __event_listener_board
 event_listeners
                0x000456b0        0x8 app/libapp.a(motion_sensor.c.obj)
                0x000456b0                __event_listener_motion
 event_listeners
                0x000456b8        0x8 app/libapp.a(buttons.c.obj)
                0x000456b8                __event_listener_buttons
 event_listeners
                0x000456c0        0x8 app/libapp.a(click_detector.c.obj)
                0x000456c0                __event_listener_click_detector
 event_listeners
                0x000456c8        0x8 app/libapp.a(selector_hw.c.obj)
                0x000456c8                __event_listener_selector_hw
 event_listeners
                0x000456d0        0x8 app/libapp.a(wheel.c.obj)
                0x000456d0                __event_listener_wheel
 event_listeners
                0x000456d8        0x8 app/libapp.a(leds.c.obj)
                0x000456d8                __event_listener_leds
 event_listeners
                0x000456e0        0x8 app/libapp.a(battery_charger.c.obj)
                0x000456e0                __event_listener_battery_charger
 event_listeners
                0x000456e8        0x8 app/libapp.a(battery_meas.c.obj)
                0x000456e8                __event_listener_battery_meas
 event_listeners
                0x000456f0        0x8 app/libapp.a(ble_state.c.obj)
                0x000456f0                __event_listener_ble_state
 event_listeners
                0x000456f8        0x8 app/libapp.a(ble_bond.c.obj)
                0x000456f8                __event_listener_ble_bond
 event_listeners
                0x00045700        0x8 app/libapp.a(ble_latency.c.obj)
                0x00045700                __event_listener_ble_latency
 event_listeners
                0x00045708        0x8 app/libapp.a(ble_adv.c.obj)
                0x00045708                __event_listener_ble_adv
 event_listeners
                0x00045710        0x8 app/libapp.a(config.c.obj)
                0x00045710                __event_listener_config
 event_listeners
                0x00045718        0x8 app/libapp.a(hid_state.c.obj)
                0x00045718                __event_listener_hid_state
 event_listeners
                0x00045720        0x8 app/libapp.a(usb_state.c.obj)
                0x00045720                __event_listener_usb_state
 event_listeners
                0x00045728        0x8 app/libapp.a(led_state.c.obj)
                0x00045728                __event_listener_led_state
 event_listeners
                0x00045730        0x8 app/libapp.a(led_stream.c.obj)
                0x00045730                __event_listener_led_stream
 event_listeners
                0x00045738        0x8 app/libapp.a(power_manager.c.obj)
                0x00045738                __event_listener_power_manager
 event_listeners
                0x00045740        0x8 app/libapp.a(watchdog.c.obj)
                0x00045740                __event_listener_watchdog
 event_listeners
                0x00045748        0x8 app/libapp.a(bas.c.obj)
                0x00045748                __event_listener_bas
 event_listeners
                0x00045750        0x8 app/libapp.a(hids.c.obj)
                0x00045750                __event_listener_hids
                0x00045760                . = ALIGN (_region_min_align)
                0x00080000                . = ALIGN ((0x1 << LOG2CEIL ((_image_rodata_end - _image_rom_start))))
                0x00080000                _image_rom_end = .
                0x20000000                . = 0x20000000
                0x20000000                . = ALIGN (_region_min_align)
                0x20000000                _image_ram_start = .

.ramfunc        0x20000000        0x0 load address 0x00045758
                0x20000000                . = ALIGN (_region_min_align)
                0x20000000                . = ALIGN ((0x1 << LOG2CEIL (_ramfunc_ram_size)))
                0x20000000                _ramfunc_ram_start = .
 *(SORT_BY_ALIGNMENT(.ramfunc))
 *(SORT_BY_ALIGNMENT(.ramfunc.*))
                0x20000000                . = ALIGN (_region_min_align)
                0x20000000                . = ALIGN ((0x1 << LOG2CEIL (_ramfunc_ram_size)))
                0x20000000                _ramfunc_ram_end = .
                0x00000000                _ramfunc_ram_size = (_ramfunc_ram_end - _ramfunc_ram_start)
                0x00045758                _ramfunc_rom_start = LOADADDR (.ramfunc)

bss             0x20000000     0x4801
                0x20000000                . = ALIGN (0x4)
                0x20000000                __bss_start = .
                0x20000000                __kernel_ram_start = .
 *(SORT_BY_ALIGNMENT(.bss))
 .bss           0x20000000     0x1850 C:/ncs.sojkk/nrfxlib/ble_controller/lib/cortex-m4/soft-float/libble_controller_s140.a(libble_controller_debug_s140_soft_nrf52__obfuscated.elf)
                0x20000000                sym_JF7OQNSC4R3PB6AV3YQ6CRBTG22NKNR4QN3ETTY
                0x20000010                sym_PV5WZGKIAF7TLZKAJNMFCRDXP7RPRTBYVWWBFMY
                0x200009ba                sym_SXHUVOM4EI7L4NGF2KWSQ6ZLB3KNNMW76PXITUA
 *(SORT_BY_ALIGNMENT(.bss.*))
 .bss.curr_tick
                0x20001850        0x8 zephyr/kernel/libkernel.a(timeout.c.obj)
 .bss.battery_level_event_log_arg_labels
                0x20001858        0x0 app/libapp.a(battery_event.c.obj)
 .bss.battery_state_event_log_arg_labels
                0x20001858        0x0 app/libapp.a(battery_event.c.obj)
 .bss.ble_peer_event_log_arg_labels
                0x20001858        0x0 app/libapp.a(ble_event.c.obj)
 .bss.ble_peer_operation_event_log_arg_labels
                0x20001858        0x0 app/libapp.a(ble_event.c.obj)
 .bss.ble_peer_search_event_log_arg_labels
                0x20001858        0x0 app/libapp.a(ble_event.c.obj)
 .bss.button_event_log_arg_labels
                0x20001858        0x0 app/libapp.a(button_event.c.obj)
 .bss.click_event_log_arg_labels
                0x20001858        0x0 app/libapp.a(click_event.c.obj)
 .bss.selector_event_log_arg_labels
                0x20001858        0x0 app/libapp.a(selector_event.c.obj)
 .bss.hid_consumer_ctrl_event_log_arg_labels
                0x20001858        0x0 app/libapp.a(hid_event.c.obj)
 .bss.hid_mouse_event_log_arg_labels
                0x20001858        0x0 app/libapp.a(hid_event.c.obj)
 .bss.hid_report_sent_event_log_arg_labels
                0x20001858        0x0 app/libapp.a(hid_event.c.obj)
 .bss.hid_report_subscriber_event_log_arg_labels
                0x20001858        0x0 app/libapp.a(hid_event.c.obj)
 .bss.hid_report_subscription_event_log_arg_labels
                0x20001858        0x0 app/libapp.a(hid_event.c.obj)
 .bss.config_event_log_arg_labels
                0x20001858        0x0 app/libapp.a(config_event.c.obj)
 .bss.config_fetch_event_log_arg_labels
                0x20001858        0x0 app/libapp.a(config_event.c.obj)
 .bss.config_fetch_request_event_log_arg_labels
                0x20001858        0x0 app/libapp.a(config_event.c.obj)
 .bss.motion_event_log_arg_labels
                0x20001858        0x0 app/libapp.a(motion_event.c.obj)
 .bss.nodata.9908
                0x20001858        0x4 app/libapp.a(motion_sensor.c.obj)
 .bss.sensor_dev
                0x2000185c        0x4 app/libapp.a(motion_sensor.c.obj)
 .bss.state     0x20001860       0x18 app/libapp.a(motion_sensor.c.obj)
 .bss.thread    0x20001878       0x6c app/libapp.a(motion_sensor.c.obj)
 .bss.button_pressed
                0x200018e4       0x20 app/libapp.a(buttons.c.obj)
 .bss.gpio_cb   0x20001904       0x18 app/libapp.a(buttons.c.obj)
 .bss.gpio_devs
                0x2000191c        0x8 app/libapp.a(buttons.c.obj)
 .bss.matrix_scan
                0x20001924       0x20 app/libapp.a(buttons.c.obj)
 .bss.prev_state.9580
                0x20001944        0x4 app/libapp.a(buttons.c.obj)
 .bss.settled_state.9579
                0x20001948        0x4 app/libapp.a(buttons.c.obj)
 .bss.click_check
                0x2000194c       0x20 app/libapp.a(click_detector.c.obj)
 .bss.keys      0x2000196c        0x8 app/libapp.a(click_detector.c.obj)
 .bss.gpio_dev  0x20001974        0x8 app/libapp.a(selector_hw.c.obj)
 .bss.selectors
                0x2000197c       0x40 app/libapp.a(selector_hw.c.obj)
 .bss.gpio_cbs  0x200019bc       0x18 app/libapp.a(wheel.c.obj)
 .bss.gpio_dev  0x200019d4        0x4 app/libapp.a(wheel.c.obj)
 .bss.qdec_dev  0x200019d8        0x4 app/libapp.a(wheel.c.obj)
 .bss.leds      0x200019dc       0x60 app/libapp.a(leds.c.obj)
 .bss.active    0x20001a3c        0x4 app/libapp.a(battery_charger.c.obj)
 .bss.cso_counter
                0x20001a40        0x4 app/libapp.a(battery_charger.c.obj)
 .bss.error_check
                0x20001a44       0x20 app/libapp.a(battery_charger.c.obj)
 .bss.gpio_cb   0x20001a64        0xc app/libapp.a(battery_charger.c.obj)
 .bss.gpio_dev  0x20001a70        0x4 app/libapp.a(battery_charger.c.obj)
 .bss.active    0x20001a74        0x4 app/libapp.a(battery_meas.c.obj)
 .bss.adc_dev   0x20001a78        0x4 app/libapp.a(battery_meas.c.obj)
 .bss.battery_lvl_read
                0x20001a7c       0x20 app/libapp.a(battery_meas.c.obj)
 .bss.gpio_dev  0x20001a9c        0x4 app/libapp.a(battery_meas.c.obj)
 .bss.active_conn
                0x20001aa0        0x4 app/libapp.a(ble_state.c.obj)
 .bss.bt_stack_id_lut
                0x20001aa4        0x5 app/libapp.a(ble_bond.c.obj)
 *fill*         0x20001aa9        0x3 
 .bss.timeout   0x20001aac       0x20 app/libapp.a(ble_bond.c.obj)
 .bss.active_conn
                0x20001acc        0x4 app/libapp.a(ble_latency.c.obj)
 .bss.low_latency_check
                0x20001ad0       0x20 app/libapp.a(ble_latency.c.obj)
 .bss.security_timeout
                0x20001af0       0x20 app/libapp.a(ble_latency.c.obj)
 .bss.adv_update
                0x20001b10       0x20 app/libapp.a(ble_adv.c.obj)
 .bss.sp_grace_period_to
                0x20001b30       0x20 app/libapp.a(ble_adv.c.obj)
 .bss.loaded_data
                0x20001b50       0x10 app/libapp.a(config.c.obj)
 .bss.req_state.9563
                0x20001b60        0x4 app/libapp.a(config.c.obj)
 .bss.cfg_chan  0x20001b64       0x54 app/libapp.a(usb_state.c.obj)
 .bss.usb_dev   0x20001bb8        0x4 app/libapp.a(usb_state.c.obj)
 .bss.leds      0x20001bbc      0x120 app/libapp.a(led_stream.c.obj)
 .bss.connection_count
                0x20001cdc        0x4 app/libapp.a(power_manager.c.obj)
 .bss.error_trigger
                0x20001ce0       0x20 app/libapp.a(power_manager.c.obj)
 .bss.power_down_count
                0x20001d00        0x4 app/libapp.a(power_manager.c.obj)
 .bss.power_down_trigger
                0x20001d04       0x20 app/libapp.a(power_manager.c.obj)
 .bss.wdt_data  0x20001d24       0x28 app/libapp.a(watchdog.c.obj)
 .bss.__compound_literal.0
                0x20001d4c      0x17c app/libapp.a(hids.c.obj)
 .bss.cfg_chan  0x20001ec8       0x54 app/libapp.a(hids.c.obj)
 .bss.cur_conn  0x20001f1c        0x4 app/libapp.a(hids.c.obj)
 .bss.report_enabled
                0x20001f20        0x6 app/libapp.a(hids.c.obj)
 *fill*         0x20001f26        0x2 
 .bss.report_index
                0x20001f28       0x18 app/libapp.a(hids.c.obj)
 .bss.subscribed
                0x20001f40        0x3 app/libapp.a(hids.c.obj)
 *fill*         0x20001f43        0x1 
 .bss.usb_dev   0x20001f44      0x1c8 zephyr/libzephyr.a(usb_device.c.obj)
 .bss.settings_load_srcs
                0x2000210c        0x8 zephyr/libzephyr.a(settings_store.c.obj)
                0x2000210c                settings_load_srcs
 .bss.settings_save_dst
                0x20002114        0x4 zephyr/libzephyr.a(settings_store.c.obj)
                0x20002114                settings_save_dst
 .bss.settings_handlers
                0x20002118        0x8 zephyr/libzephyr.a(settings.c.obj)
                0x20002118                settings_handlers
 .bss.settings_fcb_area
                0x20002120       0x48 zephyr/libzephyr.a(settings_init.c.obj)
 .bss.settings_io_cb
                0x20002168       0x10 zephyr/libzephyr.a(settings_line.c.obj)
                0x20002168                settings_io_cb
 .bss.device_count
                0x20002178        0x4 zephyr/libzephyr.a(device.c.obj)
 .bss.device_ordered_list
                0x2000217c       0x3c zephyr/libzephyr.a(device.c.obj)
 .bss.device_retval
                0x200021b8       0x3c zephyr/libzephyr.a(device.c.obj)
 .bss.pm_device_list
                0x200021f4        0x4 zephyr/libzephyr.a(device.c.obj)
 .bss._mpool_buf_ep_buf_pool
                0x200021f8      0x100 zephyr/libzephyr.a(usb_dc_nrfx.c.obj)
                0x200021f8                _mpool_buf_ep_buf_pool
 .bss._mpool_buf_fifo_elem_pool
                0x200022f8      0x300 zephyr/libzephyr.a(usb_dc_nrfx.c.obj)
                0x200022f8                _mpool_buf_fifo_elem_pool
 .bss._mpool_lvls_ep_buf_pool
                0x200025f8        0xc zephyr/libzephyr.a(usb_dc_nrfx.c.obj)
                0x200025f8                _mpool_lvls_ep_buf_pool
 .bss._mpool_lvls_fifo_elem_pool
                0x20002604        0xc zephyr/libzephyr.a(usb_dc_nrfx.c.obj)
                0x20002604                _mpool_lvls_fifo_elem_pool
 .bss.usbd_ctx  0x20002610       0xbc zephyr/libzephyr.a(usb_dc_nrfx.c.obj)
 .bss.usbd_work_queue
                0x200026cc       0x7c zephyr/libzephyr.a(usb_dc_nrfx.c.obj)
 .bss.wdt_0_data
                0x20002748       0x28 zephyr/libzephyr.a(wdt_nrfx.c.obj)
 .bss.last_count
                0x20002770        0x4 zephyr/libzephyr.a(nrf_rtc_timer.c.obj)
 .bss.chrc_locks
                0x20002774        0x4 zephyr/libzephyr.a(gatt_pool.c.obj)
 .bss.chrc_tab  0x20002778       0x38 zephyr/libzephyr.a(gatt_pool.c.obj)
 .bss.uuid_16_locks
                0x200027b0        0x4 zephyr/libzephyr.a(gatt_pool.c.obj)
 .bss.uuid_16_tab
                0x200027b4       0x6c zephyr/libzephyr.a(gatt_pool.c.obj)
 .bss.eventq    0x20002820        0x8 zephyr/libzephyr.a(event_manager.c.obj)
 .bss.mutex_slab
                0x20002828       0x1c zephyr/libzephyr.a(nrf_cc310_platform_mutex_zephyr.c.obj)
                0x20002828                mutex_slab
 .bss.mutex_slab_buffer
                0x20002844      0x500 zephyr/libzephyr.a(nrf_cc310_platform_mutex_zephyr.c.obj)
                0x20002844                mutex_slab_buffer
 .bss.ecc       0x20002d44       0x60 zephyr/subsys/bluetooth/host/libsubsys__bluetooth__host.a(hci_ecc.c.obj)
 .bss.ecc_thread_data
                0x20002da4       0x6c zephyr/subsys/bluetooth/host/libsubsys__bluetooth__host.a(hci_ecc.c.obj)
 .bss.flags     0x20002e10        0x4 zephyr/subsys/bluetooth/host/libsubsys__bluetooth__host.a(hci_ecc.c.obj)
 .bss.dh_key_cb
                0x20002e14        0x4 zephyr/subsys/bluetooth/host/libsubsys__bluetooth__host.a(hci_core.c.obj)
 .bss.pub_key   0x20002e18       0x40 zephyr/subsys/bluetooth/host/libsubsys__bluetooth__host.a(hci_core.c.obj)
 .bss.pub_key_cb
                0x20002e58        0x4 zephyr/subsys/bluetooth/host/libsubsys__bluetooth__host.a(hci_core.c.obj)
 .bss.ready_cb  0x20002e5c        0x4 zephyr/subsys/bluetooth/host/libsubsys__bluetooth__host.a(hci_core.c.obj)
 .bss.rx_thread_data
                0x20002e60       0x6c zephyr/subsys/bluetooth/host/libsubsys__bluetooth__host.a(hci_core.c.obj)
 .bss.tx_thread_data
                0x20002ecc       0x6c zephyr/subsys/bluetooth/host/libsubsys__bluetooth__host.a(hci_core.c.obj)
 .bss.bt_auth   0x20002f38        0x4 zephyr/subsys/bluetooth/host/libsubsys__bluetooth__host.a(conn.c.obj)
                0x20002f38                bt_auth
 .bss.callback_list
                0x20002f3c        0x4 zephyr/subsys/bluetooth/host/libsubsys__bluetooth__host.a(conn.c.obj)
 .bss.conn_tx   0x20002f40       0x54 zephyr/subsys/bluetooth/host/libsubsys__bluetooth__host.a(conn.c.obj)
 .bss.conns     0x20002f94       0x98 zephyr/subsys/bluetooth/host/libsubsys__bluetooth__host.a(conn.c.obj)
 .bss.bt_l2cap_pool
                0x2000302c       0xac zephyr/subsys/bluetooth/host/libsubsys__bluetooth__host.a(l2cap.c.obj)
 .bss.bt_req_pool
                0x200030d8      0x104 zephyr/subsys/bluetooth/host/libsubsys__bluetooth__host.a(att.c.obj)
 .bss.cancel    0x200031dc       0x18 zephyr/subsys/bluetooth/host/libsubsys__bluetooth__host.a(att.c.obj)
 .bss.cf_cfg    0x200031f4       0x60 zephyr/subsys/bluetooth/host/libsubsys__bluetooth__host.a(gatt.c.obj)
 .bss.db        0x20003254        0x8 zephyr/subsys/bluetooth/host/libsubsys__bluetooth__host.a(gatt.c.obj)
 .bss.db_hash   0x2000325c       0x10 zephyr/subsys/bluetooth/host/libsubsys__bluetooth__host.a(gatt.c.obj)
 .bss.db_hash_work
                0x2000326c       0x20 zephyr/subsys/bluetooth/host/libsubsys__bluetooth__host.a(gatt.c.obj)
                0x2000326c                db_hash_work
 .bss.gatt_ccc_store
                0x2000328c       0x24 zephyr/subsys/bluetooth/host/libsubsys__bluetooth__host.a(gatt.c.obj)
 .bss.gatt_sc   0x200032b0       0x54 zephyr/subsys/bluetooth/host/libsubsys__bluetooth__host.a(gatt.c.obj)
 .bss.init      0x20003304        0x4 zephyr/subsys/bluetooth/host/libsubsys__bluetooth__host.a(gatt.c.obj)
 .bss.sc_cfg    0x20003308       0x48 zephyr/subsys/bluetooth/host/libsubsys__bluetooth__host.a(gatt.c.obj)
 .bss.sc_restore_params
                0x20003350       0x2c zephyr/subsys/bluetooth/host/libsubsys__bluetooth__host.a(gatt.c.obj)
 .bss.stored_hash
                0x2000337c       0x10 zephyr/subsys/bluetooth/host/libsubsys__bluetooth__host.a(gatt.c.obj)
 .bss.bt_smp_pool
                0x2000338c      0x1b8 zephyr/subsys/bluetooth/host/libsubsys__bluetooth__host.a(smp.c.obj)
 .bss.sc_public_key
                0x20003544        0x4 zephyr/subsys/bluetooth/host/libsubsys__bluetooth__host.a(smp.c.obj)
 .bss.key_pool  0x20003548      0x280 zephyr/subsys/bluetooth/host/libsubsys__bluetooth__host.a(keys.c.obj)
 .bss.hid_api   0x200037c8        0x4 zephyr/subsys/usb/class/hid/libsubsys__usb__class__hid.a(core.c.obj)
 .bss.usb_hid_dev_data_0
                0x200037cc       0x18 zephyr/subsys/usb/class/hid/libsubsys__usb__class__hid.a(core.c.obj)
                0x200037cc                usb_hid_dev_data_0
 .bss.usb_hid_devlist
                0x200037e4        0x8 zephyr/subsys/usb/class/hid/libsubsys__usb__class__hid.a(core.c.obj)
 .bss.entropy_driver
                0x200037ec        0x4 zephyr/subsys/random/libsubsys__random.a(rand32_entropy_device.c.obj)
 .bss.gpio_nrfx_p0_data
                0x200037f0       0x20 zephyr/drivers/gpio/libdrivers__gpio.a(gpio_nrfx.c.obj)
 .bss.gpio_nrfx_p1_data
                0x20003810       0x20 zephyr/drivers/gpio/libdrivers__gpio.a(gpio_nrfx.c.obj)
 .bss.qdec_nrfx_data
                0x20003830        0xc zephyr/drivers/sensor/qdec_nrfx/libdrivers__sensor__qdec_nrfx.a(qdec_nrfx.c.obj)
 .bss.temp_nrf5_driver
                0x2000383c       0x20 zephyr/drivers/sensor/nrf5/libdrivers__sensor__nrf5.a(temp_nrf5.c.obj)
 .bss.dev_layout
                0x2000385c        0x8 zephyr/drivers/flash/libdrivers__flash.a(flash_ll_nrfxlib.c.obj)
 .bss.flash_state
                0x20003864       0x40 zephyr/drivers/flash/libdrivers__flash.a(flash_ll_nrfxlib.c.obj)
 .bss.rng_data  0x200038a4       0x18 zephyr/drivers/entropy/libdrivers__entropy.a(entropy_ll_nrfxlib.c.obj)
 .bss.ble_controller_mempool
                0x200038bc      0x680 zephyr/modules/nrf/subsys/bluetooth/controller/lib..__nrf__subsys__bluetooth__controller.a(hci_driver.c.obj)
 .bss.hci_buffer.10656
                0x20003f3c      0x102 zephyr/modules/nrf/subsys/bluetooth/controller/lib..__nrf__subsys__bluetooth__controller.a(hci_driver.c.obj)
 *fill*         0x2000403e        0x2 
 .bss.recv_thread_data
                0x20004040       0x6c zephyr/modules/nrf/subsys/bluetooth/controller/lib..__nrf__subsys__bluetooth__controller.a(hci_driver.c.obj)
 .bss.signal_thread_data
                0x200040ac       0x6c zephyr/modules/nrf/subsys/bluetooth/controller/lib..__nrf__subsys__bluetooth__controller.a(hci_driver.c.obj)
 .bss.pmw3360_data
                0x20004118       0x58 zephyr/modules/nrf/drivers/sensor/pmw3360/lib..__nrf__drivers__sensor__pmw3360.a(pmw3360.c.obj)
 .bss.m_cb      0x20004170       0x18 zephyr/modules/nordic/lib..__modules__hal__nordic.a(nrfx_pwm.c.obj)
 .bss.m_qdec_event_handler
                0x20004188        0x4 zephyr/modules/nordic/lib..__modules__hal__nordic.a(nrfx_qdec.c.obj)
 .bss.m_cb      0x2000418c       0x24 zephyr/modules/nordic/lib..__modules__hal__nordic.a(nrfx_spim.c.obj)
 .bss.m_ep_consumer_state
                0x200041b0       0x6c zephyr/modules/nordic/lib..__modules__hal__nordic.a(nrfx_usbd.c.obj)
                0x200041b0                m_ep_consumer_state
 .bss.m_ep_dma_waiting
                0x2000421c        0x4 zephyr/modules/nordic/lib..__modules__hal__nordic.a(nrfx_usbd.c.obj)
 .bss.m_ep_feeder_state
                0x20004220       0x6c zephyr/modules/nordic/lib..__modules__hal__nordic.a(nrfx_usbd.c.obj)
                0x20004220                m_ep_feeder_state
 .bss.m_ep_ready
                0x2000428c        0x4 zephyr/modules/nordic/lib..__modules__hal__nordic.a(nrfx_usbd.c.obj)
 .bss.m_ep_state
                0x20004290      0x120 zephyr/modules/nordic/lib..__modules__hal__nordic.a(nrfx_usbd.c.obj)
 .bss.m_event_handler
                0x200043b0        0x4 zephyr/modules/nordic/lib..__modules__hal__nordic.a(nrfx_usbd.c.obj)
 .bss.m_simulated_dataepstatus
                0x200043b4        0x4 zephyr/modules/nordic/lib..__modules__hal__nordic.a(nrfx_usbd.c.obj)
 .bss.m_tx_buffer
                0x200043b8       0x40 zephyr/modules/nordic/lib..__modules__hal__nordic.a(nrfx_usbd.c.obj)
 .bss.m_cb      0x200043f8        0x8 zephyr/modules/nordic/lib..__modules__hal__nordic.a(nrfx_wdt.c.obj)
 .bss.z_idle_thread
                0x20004400       0x6c zephyr/kernel/libkernel.a(init.c.obj)
                0x20004400                z_idle_thread
 .bss.z_main_thread
                0x2000446c       0x6c zephyr/kernel/libkernel.a(init.c.obj)
                0x2000446c                z_main_thread
 .bss.lock      0x200044d8        0x0 zephyr/kernel/libkernel.a(mem_slab.c.obj)
 .bss._mpool_buf__heap_mem_pool
                0x200044d8      0x200 zephyr/kernel/libkernel.a(mempool.c.obj)
                0x200044d8                _mpool_buf__heap_mem_pool
 .bss._mpool_lvls__heap_mem_pool
                0x200046d8       0x24 zephyr/kernel/libkernel.a(mempool.c.obj)
                0x200046d8                _mpool_lvls__heap_mem_pool
 .bss.lock      0x200046fc        0x0 zephyr/kernel/libkernel.a(mempool.c.obj)
 .bss.lock      0x200046fc        0x0 zephyr/kernel/libkernel.a(mutex.c.obj)
 .bss._kernel   0x200046fc       0x30 zephyr/kernel/libkernel.a(sched.c.obj)
                0x200046fc                _kernel
 .bss.pending_current
                0x2000472c        0x4 zephyr/kernel/libkernel.a(sched.c.obj)
 .bss.slice_max_prio
                0x20004730        0x4 zephyr/kernel/libkernel.a(sched.c.obj)
 .bss.slice_time
                0x20004734        0x4 zephyr/kernel/libkernel.a(sched.c.obj)
 .bss.lock      0x20004738        0x0 zephyr/kernel/libkernel.a(sem.c.obj)
 .bss.k_sys_work_q
                0x20004738       0x7c zephyr/kernel/libkernel.a(system_work_q.c.obj)
                0x20004738                k_sys_work_q
 .bss.lock      0x200047b4        0x0 zephyr/kernel/libkernel.a(thread.c.obj)
 .bss.announce_remaining
                0x200047b4        0x4 zephyr/kernel/libkernel.a(timeout.c.obj)
 .bss.lock      0x200047b8        0x0 zephyr/kernel/libkernel.a(poll.c.obj)
 .bss.nrf_cc310_platform_initialized
                0x200047b8        0x4 C:/ncs.sojkk/nrfxlib/crypto/nrf_cc310_platform/lib/cortex-m4/soft-float/no-interrupts/libnrf_cc310_platform_0.9.1.a(nrf_cc310_platform.c.obj)
 .bss.asym_mutex
                0x200047bc        0x4 C:/ncs.sojkk/nrfxlib/crypto/nrf_cc310_platform/lib/cortex-m4/soft-float/no-interrupts/libnrf_cc310_platform_0.9.1.a(nrf_cc310_platform_mutex.c.obj)
 .bss.power_mutex
                0x200047c0        0x4 C:/ncs.sojkk/nrfxlib/crypto/nrf_cc310_platform/lib/cortex-m4/soft-float/no-interrupts/libnrf_cc310_platform_0.9.1.a(nrf_cc310_platform_mutex.c.obj)
 .bss.rng_mutex
                0x200047c4        0x4 C:/ncs.sojkk/nrfxlib/crypto/nrf_cc310_platform/lib/cortex-m4/soft-float/no-interrupts/libnrf_cc310_platform_0.9.1.a(nrf_cc310_platform_mutex.c.obj)
 .bss.sym_mutex
                0x200047c8        0x4 C:/ncs.sojkk/nrfxlib/crypto/nrf_cc310_platform/lib/cortex-m4/soft-float/no-interrupts/libnrf_cc310_platform_0.9.1.a(nrf_cc310_platform_mutex.c.obj)
 .bss.use_count
                0x200047cc        0x4 C:/ncs.sojkk/nrfxlib/crypto/nrf_cc310_platform/lib/cortex-m4/soft-float/no-interrupts/libnrf_cc310_platform_0.9.1.a(cc_pal_pm.c.obj)
 .bss.adc_buffer
                0x200047d0        0x2 app/libapp.a(battery_meas.c.obj)
 .bss.last_static_handle
                0x200047d2        0x2 zephyr/subsys/bluetooth/host/libsubsys__bluetooth__host.a(gatt.c.obj)
 .bss.initialized.9526
                0x200047d4        0x1 app/libapp.a(board.c.obj)
 .bss.state     0x200047d5        0x1 app/libapp.a(buttons.c.obj)
 .bss.state     0x200047d6        0x1 app/libapp.a(click_detector.c.obj)
 .bss.state     0x200047d7        0x1 app/libapp.a(selector_hw.c.obj)
 .bss.state     0x200047d8        0x1 app/libapp.a(wheel.c.obj)
 .bss.initialized.9466
                0x200047d9        0x1 app/libapp.a(leds.c.obj)
 .bss.adc_async_read_pending
                0x200047da        0x1 app/libapp.a(battery_meas.c.obj)
 .bss.calibrated.10072
                0x200047db        0x1 app/libapp.a(battery_meas.c.obj)
 .bss.sampling  0x200047dc        0x1 app/libapp.a(battery_meas.c.obj)
 .bss.bt_stack_id_lut_valid
                0x200047dd        0x1 app/libapp.a(ble_bond.c.obj)
 .bss.cur_peer_id
                0x200047de        0x1 app/libapp.a(ble_bond.c.obj)
 .bss.cur_peer_id_valid
                0x200047df        0x1 app/libapp.a(ble_bond.c.obj)
 .bss.dongle_peer_selected_on_init
                0x200047e0        0x1 app/libapp.a(ble_bond.c.obj)
 .bss.state     0x200047e1        0x1 app/libapp.a(ble_bond.c.obj)
 .bss.tmp_peer_id
                0x200047e2        0x1 app/libapp.a(ble_bond.c.obj)
 .bss.latency_state
                0x200047e3        0x1 app/libapp.a(ble_latency.c.obj)
 .bss.adv_swift_pair
                0x200047e4        0x1 app/libapp.a(ble_adv.c.obj)
 .bss.cur_identity
                0x200047e5        0x1 app/libapp.a(ble_adv.c.obj)
 .bss.state     0x200047e6        0x1 app/libapp.a(ble_adv.c.obj)
 .bss.before_suspend.10149
                0x200047e7        0x1 app/libapp.a(usb_state.c.obj)
 .bss.state     0x200047e8        0x1 app/libapp.a(usb_state.c.obj)
 .bss.connected
                0x200047e9        0x1 app/libapp.a(led_state.c.obj)
 .bss.cur_peer_id
                0x200047ea        0x1 app/libapp.a(led_state.c.obj)
 .bss.peer_search
                0x200047eb        0x1 app/libapp.a(led_state.c.obj)
 .bss.system_state
                0x200047ec        0x1 app/libapp.a(led_state.c.obj)
 .bss.initialized
                0x200047ed        0x1 app/libapp.a(led_stream.c.obj)
 .bss.power_state
                0x200047ee        0x1 app/libapp.a(power_manager.c.obj)
 .bss.usb_connected
                0x200047ef        0x1 app/libapp.a(power_manager.c.obj)
 .bss.active    0x200047f0        0x1 app/libapp.a(bas.c.obj)
 .bss.report_mode
                0x200047f1        0x1 app/libapp.a(hids.c.obj)
 .bss.secured   0x200047f2        0x1 app/libapp.a(hids.c.obj)
 .bss.settings_subsys_initialized
                0x200047f3        0x1 zephyr/libzephyr.a(settings_init.c.obj)
                0x200047f3                settings_subsys_initialized
 .bss.pm_state  0x200047f4        0x1 zephyr/libzephyr.a(power.c.obj)
 .bss.clock_requested.10638
                0x200047f5        0x1 zephyr/libzephyr.a(usb_dc_nrfx.c.obj)
 .bss.static_regions_num
                0x200047f6        0x1 zephyr/arch/arch/arm/core/cortex_m/mpu/libarch__arm__core__cortex_m__mpu.a(arm_mpu.c.obj)
 .bss.ident.10956
                0x200047f7        0x1 zephyr/subsys/bluetooth/host/libsubsys__bluetooth__host.a(l2cap.c.obj)
 .bss.oobd_present
                0x200047f8        0x1 zephyr/subsys/bluetooth/host/libsubsys__bluetooth__host.a(smp.c.obj)
 .bss.sc_supported
                0x200047f9        0x1 zephyr/subsys/bluetooth/host/libsubsys__bluetooth__host.a(smp.c.obj)
 .bss.gpio_initialized.9533
                0x200047fa        0x1 zephyr/drivers/gpio/libdrivers__gpio.a(gpio_nrfx.c.obj)
 .bss.m_state   0x200047fb        0x1 zephyr/modules/nordic/lib..__modules__hal__nordic.a(nrfx_qdec.c.obj)
 .bss.m_bus_suspend
                0x200047fc        0x1 zephyr/modules/nordic/lib..__modules__hal__nordic.a(nrfx_usbd.c.obj)
 .bss.m_dma_pending
                0x200047fd        0x1 zephyr/modules/nordic/lib..__modules__hal__nordic.a(nrfx_usbd.c.obj)
 .bss.m_drv_state
                0x200047fe        0x1 zephyr/modules/nordic/lib..__modules__hal__nordic.a(nrfx_usbd.c.obj)
 .bss.m_last_setup_dir
                0x200047ff        0x1 zephyr/modules/nordic/lib..__modules__hal__nordic.a(nrfx_usbd.c.obj)
 .bss.sys_pm_idle_exit_notify
                0x20004800        0x1 zephyr/kernel/libkernel.a(idle.c.obj)
                0x20004800                sys_pm_idle_exit_notify
 *(SORT_BY_ALIGNMENT(COMMON))
 *(SORT_BY_ALIGNMENT(.kernel_bss.*))
                0x20004804                __bss_end = ALIGN (0x4)

noinit          0x20004808     0x389a
 *(SORT_BY_ALIGNMENT(.noinit))
 *(SORT_BY_ALIGNMENT(.noinit.*))
 .noinit."../src/hw_interface/motion_sensor.c".0
                0x20004808      0x200 app/libapp.a(motion_sensor.c.obj)
 .noinit."C:/ncs.sojkk/zephyr/drivers/usb/device/usb_dc_nrfx.c".0
                0x20004a08      0x400 zephyr/libzephyr.a(usb_dc_nrfx.c.obj)
 .noinit."C:/ncs.sojkk/zephyr/subsys/bluetooth/host/hci_ecc.c".0
                0x20004e08      0x44c zephyr/subsys/bluetooth/host/libsubsys__bluetooth__host.a(hci_ecc.c.obj)
 *fill*         0x20005254        0x4 
 .noinit."C:/ncs.sojkk/zephyr/subsys/bluetooth/host/hci_core.c".0
                0x20005258      0x800 zephyr/subsys/bluetooth/host/libsubsys__bluetooth__host.a(hci_core.c.obj)
 .noinit."C:/ncs.sojkk/zephyr/subsys/bluetooth/host/hci_core.c".1
                0x20005a58      0x600 zephyr/subsys/bluetooth/host/libsubsys__bluetooth__host.a(hci_core.c.obj)
 .noinit."C:/ncs.sojkk/nrf/subsys/bluetooth/controller/hci_driver.c".0
                0x20006058      0x400 zephyr/modules/nrf/subsys/bluetooth/controller/lib..__nrf__subsys__bluetooth__controller.a(hci_driver.c.obj)
 .noinit."C:/ncs.sojkk/nrf/subsys/bluetooth/controller/hci_driver.c".1
                0x20006458      0x400 zephyr/modules/nrf/subsys/bluetooth/controller/lib..__nrf__subsys__bluetooth__controller.a(hci_driver.c.obj)
 .noinit."C:/ncs.sojkk/zephyr/kernel/init.c".3
                0x20006858      0x300 zephyr/kernel/libkernel.a(init.c.obj)
                0x20006858                z_main_stack
 .noinit."C:/ncs.sojkk/zephyr/kernel/init.c".4
                0x20006b58       0x80 zephyr/kernel/libkernel.a(init.c.obj)
                0x20006b58                z_idle_stack
 .noinit."C:/ncs.sojkk/zephyr/kernel/init.c".5
                0x20006bd8      0x600 zephyr/kernel/libkernel.a(init.c.obj)
                0x20006bd8                _interrupt_stack
 .noinit."C:/ncs.sojkk/zephyr/kernel/system_work_q.c".0
                0x200071d8      0x600 zephyr/kernel/libkernel.a(system_work_q.c.obj)
                0x200071d8                sys_work_q_stack
 .noinit."../src/modules/hids.c".0
                0x200077d8       0x50 app/libapp.a(hids.c.obj)
                0x200077d8                _k_mem_slab_buf_hids_obj_mem_slab
 .noinit."C:/ncs.sojkk/zephyr/subsys/bluetooth/host/hci_core.c".2
                0x20007828       0x38 zephyr/subsys/bluetooth/host/libsubsys__bluetooth__host.a(hci_core.c.obj)
 .noinit."C:/ncs.sojkk/zephyr/subsys/bluetooth/host/hci_core.c".3
                0x20007860       0x98 zephyr/subsys/bluetooth/host/libsubsys__bluetooth__host.a(hci_core.c.obj)
 .noinit."C:/ncs.sojkk/zephyr/subsys/bluetooth/host/hci_core.c".4
                0x200078f8      0x118 zephyr/subsys/bluetooth/host/libsubsys__bluetooth__host.a(hci_core.c.obj)
 .noinit."C:/ncs.sojkk/zephyr/subsys/bluetooth/host/hci_core.c".5
                0x20007a10      0x2f8 zephyr/subsys/bluetooth/host/libsubsys__bluetooth__host.a(hci_core.c.obj)
 .noinit."C:/ncs.sojkk/zephyr/subsys/bluetooth/host/hci_core.c".6
                0x20007d08       0x1c zephyr/subsys/bluetooth/host/libsubsys__bluetooth__host.a(hci_core.c.obj)
 .noinit."C:/ncs.sojkk/zephyr/subsys/bluetooth/host/hci_core.c".7
                0x20007d24       0x4c zephyr/subsys/bluetooth/host/libsubsys__bluetooth__host.a(hci_core.c.obj)
 .noinit."C:/ncs.sojkk/zephyr/subsys/bluetooth/host/hci_core.c".8
                0x20007d70       0x54 zephyr/subsys/bluetooth/host/libsubsys__bluetooth__host.a(hci_core.c.obj)
 .noinit."C:/ncs.sojkk/zephyr/subsys/bluetooth/host/hci_core.c".9
                0x20007dc4       0xe4 zephyr/subsys/bluetooth/host/libsubsys__bluetooth__host.a(hci_core.c.obj)
 .noinit."C:/ncs.sojkk/zephyr/subsys/bluetooth/host/conn.c".0
                0x20007ea8       0x54 zephyr/subsys/bluetooth/host/libsubsys__bluetooth__host.a(conn.c.obj)
 .noinit."C:/ncs.sojkk/zephyr/subsys/bluetooth/host/conn.c".1
                0x20007efc       0xdb zephyr/subsys/bluetooth/host/libsubsys__bluetooth__host.a(conn.c.obj)
 *fill*         0x20007fd7        0x1 
 .noinit."C:/ncs.sojkk/zephyr/subsys/bluetooth/host/conn.c".2
                0x20007fd8       0x38 zephyr/subsys/bluetooth/host/libsubsys__bluetooth__host.a(conn.c.obj)
 .noinit."C:/ncs.sojkk/zephyr/subsys/bluetooth/host/conn.c".3
                0x20008010       0x92 zephyr/subsys/bluetooth/host/libsubsys__bluetooth__host.a(conn.c.obj)
 *(SORT_BY_ALIGNMENT(.kernel_noinit.*))

datas           0x200080a8     0x138f load address 0x0004575e
                0x200080a8                __data_ram_start = .
 *(SORT_BY_ALIGNMENT(.data))
 .data          0x200080a8      0x21b C:/ncs.sojkk/nrfxlib/ble_controller/lib/cortex-m4/soft-float/libble_controller_s140.a(libble_controller_debug_s140_soft_nrf52__obfuscated.elf)
                0x200080bc                sym_EYPIQNUBL6DILXNB2AY44TNK6TBX5KLUV7K2LOA
                0x200080d4                sym_ENZHVDTSR2C7HAVS64KT7WNEA4L2UX6TGKNVFPI
                0x200080dc                sym_PLN5JVPEPZSYRQ3LIYC2TYYVPPUXV4EP2ML5G4Q
                0x200080e0                sym_H6LHLSCIA3NFCUIYVMFDYQGYJFK2NVB7XYLSQQI
                0x2000814c                sym_QCZPGQYRS5DM2XCKCNHXITMCMBYNEI7COSKADNI
                0x20008168                sym_Z5WZCMHZDI7RNMVB5GZYQIRS7P3BTO7552UV62I
                0x200082bd                sym_VQ35Q3R547AGSAUE3MG4FJPAHAQLVUOXVCL6PHY
 *(SORT_BY_ALIGNMENT(.data.*))
 *fill*         0x200082c3        0x5 
 .data.bt_dev   0x200082c8      0x108 zephyr/subsys/bluetooth/host/libsubsys__bluetooth__host.a(hci_core.c.obj)
                0x200082c8                bt_dev
 .data.async_evt
                0x200083d0       0x14 app/libapp.a(battery_meas.c.obj)
 .data.async_sig
                0x200083e4       0x10 app/libapp.a(battery_meas.c.obj)
 .data.conn_callbacks.11168
                0x200083f4       0x1c app/libapp.a(ble_state.c.obj)
 .data.sh.10840
                0x20008410       0x18 app/libapp.a(ble_bond.c.obj)
 .data.conn_callbacks.10077
                0x20008428       0x1c app/libapp.a(ble_latency.c.obj)
 .data.__compound_literal.1
                0x20008444        0x1 app/libapp.a(ble_adv.c.obj)
 *fill*         0x20008445        0x3 
 .data.__compound_literal.3
                0x20008448        0x4 app/libapp.a(ble_adv.c.obj)
 .data.__compound_literal.5
                0x2000844c        0x5 app/libapp.a(ble_adv.c.obj)
 *fill*         0x20008451        0x3 
 .data.sh.9533  0x20008454       0x18 app/libapp.a(config.c.obj)
 .data.state    0x2000846c       0xdc app/libapp.a(hid_state.c.obj)
 .data.__compound_literal.0
                0x20008548        0x4 app/libapp.a(bas.c.obj)
 .data.__compound_literal.1
                0x2000854c        0x4 app/libapp.a(bas.c.obj)
 .data.__compound_literal.2
                0x20008550        0x4 app/libapp.a(bas.c.obj)
 .data.__compound_literal.3
                0x20008554        0x4 app/libapp.a(bas.c.obj)
 .data.__compound_literal.4
                0x20008558        0x8 app/libapp.a(bas.c.obj)
 .data.__compound_literal.5
                0x20008560        0x4 app/libapp.a(bas.c.obj)
 .data.__compound_literal.6
                0x20008564        0x4 app/libapp.a(bas.c.obj)
 .data.__compound_literal.7
                0x20008568       0x4c app/libapp.a(bas.c.obj)
 .data.__compound_literal.0
                0x200085b4        0x4 app/libapp.a(dev_descr.c.obj)
 .data.__compound_literal.1
                0x200085b8        0x4 app/libapp.a(dev_descr.c.obj)
 .data.__compound_literal.2
                0x200085bc        0x8 app/libapp.a(dev_descr.c.obj)
 .data.custom_desc_uuid
                0x200085c4       0x11 app/libapp.a(dev_descr.c.obj)
 *fill*         0x200085d5        0x3 
 .data.device_descr
                0x200085d8        0x1 app/libapp.a(dev_descr.c.obj)
 *fill*         0x200085d9        0x3 
 .data.hids_obj
                0x200085dc      0x154 app/libapp.a(hids.c.obj)
 .data.hids_obj_ctx_lib
                0x20008730       0x10 app/libapp.a(hids.c.obj)
 .data._char_out
                0x20008740        0x4 zephyr/libzephyr.a(printk.c.obj)
                0x20008740                _char_out
 .data.g_rng_function
                0x20008744        0x4 zephyr/libzephyr.a(ecc.c.obj)
 .data.__compound_literal.0
                0x20008748        0x4 zephyr/libzephyr.a(dis.c.obj)
 .data.__compound_literal.1
                0x2000874c        0x4 zephyr/libzephyr.a(dis.c.obj)
 .data.__compound_literal.10
                0x20008750        0x4 zephyr/libzephyr.a(dis.c.obj)
 .data.__compound_literal.11
                0x20008754        0x4 zephyr/libzephyr.a(dis.c.obj)
 .data.__compound_literal.12
                0x20008758        0x8 zephyr/libzephyr.a(dis.c.obj)
 .data.__compound_literal.13
                0x20008760        0x4 zephyr/libzephyr.a(dis.c.obj)
 .data.__compound_literal.2
                0x20008764        0x4 zephyr/libzephyr.a(dis.c.obj)
 .data.__compound_literal.3
                0x20008768        0x4 zephyr/libzephyr.a(dis.c.obj)
 .data.__compound_literal.4
                0x2000876c        0x8 zephyr/libzephyr.a(dis.c.obj)
 .data.__compound_literal.5
                0x20008774        0x4 zephyr/libzephyr.a(dis.c.obj)
 .data.__compound_literal.6
                0x20008778        0x4 zephyr/libzephyr.a(dis.c.obj)
 .data.__compound_literal.7
                0x2000877c        0x4 zephyr/libzephyr.a(dis.c.obj)
 .data.__compound_literal.8
                0x20008780        0x8 zephyr/libzephyr.a(dis.c.obj)
 .data.__compound_literal.9
                0x20008788        0x4 zephyr/libzephyr.a(dis.c.obj)
 .data.dis_pnp_id
                0x2000878c        0x7 zephyr/libzephyr.a(dis.c.obj)
 *fill*         0x20008793        0x1 
 .data.__pm_sys_init_usb_device_init0
                0x20008794       0x58 zephyr/libzephyr.a(usb_device.c.obj)
 .data.flash_map
                0x200087ec        0x4 zephyr/libzephyr.a(flash_map_default.c.obj)
                0x200087ec                flash_map
 .data.config_init_settings_fcb
                0x200087f0       0x44 zephyr/libzephyr.a(settings_init.c.obj)
 .data.__pm_sys_init_sys_pm_init0
                0x20008834       0x58 zephyr/libzephyr.a(power.c.obj)
 .data.post_ops_done
                0x2000888c        0x4 zephyr/libzephyr.a(power.c.obj)
 .data.__pm_wdt_0
                0x20008890       0x58 zephyr/libzephyr.a(wdt_nrfx.c.obj)
 .data.__pm_sys_init_z_clock_driver_init0
                0x200088e8       0x58 zephyr/libzephyr.a(sys_clock_init.c.obj)
 .data.__compound_literal.0
                0x20008940        0x4 zephyr/libzephyr.a(gatt_pool.c.obj)
 .data.__compound_literal.1
                0x20008944        0x4 zephyr/libzephyr.a(gatt_pool.c.obj)
 .data.__compound_literal.2
                0x20008948        0x4 zephyr/libzephyr.a(gatt_pool.c.obj)
 .data.uuid_16_pool
                0x2000894c        0x8 zephyr/libzephyr.a(gatt_pool.c.obj)
 .data.event_processor
                0x20008954        0xc zephyr/libzephyr.a(event_manager.c.obj)
 .data.asym_mutex
                0x20008960        0x8 zephyr/libzephyr.a(nrf_cc310_platform_mutex_zephyr.c.obj)
                0x20008960                asym_mutex
 .data.power_mutex
                0x20008968        0x8 zephyr/libzephyr.a(nrf_cc310_platform_mutex_zephyr.c.obj)
                0x20008968                power_mutex
 .data.rng_mutex
                0x20008970        0x8 zephyr/libzephyr.a(nrf_cc310_platform_mutex_zephyr.c.obj)
                0x20008970                rng_mutex
 .data.sym_mutex
                0x20008978        0x8 zephyr/libzephyr.a(nrf_cc310_platform_mutex_zephyr.c.obj)
                0x20008978                sym_mutex
 .data.__pm_sys_init_arm_mpu_init0
                0x20008980       0x58 zephyr/arch/arch/arm/core/cortex_m/mpu/libarch__arm__core__cortex_m__mpu.a(arm_mpu.c.obj)
 .data.__pm_sys_init_nordicsemi_nrf52_init0
                0x200089d8       0x58 zephyr/soc/arm/nordic_nrf/nrf52/libsoc__arm__nordic_nrf__nrf52.a(soc.c.obj)
 .data.save_id_work
                0x20008a30        0xc zephyr/subsys/bluetooth/host/libsubsys__bluetooth__host.a(settings.c.obj)
                0x20008a30                save_id_work
 .data.events.12150
                0x20008a3c       0x50 zephyr/subsys/bluetooth/host/libsubsys__bluetooth__host.a(hci_core.c.obj)
 .data.conn_change
                0x20008a8c       0x10 zephyr/subsys/bluetooth/host/libsubsys__bluetooth__host.a(conn.c.obj)
 .data.ops.11206
                0x20008a9c       0x1c zephyr/subsys/bluetooth/host/libsubsys__bluetooth__host.a(l2cap.c.obj)
 .data.ops.12189
                0x20008ab8       0x1c zephyr/subsys/bluetooth/host/libsubsys__bluetooth__host.a(att.c.obj)
 .data.__compound_literal.0
                0x20008ad4        0x4 zephyr/subsys/bluetooth/host/libsubsys__bluetooth__host.a(gatt.c.obj)
 .data.__compound_literal.1
                0x20008ad8        0x4 zephyr/subsys/bluetooth/host/libsubsys__bluetooth__host.a(gatt.c.obj)
 .data.__compound_literal.10
                0x20008adc        0x4 zephyr/subsys/bluetooth/host/libsubsys__bluetooth__host.a(gatt.c.obj)
 .data.__compound_literal.11
                0x20008ae0        0x4 zephyr/subsys/bluetooth/host/libsubsys__bluetooth__host.a(gatt.c.obj)
 .data.__compound_literal.12
                0x20008ae4        0x8 zephyr/subsys/bluetooth/host/libsubsys__bluetooth__host.a(gatt.c.obj)
 .data.__compound_literal.13
                0x20008aec        0x4 zephyr/subsys/bluetooth/host/libsubsys__bluetooth__host.a(gatt.c.obj)
 .data.__compound_literal.14
                0x20008af0        0x4 zephyr/subsys/bluetooth/host/libsubsys__bluetooth__host.a(gatt.c.obj)
 .data.__compound_literal.15
                0x20008af4        0x4 zephyr/subsys/bluetooth/host/libsubsys__bluetooth__host.a(gatt.c.obj)
 .data.__compound_literal.16
                0x20008af8        0x4 zephyr/subsys/bluetooth/host/libsubsys__bluetooth__host.a(gatt.c.obj)
 .data.__compound_literal.17
                0x20008afc        0x4 zephyr/subsys/bluetooth/host/libsubsys__bluetooth__host.a(gatt.c.obj)
 .data.__compound_literal.18
                0x20008b00        0x8 zephyr/subsys/bluetooth/host/libsubsys__bluetooth__host.a(gatt.c.obj)
 .data.__compound_literal.19
                0x20008b08        0x4 zephyr/subsys/bluetooth/host/libsubsys__bluetooth__host.a(gatt.c.obj)
 .data.__compound_literal.2
                0x20008b0c        0x4 zephyr/subsys/bluetooth/host/libsubsys__bluetooth__host.a(gatt.c.obj)
 .data.__compound_literal.20
                0x20008b10        0x4 zephyr/subsys/bluetooth/host/libsubsys__bluetooth__host.a(gatt.c.obj)
 .data.__compound_literal.21
                0x20008b14        0x4 zephyr/subsys/bluetooth/host/libsubsys__bluetooth__host.a(gatt.c.obj)
 .data.__compound_literal.22
                0x20008b18        0x4 zephyr/subsys/bluetooth/host/libsubsys__bluetooth__host.a(gatt.c.obj)
 .data.__compound_literal.23
                0x20008b1c        0x8 zephyr/subsys/bluetooth/host/libsubsys__bluetooth__host.a(gatt.c.obj)
 .data.__compound_literal.24
                0x20008b24        0x4 zephyr/subsys/bluetooth/host/libsubsys__bluetooth__host.a(gatt.c.obj)
 .data.__compound_literal.25
                0x20008b28        0x4 zephyr/subsys/bluetooth/host/libsubsys__bluetooth__host.a(gatt.c.obj)
 .data.__compound_literal.26
                0x20008b2c        0x4 zephyr/subsys/bluetooth/host/libsubsys__bluetooth__host.a(gatt.c.obj)
 .data.__compound_literal.27
                0x20008b30        0x8 zephyr/subsys/bluetooth/host/libsubsys__bluetooth__host.a(gatt.c.obj)
 .data.__compound_literal.28
                0x20008b38        0x4 zephyr/subsys/bluetooth/host/libsubsys__bluetooth__host.a(gatt.c.obj)
 .data.__compound_literal.3
                0x20008b3c        0x4 zephyr/subsys/bluetooth/host/libsubsys__bluetooth__host.a(gatt.c.obj)
 .data.__compound_literal.4
                0x20008b40        0x8 zephyr/subsys/bluetooth/host/libsubsys__bluetooth__host.a(gatt.c.obj)
 .data.__compound_literal.5
                0x20008b48        0x4 zephyr/subsys/bluetooth/host/libsubsys__bluetooth__host.a(gatt.c.obj)
 .data.__compound_literal.6
                0x20008b4c        0x4 zephyr/subsys/bluetooth/host/libsubsys__bluetooth__host.a(gatt.c.obj)
 .data.__compound_literal.7
                0x20008b50        0x4 zephyr/subsys/bluetooth/host/libsubsys__bluetooth__host.a(gatt.c.obj)
 .data.__compound_literal.8
                0x20008b54        0x8 zephyr/subsys/bluetooth/host/libsubsys__bluetooth__host.a(gatt.c.obj)
 .data.__compound_literal.9
                0x20008b5c        0x4 zephyr/subsys/bluetooth/host/libsubsys__bluetooth__host.a(gatt.c.obj)
 .data.sc_ccc   0x20008b60       0x4c zephyr/subsys/bluetooth/host/libsubsys__bluetooth__host.a(gatt.c.obj)
 .data.ops.12045
                0x20008bac       0x1c zephyr/subsys/bluetooth/host/libsubsys__bluetooth__host.a(smp.c.obj)
 .data.pub_key_cb.12063
                0x20008bc8        0x8 zephyr/subsys/bluetooth/host/libsubsys__bluetooth__host.a(smp.c.obj)
 .data.__pm_usb_hid_device_0
                0x20008bd0       0x58 zephyr/subsys/usb/class/hid/libsubsys__usb__class__hid.a(core.c.obj)
 .data.hid_ep_data_0
                0x20008c28        0x8 zephyr/subsys/usb/class/hid/libsubsys__usb__class__hid.a(core.c.obj)
 .data.__pm_adc_0
                0x20008c30       0x58 zephyr/drivers/adc/libdrivers__adc.a(adc_nrfx_saadc.c.obj)
 .data.m_data   0x20008c88       0x98 zephyr/drivers/adc/libdrivers__adc.a(adc_nrfx_saadc.c.obj)
 .data.__pm_gpio_nrfx_p0
                0x20008d20       0x58 zephyr/drivers/gpio/libdrivers__gpio.a(gpio_nrfx.c.obj)
 .data.__pm_gpio_nrfx_p1
                0x20008d78       0x58 zephyr/drivers/gpio/libdrivers__gpio.a(gpio_nrfx.c.obj)
 .data.__pm_pwm_nrfx_0
                0x20008dd0       0x58 zephyr/drivers/pwm/libdrivers__pwm.a(pwm_nrfx.c.obj)
 .data.__pm_pwm_nrfx_1
                0x20008e28       0x58 zephyr/drivers/pwm/libdrivers__pwm.a(pwm_nrfx.c.obj)
 .data.current_state.9816
                0x20008e80        0x4 zephyr/drivers/pwm/libdrivers__pwm.a(pwm_nrfx.c.obj)
 .data.current_state.9830
                0x20008e84        0x4 zephyr/drivers/pwm/libdrivers__pwm.a(pwm_nrfx.c.obj)
 .data.pwm_nrfx_0_data
                0x20008e88       0x10 zephyr/drivers/pwm/libdrivers__pwm.a(pwm_nrfx.c.obj)
 .data.pwm_nrfx_1_data
                0x20008e98       0x10 zephyr/drivers/pwm/libdrivers__pwm.a(pwm_nrfx.c.obj)
 .data.__pm_qdec_nrfx
                0x20008ea8       0x58 zephyr/drivers/sensor/qdec_nrfx/libdrivers__sensor__qdec_nrfx.a(qdec_nrfx.c.obj)
 .data.__pm_temp_nrf5
                0x20008f00       0x58 zephyr/drivers/sensor/nrf5/libdrivers__sensor__nrf5.a(temp_nrf5.c.obj)
 .data.__pm_spi_1
                0x20008f58       0x58 zephyr/drivers/spi/libdrivers__spi.a(spi_nrfx_spim.c.obj)
 .data.spi_1_data
                0x20008fb0       0x6c zephyr/drivers/spi/libdrivers__spi.a(spi_nrfx_spim.c.obj)
 .data.__pm_nrf_btctrl_flash
                0x2000901c       0x58 zephyr/drivers/flash/libdrivers__flash.a(flash_ll_nrfxlib.c.obj)
 .data.__pm_rng_driver
                0x20009074       0x58 zephyr/drivers/entropy/libdrivers__entropy.a(entropy_ll_nrfxlib.c.obj)
 .data.__pm_sys_init_ble_init3
                0x200090cc       0x58 zephyr/modules/nrf/subsys/bluetooth/controller/lib..__nrf__subsys__bluetooth__controller.a(hci_driver.c.obj)
 .data.__pm_sys_init_hci_driver_init2
                0x20009124       0x58 zephyr/modules/nrf/subsys/bluetooth/controller/lib..__nrf__subsys__bluetooth__controller.a(hci_driver.c.obj)
 .data.__pm_pmw3360
                0x2000917c       0x58 zephyr/modules/nrf/drivers/sensor/pmw3360/lib..__nrf__drivers__sensor__pmw3360.a(pmw3360.c.obj)
 .data.__pm_hf_clock
                0x200091d4       0x58 zephyr/modules/nrf/drivers/clock_control/lib..__nrf__drivers__clock_control.a(clock_control_nrfxlib.c.obj)
 .data.__pm_lf_clock
                0x2000922c       0x58 zephyr/modules/nrf/drivers/clock_control/lib..__nrf__drivers__clock_control.a(clock_control_nrfxlib.c.obj)
 .data.__pm_hw_cc310
                0x20009284       0x58 zephyr/modules/nrf/drivers/hw_cc310/lib..__nrf__drivers__hw_cc310.a(hw_cc310.c.obj)
 .data.SystemCoreClock
                0x200092dc        0x4 zephyr/modules/nordic/lib..__modules__hal__nordic.a(system_nrf52840.c.obj)
                0x200092dc                SystemCoreClock
 .data.__pm_sys_init_init_mem_slab_module3
                0x200092e0       0x58 zephyr/kernel/libkernel.a(mem_slab.c.obj)
 .data.__pm_sys_init_init_static_pools3
                0x20009338       0x58 zephyr/kernel/libkernel.a(mempool.c.obj)
 .data.__pm_sys_init_k_sys_work_q_init1
                0x20009390       0x58 zephyr/kernel/libkernel.a(system_work_q.c.obj)
 .data.timeout_list
                0x200093e8        0x8 zephyr/kernel/libkernel.a(timeout.c.obj)
 .data.platform_abort_apis
                0x200093f0        0x8 C:/ncs.sojkk/nrfxlib/crypto/nrf_cc310_platform/lib/cortex-m4/soft-float/no-interrupts/libnrf_cc310_platform_0.9.1.a(nrf_cc310_platform_abort.c.obj)
                0x200093f0                platform_abort_apis
 .data.platform_mutex_apis
                0x200093f8       0x10 C:/ncs.sojkk/nrfxlib/crypto/nrf_cc310_platform/lib/cortex-m4/soft-float/no-interrupts/libnrf_cc310_platform_0.9.1.a(nrf_cc310_platform_mutex.c.obj)
                0x200093f8                platform_mutex_apis
 .data.platform_mutexes
                0x20009408       0x14 C:/ncs.sojkk/nrfxlib/crypto/nrf_cc310_platform/lib/cortex-m4/soft-float/no-interrupts/libnrf_cc310_platform_0.9.1.a(nrf_cc310_platform_mutex.c.obj)
                0x20009408                platform_mutexes
 .data.CCAsymCryptoMutex
                0x2000941c        0x4 C:/ncs.sojkk/nrfxlib/crypto/nrf_cc310_platform/lib/cortex-m4/soft-float/no-interrupts/libnrf_cc310_platform_0.9.1.a(cc_pal.c.obj)
                0x2000941c                CCAsymCryptoMutex
 .data.CCPowerMutex
                0x20009420        0x4 C:/ncs.sojkk/nrfxlib/crypto/nrf_cc310_platform/lib/cortex-m4/soft-float/no-interrupts/libnrf_cc310_platform_0.9.1.a(cc_pal.c.obj)
                0x20009420                CCPowerMutex
 .data.CCRndCryptoMutex
                0x20009424        0x4 C:/ncs.sojkk/nrfxlib/crypto/nrf_cc310_platform/lib/cortex-m4/soft-float/no-interrupts/libnrf_cc310_platform_0.9.1.a(cc_pal.c.obj)
                0x20009424                CCRndCryptoMutex
 .data.CCSymCryptoMutex
                0x20009428        0x4 C:/ncs.sojkk/nrfxlib/crypto/nrf_cc310_platform/lib/cortex-m4/soft-float/no-interrupts/libnrf_cc310_platform_0.9.1.a(cc_pal.c.obj)
                0x20009428                CCSymCryptoMutex
 .data.pCCRndCryptoMutex
                0x2000942c        0x4 C:/ncs.sojkk/nrfxlib/crypto/nrf_cc310_platform/lib/cortex-m4/soft-float/no-interrupts/libnrf_cc310_platform_0.9.1.a(cc_pal.c.obj)
                0x2000942c                pCCRndCryptoMutex
 .data.battery_state
                0x20009430        0x1 app/libapp.a(battery_charger.c.obj)
 .data.hid_protocol
                0x20009431        0x1 app/libapp.a(usb_state.c.obj)
 .data.sent_report_type
                0x20009432        0x1 app/libapp.a(usb_state.c.obj)
 .data.peer_op  0x20009433        0x1 app/libapp.a(led_state.c.obj)
 .data.battery  0x20009434        0x1 app/libapp.a(bas.c.obj)
 .data.forced_pm_state
                0x20009435        0x1 zephyr/libzephyr.a(power.c.obj)
 .data.bondable
                0x20009436        0x1 zephyr/subsys/bluetooth/host/libsubsys__bluetooth__host.a(smp.c.obj)
 *(SORT_BY_ALIGNMENT(.kernel.*))
                0x0004575e                __data_rom_start = LOADADDR (datas)

initlevel       0x20009438      0x13c load address 0x00046aee
                0x20009438                __device_init_start = .
                0x20009438                __device_PRE_KERNEL_1_start = .
 *(SORT_BY_NAME(SORT_BY_ALIGNMENT(.init_PRE_KERNEL_1[0-9])))
 .init_PRE_KERNEL_10
                0x20009438        0xc zephyr/soc/arm/nordic_nrf/nrf52/libsoc__arm__nordic_nrf__nrf52.a(soc.c.obj)
 *(SORT_BY_NAME(SORT_BY_ALIGNMENT(.init_PRE_KERNEL_1[1-9][0-9])))
 .init_PRE_KERNEL_130
                0x20009444        0xc zephyr/kernel/libkernel.a(mem_slab.c.obj)
 .init_PRE_KERNEL_130
                0x20009450        0xc zephyr/kernel/libkernel.a(mempool.c.obj)
 .init_PRE_KERNEL_140
                0x2000945c        0xc zephyr/arch/arch/arm/core/cortex_m/mpu/libarch__arm__core__cortex_m__mpu.a(arm_mpu.c.obj)
 .init_PRE_KERNEL_140
                0x20009468        0xc zephyr/modules/nrf/subsys/bluetooth/controller/lib..__nrf__subsys__bluetooth__controller.a(hci_driver.c.obj)
 .init_PRE_KERNEL_150
                0x20009474        0xc zephyr/libzephyr.a(wdt_nrfx.c.obj)
 .init_PRE_KERNEL_150
                0x20009480        0xc zephyr/drivers/entropy/libdrivers__entropy.a(entropy_ll_nrfxlib.c.obj)
 .init_PRE_KERNEL_150
                0x2000948c       0x18 zephyr/modules/nrf/drivers/clock_control/lib..__nrf__drivers__clock_control.a(clock_control_nrfxlib.c.obj)
                0x200094a4                __device_PRE_KERNEL_2_start = .
 *(SORT_BY_NAME(SORT_BY_ALIGNMENT(.init_PRE_KERNEL_2[0-9])))
 .init_PRE_KERNEL_20
                0x200094a4        0xc zephyr/libzephyr.a(sys_clock_init.c.obj)
 *(SORT_BY_NAME(SORT_BY_ALIGNMENT(.init_PRE_KERNEL_2[1-9][0-9])))
                0x200094b0                __device_POST_KERNEL_start = .
 *(SORT_BY_NAME(SORT_BY_ALIGNMENT(.init_POST_KERNEL[0-9])))
 *(SORT_BY_NAME(SORT_BY_ALIGNMENT(.init_POST_KERNEL[1-9][0-9])))
 .init_POST_KERNEL40
                0x200094b0        0xc zephyr/subsys/usb/class/hid/libsubsys__usb__class__hid.a(core.c.obj)
 .init_POST_KERNEL40
                0x200094bc       0x18 zephyr/drivers/gpio/libdrivers__gpio.a(gpio_nrfx.c.obj)
 .init_POST_KERNEL40
                0x200094d4        0xc zephyr/modules/nrf/drivers/hw_cc310/lib..__nrf__drivers__hw_cc310.a(hw_cc310.c.obj)
 .init_POST_KERNEL40
                0x200094e0        0xc zephyr/kernel/libkernel.a(system_work_q.c.obj)
 .init_POST_KERNEL50
                0x200094ec        0xc zephyr/drivers/adc/libdrivers__adc.a(adc_nrfx_saadc.c.obj)
 .init_POST_KERNEL50
                0x200094f8       0x18 zephyr/drivers/pwm/libdrivers__pwm.a(pwm_nrfx.c.obj)
 .init_POST_KERNEL50
                0x20009510        0xc zephyr/drivers/flash/libdrivers__flash.a(flash_ll_nrfxlib.c.obj)
 .init_POST_KERNEL50
                0x2000951c        0xc zephyr/modules/nrf/subsys/bluetooth/controller/lib..__nrf__subsys__bluetooth__controller.a(hci_driver.c.obj)
 .init_POST_KERNEL70
                0x20009528        0xc zephyr/drivers/spi/libdrivers__spi.a(spi_nrfx_spim.c.obj)
 .init_POST_KERNEL90
                0x20009534        0xc zephyr/drivers/sensor/qdec_nrfx/libdrivers__sensor__qdec_nrfx.a(qdec_nrfx.c.obj)
 .init_POST_KERNEL90
                0x20009540        0xc zephyr/drivers/sensor/nrf5/libdrivers__sensor__nrf5.a(temp_nrf5.c.obj)
 .init_POST_KERNEL90
                0x2000954c        0xc zephyr/modules/nrf/drivers/sensor/pmw3360/lib..__nrf__drivers__sensor__pmw3360.a(pmw3360.c.obj)
                0x20009558                __device_APPLICATION_start = .
 *(SORT_BY_NAME(SORT_BY_ALIGNMENT(.init_APPLICATION[0-9])))
 *(SORT_BY_NAME(SORT_BY_ALIGNMENT(.init_APPLICATION[1-9][0-9])))
 .init_APPLICATION40
                0x20009558        0xc zephyr/libzephyr.a(power.c.obj)
 .init_APPLICATION90
                0x20009564        0xc zephyr/libzephyr.a(usb_device.c.obj)
                0x20009570                __device_init_end = .
 FILL mask 0x00
                0x20009570                __device_busy_start = .
                0x20009574                . = (. + (((((__device_init_end - __device_init_start) / 0xc) + 0x1f) / 0x20) * 0x4))
 *fill*         0x20009570        0x4 00
                0x20009574                __device_busy_end = .

initlevel_error
                0x20009437        0x0
 *(SORT_BY_NAME(SORT_BY_ALIGNMENT(.init_[_A-Z0-9]*)))
                0x00000001                ASSERT ((SIZEOF (initlevel_error) == 0x0), Undefined initialization levels used.)

initshell       0x20009574        0x0 load address 0x00046c2a
                0x20009574                __shell_module_start = .
 *(SORT_BY_ALIGNMENT(.shell_module_*))
                0x20009574                __shell_module_end = .
                0x20009574                __shell_cmd_start = .
 *(SORT_BY_ALIGNMENT(.shell_cmd_*))
                0x20009574                __shell_cmd_end = .

log_dynamic_sections
                0x20009574        0x0 load address 0x00046c2a
                0x20009574                __log_dynamic_start = .
 *(SORT_BY_NAME(SORT_BY_ALIGNMENT(.log_dynamic_*)))
                0x20009574                __log_dynamic_end = .

_static_thread_area
                0x20009574        0x0 load address 0x00046c2a
                0x20009574                __static_thread_data_list_start = .
 *(SORT_BY_NAME(SORT_BY_ALIGNMENT(.__static_thread_data.static.*)))
                0x20009574                __static_thread_data_list_end = .

_k_timer_area   0x20009574        0x0 load address 0x00046c2a
                0x20009574                _k_timer_list_start = .
 *(SORT_BY_ALIGNMENT(._k_timer.static.*))
                0x20009574                _k_timer_list_end = .

_k_mem_slab_area
                0x20009574       0x1c load address 0x00046c2a
                0x20009574                _k_mem_slab_list_start = .
 *(SORT_BY_ALIGNMENT(._k_mem_slab.static.*))
 ._k_mem_slab.static.hids_obj_mem_slab
                0x20009574       0x1c app/libapp.a(hids.c.obj)
                0x20009574                hids_obj_mem_slab
                0x20009590                _k_mem_slab_list_end = .

_k_mem_pool_area
                0x20009590       0x54 load address 0x00046c46
                0x20009590                _k_mem_pool_list_start = .
 *(SORT_BY_ALIGNMENT(._k_mem_pool.static.*))
 ._k_mem_pool.static.ep_buf_pool
                0x20009590       0x1c zephyr/libzephyr.a(usb_dc_nrfx.c.obj)
                0x20009590                ep_buf_pool
 ._k_mem_pool.static.fifo_elem_pool
                0x200095ac       0x1c zephyr/libzephyr.a(usb_dc_nrfx.c.obj)
                0x200095ac                fifo_elem_pool
 ._k_mem_pool.static._heap_mem_pool
                0x200095c8       0x1c zephyr/kernel/libkernel.a(mempool.c.obj)
                0x200095c8                _heap_mem_pool
                0x200095e4                _k_mem_pool_list_end = .

_k_sem_area     0x200095e4       0x90 load address 0x00046c9a
                0x200095e4                _k_sem_list_start = .
 *(SORT_BY_ALIGNMENT(._k_sem.static.*))
 ._k_sem.static.sem
                0x200095e4       0x18 app/libapp.a(motion_sensor.c.obj)
 ._k_sem.static.cmd_sem
                0x200095fc       0x18 zephyr/subsys/bluetooth/host/libsubsys__bluetooth__host.a(hci_ecc.c.obj)
 ._k_sem.static.sc_local_pkey_ready
                0x20009614       0x18 zephyr/subsys/bluetooth/host/libsubsys__bluetooth__host.a(smp.c.obj)
 ._k_sem.static.ble_controller_lock
                0x2000962c       0x18 zephyr/modules/nrf/lib/multithreading_lock/lib..__nrf__lib__multithreading_lock.a(multithreading_lock.c.obj)
 ._k_sem.static.sem_recv
                0x20009644       0x18 zephyr/modules/nrf/subsys/bluetooth/controller/lib..__nrf__subsys__bluetooth__controller.a(hci_driver.c.obj)
 ._k_sem.static.sem_signal
                0x2000965c       0x18 zephyr/modules/nrf/subsys/bluetooth/controller/lib..__nrf__subsys__bluetooth__controller.a(hci_driver.c.obj)
 *(SORT_BY_ALIGNMENT(._sys_sem.static.*))
                0x20009674                _k_sem_list_end = .

_k_mutex_area   0x20009674       0x8c load address 0x00046d2a
                0x20009674                _k_mutex_list_start = .
 *(SORT_BY_ALIGNMENT(._k_mutex.static.*))
 ._k_mutex.static.hids_obj_mutex
                0x20009674       0x14 app/libapp.a(hids.c.obj)
                0x20009674                hids_obj_mutex
 ._k_mutex.static.fdtable_lock
                0x20009688       0x14 zephyr/libzephyr.a(fdtable.c.obj)
 ._k_mutex.static.settings_lock
                0x2000969c       0x14 zephyr/libzephyr.a(settings.c.obj)
                0x2000969c                settings_lock
 ._k_mutex.static.asym_mutex_int
                0x200096b0       0x14 zephyr/libzephyr.a(nrf_cc310_platform_mutex_zephyr.c.obj)
                0x200096b0                asym_mutex_int
 ._k_mutex.static.power_mutex_int
                0x200096c4       0x14 zephyr/libzephyr.a(nrf_cc310_platform_mutex_zephyr.c.obj)
                0x200096c4                power_mutex_int
 ._k_mutex.static.rng_mutex_int
                0x200096d8       0x14 zephyr/libzephyr.a(nrf_cc310_platform_mutex_zephyr.c.obj)
                0x200096d8                rng_mutex_int
 ._k_mutex.static.sym_mutex_int
                0x200096ec       0x14 zephyr/libzephyr.a(nrf_cc310_platform_mutex_zephyr.c.obj)
                0x200096ec                sym_mutex_int
                0x20009700                _k_mutex_list_end = .

_k_queue_area   0x20009700       0x20 load address 0x00046db6
                0x20009700                _k_queue_list_start = .
 *(SORT_BY_ALIGNMENT(._k_queue.static.*))
 *(SORT_BY_ALIGNMENT(._k_fifo.static.*))
 ._k_fifo.static.usbd_evt_fifo
                0x20009700       0x10 zephyr/libzephyr.a(usb_dc_nrfx.c.obj)
                0x20009700                usbd_evt_fifo
 ._k_fifo.static.free_tx
                0x20009710       0x10 zephyr/subsys/bluetooth/host/libsubsys__bluetooth__host.a(conn.c.obj)
                0x20009710                free_tx
 *(SORT_BY_ALIGNMENT(._k_lifo.static.*))
                0x20009720                _k_queue_list_end = .

_k_stack_area   0x20009720        0x0 load address 0x00046dd6
                0x20009720                _k_stack_list_start = .
 *(SORT_BY_ALIGNMENT(._k_stack.static.*))
                0x20009720                _k_stack_list_end = .

_k_msgq_area    0x20009720        0x0 load address 0x00046dd6
                0x20009720                _k_msgq_list_start = .
 *(SORT_BY_ALIGNMENT(._k_msgq.static.*))
                0x20009720                _k_msgq_list_end = .

_k_mbox_area    0x20009720        0x0 load address 0x00046dd6
                0x20009720                _k_mbox_list_start = .
 *(SORT_BY_ALIGNMENT(._k_mbox.static.*))
                0x20009720                _k_mbox_list_end = .

_k_pipe_area    0x20009720        0x0 load address 0x00046dd6
                0x20009720                _k_pipe_list_start = .
 *(SORT_BY_ALIGNMENT(._k_pipe.static.*))
                0x20009720                _k_pipe_list_end = .

_net_buf_pool_area
                0x20009720       0xc0 load address 0x00046dd6
                0x20009720                _net_buf_pool_list = .
 *(SORT_BY_NAME(SORT_BY_ALIGNMENT(._net_buf_pool.static.*)))
 ._net_buf_pool.static.acl_tx_pool
                0x20009720       0x20 zephyr/subsys/bluetooth/host/libsubsys__bluetooth__host.a(conn.c.obj)
                0x20009720                acl_tx_pool
 ._net_buf_pool.static.discardable_pool
                0x20009740       0x20 zephyr/subsys/bluetooth/host/libsubsys__bluetooth__host.a(hci_core.c.obj)
                0x20009740                discardable_pool
 ._net_buf_pool.static.frag_pool
                0x20009760       0x20 zephyr/subsys/bluetooth/host/libsubsys__bluetooth__host.a(conn.c.obj)
                0x20009760                frag_pool
 ._net_buf_pool.static.hci_cmd_pool
                0x20009780       0x20 zephyr/subsys/bluetooth/host/libsubsys__bluetooth__host.a(hci_core.c.obj)
                0x20009780                hci_cmd_pool
 ._net_buf_pool.static.hci_rx_pool
                0x200097a0       0x20 zephyr/subsys/bluetooth/host/libsubsys__bluetooth__host.a(hci_core.c.obj)
                0x200097a0                hci_rx_pool
 ._net_buf_pool.static.num_complete_pool
                0x200097c0       0x20 zephyr/subsys/bluetooth/host/libsubsys__bluetooth__host.a(hci_core.c.obj)
                0x200097c0                num_complete_pool

net_if          0x200097e0        0x0 load address 0x00046e96
                0x200097e0                __net_if_start = .
 *(SORT_BY_ALIGNMENT(.net_if.*))
 *(SORT_BY_NAME(SORT_BY_ALIGNMENT(.net_if.*)))
                0x200097e0                __net_if_end = .

net_if_dev      0x200097e0        0x0 load address 0x00046e96
                0x200097e0                __net_if_dev_start = .
 *(SORT_BY_ALIGNMENT(.net_if_dev.*))
 *(SORT_BY_NAME(SORT_BY_ALIGNMENT(.net_if_dev.*)))
                0x200097e0                __net_if_dev_end = .

net_l2_data     0x200097e0        0x0 load address 0x00046e96
                0x200097e0                __net_l2_data_start = .
 *(SORT_BY_ALIGNMENT(.net_l2.data))
 *(SORT_BY_NAME(SORT_BY_ALIGNMENT(.net_l2.data*)))
                0x200097e0                __net_l2_data_end = .

usb_descriptor  0x200097e0       0x9e load address 0x00046e96
                0x200097e0                __usb_descriptor_start = .
 *(SORT_BY_ALIGNMENT(.usb.descriptor))
 *(SORT_BY_NAME(SORT_BY_ALIGNMENT(.usb.descriptor*)))
 .usb.descriptor_primary.0
                0x200097e0       0x1b zephyr/libzephyr.a(usb_descriptor.c.obj)
 .usb.descriptor_primary.1.0
                0x200097fb       0x19 zephyr/subsys/usb/class/hid/libsubsys__usb__class__hid.a(core.c.obj)
 .usb.descriptor_primary.4
                0x20009814       0x68 zephyr/libzephyr.a(usb_descriptor.c.obj)
 .usb.descriptor_primary.5
                0x2000987c        0x2 zephyr/libzephyr.a(usb_descriptor.c.obj)
                0x2000987e                __usb_descriptor_end = .

usb_data        0x20009880       0x24 load address 0x00046f36
                0x20009880                __usb_data_start = .
 *(SORT_BY_ALIGNMENT(.usb.data))
 *(SORT_BY_NAME(SORT_BY_ALIGNMENT(.usb.data*)))
 .usb.data_primary.hid
                0x20009880       0x24 zephyr/subsys/usb/class/hid/libsubsys__usb__class__hid.a(core.c.obj)
                0x200098a4                __usb_data_end = .

priv_stacks_noinit
                0x200098a4        0x0 load address 0x00046f5a
                0x200098a4                z_priv_stacks_ram_start = .
 *(SORT_BY_ALIGNMENT(.priv_stacks.noinit))
                0x200098a4                z_priv_stacks_ram_end = .
                0x200098a4                __data_ram_end = .
                0x200098a4                _image_ram_end = .
                0x200098a4                _end = .
                0x20040000                __kernel_ram_end = 0x20040000
                0x00040000                __kernel_ram_size = (__kernel_ram_end - __kernel_ram_start)

.intList        0x20040000       0xe8
 *(SORT_BY_ALIGNMENT(.irq_info))
 .irq_info      0x20040000        0x8 zephyr/arch/common/libarch__common.a(isr_tables.c.obj)
                0x20040000                _iheader
 *(SORT_BY_ALIGNMENT(.intList))
 .intList       0x20040008       0x10 zephyr/libzephyr.a(usb_dc_nrfx.c.obj)
 .intList       0x20040018       0x10 zephyr/libzephyr.a(wdt_nrfx.c.obj)
 .intList       0x20040028       0x10 zephyr/libzephyr.a(nrf_rtc_timer.c.obj)
 .intList       0x20040038       0x10 zephyr/drivers/adc/libdrivers__adc.a(adc_nrfx_saadc.c.obj)
 .intList       0x20040048       0x10 zephyr/drivers/gpio/libdrivers__gpio.a(gpio_nrfx.c.obj)
 .intList       0x20040058       0x10 zephyr/drivers/sensor/qdec_nrfx/libdrivers__sensor__qdec_nrfx.a(qdec_nrfx.c.obj)
 .intList       0x20040068       0x10 zephyr/drivers/sensor/nrf5/libdrivers__sensor__nrf5.a(temp_nrf5.c.obj)
 .intList       0x20040078       0x10 zephyr/drivers/spi/libdrivers__spi.a(spi_nrfx_spim.c.obj)
 .intList       0x20040088       0x10 zephyr/drivers/entropy/libdrivers__entropy.a(entropy_ll_nrfxlib.c.obj)
 .intList       0x20040098       0x40 zephyr/modules/nrf/subsys/bluetooth/controller/lib..__nrf__subsys__bluetooth__controller.a(hci_driver.c.obj)
 .intList       0x200400d8       0x10 zephyr/modules/nrf/drivers/clock_control/lib..__nrf__drivers__clock_control.a(clock_control_nrfxlib.c.obj)

.stab
 *(SORT_BY_ALIGNMENT(.stab))

.stabstr
 *(SORT_BY_ALIGNMENT(.stabstr))

.stab.excl
 *(SORT_BY_ALIGNMENT(.stab.excl))

.stab.exclstr
 *(SORT_BY_ALIGNMENT(.stab.exclstr))

.stab.index
 *(SORT_BY_ALIGNMENT(.stab.index))

.stab.indexstr
 *(SORT_BY_ALIGNMENT(.stab.indexstr))

.gnu.build.attributes
 *(SORT_BY_ALIGNMENT(.gnu.build.attributes) SORT_BY_ALIGNMENT(.gnu.build.attributes.*))

.comment        0x00000000    0x2f65e
 *(SORT_BY_ALIGNMENT(.comment))
 .comment       0x00000000       0x7f app/libapp.a(main.c.obj)
                                 0x80 (size before relaxing)
 .comment       0x0000007f       0x80 app/libapp.a(hid_report_desc.c.obj)
 .comment       0x0000007f       0x80 app/libapp.a(battery_event.c.obj)
 .comment       0x0000007f       0x80 app/libapp.a(ble_event.c.obj)
 .comment       0x0000007f       0x80 app/libapp.a(button_event.c.obj)
 .comment       0x0000007f       0x80 app/libapp.a(click_event.c.obj)
 .comment       0x0000007f       0x80 app/libapp.a(selector_event.c.obj)
 .comment       0x0000007f       0x80 app/libapp.a(hid_event.c.obj)
 .comment       0x0000007f       0x80 app/libapp.a(led_event.c.obj)
 .comment       0x0000007f       0x80 app/libapp.a(config_event.c.obj)
 .comment       0x0000007f       0x80 app/libapp.a(module_state_event.c.obj)
 .comment       0x0000007f       0x80 app/libapp.a(motion_event.c.obj)
 .comment       0x0000007f       0x80 app/libapp.a(power_event.c.obj)
 .comment       0x0000007f       0x80 app/libapp.a(wheel_event.c.obj)
 .comment       0x0000007f       0x80 app/libapp.a(usb_event.c.obj)
 .comment       0x0000007f       0x80 app/libapp.a(hids_event.c.obj)
 .comment       0x0000007f       0x80 app/libapp.a(board.c.obj)
 .comment       0x0000007f       0x80 app/libapp.a(motion_sensor.c.obj)
 .comment       0x0000007f       0x80 app/libapp.a(buttons.c.obj)
 .comment       0x0000007f       0x80 app/libapp.a(click_detector.c.obj)
 .comment       0x0000007f       0x80 app/libapp.a(selector_hw.c.obj)
 .comment       0x0000007f       0x80 app/libapp.a(wheel.c.obj)
 .comment       0x0000007f       0x80 app/libapp.a(leds.c.obj)
 .comment       0x0000007f       0x80 app/libapp.a(battery_charger.c.obj)
 .comment       0x0000007f       0x80 app/libapp.a(battery_meas.c.obj)
 .comment       0x0000007f       0x80 app/libapp.a(ble_state.c.obj)
 .comment       0x0000007f       0x80 app/libapp.a(ble_bond.c.obj)
 .comment       0x0000007f       0x80 app/libapp.a(ble_latency.c.obj)
 .comment       0x0000007f       0x80 app/libapp.a(ble_adv.c.obj)
 .comment       0x0000007f       0x80 app/libapp.a(config.c.obj)
 .comment       0x0000007f       0x80 app/libapp.a(hid_state.c.obj)
 .comment       0x0000007f       0x80 app/libapp.a(usb_state.c.obj)
 .comment       0x0000007f       0x80 app/libapp.a(led_state.c.obj)
 .comment       0x0000007f       0x80 app/libapp.a(led_stream.c.obj)
 .comment       0x0000007f       0x80 app/libapp.a(power_manager.c.obj)
 .comment       0x0000007f       0x80 app/libapp.a(watchdog.c.obj)
 .comment       0x0000007f       0x80 app/libapp.a(bas.c.obj)
 .comment       0x0000007f       0x80 app/libapp.a(dev_descr.c.obj)
 .comment       0x0000007f       0x80 app/libapp.a(hids.c.obj)
 .comment       0x0000007f       0x80 app/libapp.a(config_channel.c.obj)
 .comment       0x0000007f       0x80 zephyr/libzephyr.a(crc8_sw.c.obj)
 .comment       0x0000007f       0x80 zephyr/libzephyr.a(dec.c.obj)
 .comment       0x0000007f       0x80 zephyr/libzephyr.a(fdtable.c.obj)
 .comment       0x0000007f       0x80 zephyr/libzephyr.a(hex.c.obj)
 .comment       0x0000007f       0x80 zephyr/libzephyr.a(mempool.c.obj)
 .comment       0x0000007f       0x80 zephyr/libzephyr.a(thread_entry.c.obj)
 .comment       0x0000007f       0x80 zephyr/libzephyr.a(work_q.c.obj)
 .comment       0x0000007f       0x80 zephyr/libzephyr.a(printk.c.obj)
 .comment       0x0000007f       0x80 zephyr/libzephyr.a(configs.c.obj)
 .comment       0x0000007f       0x80 zephyr/libzephyr.a(utils.c.obj)
 .comment       0x0000007f       0x80 zephyr/libzephyr.a(ecc_dh.c.obj)
 .comment       0x0000007f       0x80 zephyr/libzephyr.a(ecc.c.obj)
 .comment       0x0000007f       0x80 zephyr/libzephyr.a(aes_encrypt.c.obj)
 .comment       0x0000007f       0x80 zephyr/libzephyr.a(cmac_mode.c.obj)
 .comment       0x0000007f       0x80 zephyr/libzephyr.a(dis.c.obj)
 .comment       0x0000007f       0x80 zephyr/libzephyr.a(fcb_append.c.obj)
 .comment       0x0000007f       0x80 zephyr/libzephyr.a(fcb.c.obj)
 .comment       0x0000007f       0x80 zephyr/libzephyr.a(fcb_elem_info.c.obj)
 .comment       0x0000007f       0x80 zephyr/libzephyr.a(fcb_getnext.c.obj)
 .comment       0x0000007f       0x80 zephyr/libzephyr.a(fcb_rotate.c.obj)
 .comment       0x0000007f       0x80 zephyr/libzephyr.a(usb_device.c.obj)
 .comment       0x0000007f       0x80 zephyr/libzephyr.a(usb_descriptor.c.obj)
 .comment       0x0000007f       0x80 zephyr/libzephyr.a(flash_map.c.obj)
 .comment       0x0000007f       0x80 zephyr/libzephyr.a(flash_map_default.c.obj)
 .comment       0x0000007f       0x80 zephyr/libzephyr.a(settings_store.c.obj)
 .comment       0x0000007f       0x80 zephyr/libzephyr.a(settings.c.obj)
 .comment       0x0000007f       0x80 zephyr/libzephyr.a(settings_init.c.obj)
 .comment       0x0000007f       0x80 zephyr/libzephyr.a(settings_line.c.obj)
 .comment       0x0000007f       0x80 zephyr/libzephyr.a(settings_fcb.c.obj)
 .comment       0x0000007f       0x80 zephyr/libzephyr.a(power.c.obj)
 .comment       0x0000007f       0x80 zephyr/libzephyr.a(device.c.obj)
 .comment       0x0000007f       0x80 zephyr/libzephyr.a(reboot.c.obj)
 .comment       0x0000007f       0x80 zephyr/libzephyr.a(usb_dc_nrfx.c.obj)
 .comment       0x0000007f       0x80 zephyr/libzephyr.a(wdt_nrfx.c.obj)
 .comment       0x0000007f       0x80 zephyr/libzephyr.a(sys_clock_init.c.obj)
 .comment       0x0000007f       0x80 zephyr/libzephyr.a(nrf_rtc_timer.c.obj)
 .comment       0x0000007f       0x80 zephyr/libzephyr.a(gatt_pool.c.obj)
 .comment       0x0000007f       0x80 zephyr/libzephyr.a(conn_ctx.c.obj)
 .comment       0x0000007f       0x80 zephyr/libzephyr.a(hids.c.obj)
 .comment       0x0000007f       0x80 zephyr/libzephyr.a(event_manager.c.obj)
 .comment       0x0000007f       0x80 zephyr/libzephyr.a(nrf_cc310_platform_abort_zephyr.c.obj)
 .comment       0x0000007f       0x80 zephyr/libzephyr.a(nrf_cc310_platform_mutex_zephyr.c.obj)
 .comment       0x0000007f       0x80 zephyr/arch/common/libarch__common.a(isr_tables.c.obj)
 .comment       0x0000007f       0x80 zephyr/arch/arch/arm/core/libarch__arm__core.a(swap.c.obj)
 .comment       0x0000007f       0x80 zephyr/arch/arch/arm/core/libarch__arm__core.a(irq_manage.c.obj)
 .comment       0x0000007f       0x80 zephyr/arch/arch/arm/core/libarch__arm__core.a(thread.c.obj)
 .comment       0x0000007f       0x80 zephyr/arch/arch/arm/core/libarch__arm__core.a(fatal.c.obj)
 .comment       0x0000007f       0x80 zephyr/arch/arch/arm/core/libarch__arm__core.a(nmi.c.obj)
 .comment       0x0000007f       0x80 zephyr/arch/arch/arm/core/libarch__arm__core.a(prep_c.c.obj)
 .comment       0x0000007f       0x80 zephyr/arch/arch/arm/core/cortex_m/libarch__arm__core__cortex_m.a(fault.c.obj)
 .comment       0x0000007f       0x80 zephyr/arch/arch/arm/core/cortex_m/libarch__arm__core__cortex_m.a(irq_init.c.obj)
 .comment       0x0000007f       0x80 zephyr/arch/arch/arm/core/cortex_m/libarch__arm__core__cortex_m.a(thread_abort.c.obj)
 .comment       0x0000007f       0x80 zephyr/arch/arch/arm/core/cortex_m/mpu/libarch__arm__core__cortex_m__mpu.a(arm_core_mpu.c.obj)
 .comment       0x0000007f       0x80 zephyr/arch/arch/arm/core/cortex_m/mpu/libarch__arm__core__cortex_m__mpu.a(arm_mpu.c.obj)
 .comment       0x0000007f       0x80 zephyr/lib/libc/minimal/liblib__libc__minimal.a(strtol.c.obj)
 .comment       0x0000007f       0x80 zephyr/lib/libc/minimal/liblib__libc__minimal.a(string.c.obj)
 .comment       0x0000007f       0x80 zephyr/lib/libc/minimal/liblib__libc__minimal.a(prf.c.obj)
 .comment       0x0000007f       0x80 zephyr/lib/libc/minimal/liblib__libc__minimal.a(sprintf.c.obj)
 .comment       0x0000007f       0x80 zephyr/soc/arm/nordic_nrf/nrf52/libsoc__arm__nordic_nrf__nrf52.a(soc.c.obj)
 .comment       0x0000007f       0x80 zephyr/soc/arm/nordic_nrf/nrf52/libsoc__arm__nordic_nrf__nrf52.a(power.c.obj)
 .comment       0x0000007f       0x80 zephyr/soc/arm/nordic_nrf/nrf52/libsoc__arm__nordic_nrf__nrf52.a(mpu_regions.c.obj)
 .comment       0x0000007f       0x80 zephyr/subsys/bluetooth/common/libsubsys__bluetooth__common.a(rpa.c.obj)
 .comment       0x0000007f       0x80 zephyr/subsys/bluetooth/host/libsubsys__bluetooth__host.a(hci_ecc.c.obj)
 .comment       0x0000007f       0x80 zephyr/subsys/bluetooth/host/libsubsys__bluetooth__host.a(settings.c.obj)
 .comment       0x0000007f       0x80 zephyr/subsys/bluetooth/host/libsubsys__bluetooth__host.a(uuid.c.obj)
 .comment       0x0000007f       0x80 zephyr/subsys/bluetooth/host/libsubsys__bluetooth__host.a(hci_core.c.obj)
 .comment       0x0000007f       0x80 zephyr/subsys/bluetooth/host/libsubsys__bluetooth__host.a(conn.c.obj)
 .comment       0x0000007f       0x80 zephyr/subsys/bluetooth/host/libsubsys__bluetooth__host.a(l2cap.c.obj)
 .comment       0x0000007f       0x80 zephyr/subsys/bluetooth/host/libsubsys__bluetooth__host.a(att.c.obj)
 .comment       0x0000007f       0x80 zephyr/subsys/bluetooth/host/libsubsys__bluetooth__host.a(gatt.c.obj)
 .comment       0x0000007f       0x80 zephyr/subsys/bluetooth/host/libsubsys__bluetooth__host.a(smp.c.obj)
 .comment       0x0000007f       0x80 zephyr/subsys/bluetooth/host/libsubsys__bluetooth__host.a(keys.c.obj)
 .comment       0x0000007f       0x80 zephyr/subsys/net/libsubsys__net.a(buf.c.obj)
 .comment       0x0000007f       0x80 zephyr/subsys/usb/class/hid/libsubsys__usb__class__hid.a(core.c.obj)
 .comment       0x0000007f       0x80 zephyr/subsys/random/libsubsys__random.a(rand32_entropy_device.c.obj)
 .comment       0x0000007f       0x80 zephyr/drivers/adc/libdrivers__adc.a(adc_nrfx_saadc.c.obj)
 .comment       0x0000007f       0x80 zephyr/drivers/gpio/libdrivers__gpio.a(gpio_nrfx.c.obj)
 .comment       0x0000007f       0x80 zephyr/drivers/pwm/libdrivers__pwm.a(pwm_nrfx.c.obj)
 .comment       0x0000007f       0x80 zephyr/drivers/sensor/qdec_nrfx/libdrivers__sensor__qdec_nrfx.a(qdec_nrfx.c.obj)
 .comment       0x0000007f       0x80 zephyr/drivers/sensor/nrf5/libdrivers__sensor__nrf5.a(temp_nrf5.c.obj)
 .comment       0x0000007f       0x80 zephyr/drivers/spi/libdrivers__spi.a(spi_nrfx_spim.c.obj)
 .comment       0x0000007f       0x80 zephyr/drivers/flash/libdrivers__flash.a(flash_page_layout.c.obj)
 .comment       0x0000007f       0x80 zephyr/drivers/flash/libdrivers__flash.a(flash_ll_nrfxlib.c.obj)
 .comment       0x0000007f       0x80 zephyr/drivers/entropy/libdrivers__entropy.a(entropy_ll_nrfxlib.c.obj)
 .comment       0x0000007f       0x80 zephyr/modules/nrf/lib/multithreading_lock/lib..__nrf__lib__multithreading_lock.a(multithreading_lock.c.obj)
 .comment       0x0000007f       0x80 zephyr/modules/nrf/subsys/bluetooth/controller/lib..__nrf__subsys__bluetooth__controller.a(hci_driver.c.obj)
 .comment       0x0000007f       0x80 zephyr/modules/nrf/subsys/bluetooth/controller/lib..__nrf__subsys__bluetooth__controller.a(crypto.c.obj)
 .comment       0x0000007f       0x80 zephyr/modules/nrf/drivers/sensor/pmw3360/lib..__nrf__drivers__sensor__pmw3360.a(pmw3360.c.obj)
 .comment       0x0000007f       0x80 zephyr/modules/nrf/drivers/sensor/pmw3360/lib..__nrf__drivers__sensor__pmw3360.a(pmw3360_priv.c.obj)
 .comment       0x0000007f       0x80 zephyr/modules/nrf/drivers/clock_control/lib..__nrf__drivers__clock_control.a(clock_control_nrfxlib.c.obj)
 .comment       0x0000007f       0x80 zephyr/modules/nrf/drivers/hw_cc310/lib..__nrf__drivers__hw_cc310.a(hw_cc310.c.obj)
 .comment       0x0000007f       0x80 zephyr/modules/nordic/lib..__modules__hal__nordic.a(system_nrf52840.c.obj)
 .comment       0x0000007f       0x80 zephyr/modules/nordic/lib..__modules__hal__nordic.a(nrfx_glue.c.obj)
 .comment       0x0000007f       0x80 zephyr/modules/nordic/lib..__modules__hal__nordic.a(nrfx_nvmc.c.obj)
 .comment       0x0000007f       0x80 zephyr/modules/nordic/lib..__modules__hal__nordic.a(nrfx_pwm.c.obj)
 .comment       0x0000007f       0x80 zephyr/modules/nordic/lib..__modules__hal__nordic.a(nrfx_qdec.c.obj)
 .comment       0x0000007f       0x80 zephyr/modules/nordic/lib..__modules__hal__nordic.a(nrfx_spim.c.obj)
 .comment       0x0000007f       0x80 zephyr/modules/nordic/lib..__modules__hal__nordic.a(nrfx_systick.c.obj)
 .comment       0x0000007f       0x80 zephyr/modules/nordic/lib..__modules__hal__nordic.a(nrfx_usbd.c.obj)
 .comment       0x0000007f       0x80 zephyr/modules/nordic/lib..__modules__hal__nordic.a(nrfx_wdt.c.obj)
 .comment       0x0000007f       0x80 zephyr/kernel/libkernel.a(device.c.obj)
 .comment       0x0000007f       0x80 zephyr/kernel/libkernel.a(errno.c.obj)
 .comment       0x0000007f       0x80 zephyr/kernel/libkernel.a(fatal.c.obj)
 .comment       0x0000007f       0x80 zephyr/kernel/libkernel.a(idle.c.obj)
 .comment       0x0000007f       0x80 zephyr/kernel/libkernel.a(init.c.obj)
 .comment       0x0000007f       0x80 zephyr/kernel/libkernel.a(mem_slab.c.obj)
 .comment       0x0000007f       0x80 zephyr/kernel/libkernel.a(mempool.c.obj)
 .comment       0x0000007f       0x80 zephyr/kernel/libkernel.a(mutex.c.obj)
 .comment       0x0000007f       0x80 zephyr/kernel/libkernel.a(queue.c.obj)
 .comment       0x0000007f       0x80 zephyr/kernel/libkernel.a(sched.c.obj)
 .comment       0x0000007f       0x80 zephyr/kernel/libkernel.a(sem.c.obj)
 .comment       0x0000007f       0x80 zephyr/kernel/libkernel.a(system_work_q.c.obj)
 .comment       0x0000007f       0x80 zephyr/kernel/libkernel.a(thread.c.obj)
 .comment       0x0000007f       0x80 zephyr/kernel/libkernel.a(work_q.c.obj)
 .comment       0x0000007f       0x80 zephyr/kernel/libkernel.a(timeout.c.obj)
 .comment       0x0000007f       0x80 zephyr/kernel/libkernel.a(timer.c.obj)
 .comment       0x0000007f       0x80 zephyr/kernel/libkernel.a(poll.c.obj)
 .comment       0x0000007f       0x80 zephyr/CMakeFiles/offsets.dir/arch/arm/core/offsets/offsets.c.obj
 .comment       0x0000007f       0x7f C:/ncs.sojkk/nrfxlib/crypto/nrf_cc310_platform/lib/cortex-m4/soft-float/no-interrupts/libnrf_cc310_platform_0.9.1.a(nrf_cc310_platform.c.obj)
                                 0x80 (size before relaxing)
 .comment       0x000000fe       0x80 C:/ncs.sojkk/nrfxlib/crypto/nrf_cc310_platform/lib/cortex-m4/soft-float/no-interrupts/libnrf_cc310_platform_0.9.1.a(nrf_cc310_platform_abort.c.obj)
 .comment       0x000000fe       0x80 C:/ncs.sojkk/nrfxlib/crypto/nrf_cc310_platform/lib/cortex-m4/soft-float/no-interrupts/libnrf_cc310_platform_0.9.1.a(nrf_cc310_platform_mutex.c.obj)
 .comment       0x000000fe       0x80 C:/ncs.sojkk/nrfxlib/crypto/nrf_cc310_platform/lib/cortex-m4/soft-float/no-interrupts/libnrf_cc310_platform_0.9.1.a(cc_lib.c.obj)
 .comment       0x000000fe       0x80 C:/ncs.sojkk/nrfxlib/crypto/nrf_cc310_platform/lib/cortex-m4/soft-float/no-interrupts/libnrf_cc310_platform_0.9.1.a(cc_hal.c.obj)
 .comment       0x000000fe       0x80 C:/ncs.sojkk/nrfxlib/crypto/nrf_cc310_platform/lib/cortex-m4/soft-float/no-interrupts/libnrf_cc310_platform_0.9.1.a(cc_pal.c.obj)
 .comment       0x000000fe       0x80 C:/ncs.sojkk/nrfxlib/crypto/nrf_cc310_platform/lib/cortex-m4/soft-float/no-interrupts/libnrf_cc310_platform_0.9.1.a(cc_pal_dma.c.obj)
 .comment       0x000000fe       0x80 C:/ncs.sojkk/nrfxlib/crypto/nrf_cc310_platform/lib/cortex-m4/soft-float/no-interrupts/libnrf_cc310_platform_0.9.1.a(cc_pal_mutex.c.obj)
 .comment       0x000000fe       0x80 C:/ncs.sojkk/nrfxlib/crypto/nrf_cc310_platform/lib/cortex-m4/soft-float/no-interrupts/libnrf_cc310_platform_0.9.1.a(cc_pal_pm.c.obj)
 .comment       0x000000fe    0x2f560 C:/ncs.sojkk/nrfxlib/ble_controller/lib/cortex-m4/soft-float/libble_controller_s140.a(libble_controller_debug_s140_soft_nrf52__obfuscated.elf)

.debug
 *(SORT_BY_ALIGNMENT(.debug))

.line
 *(SORT_BY_ALIGNMENT(.line))

.debug_srcinfo
 *(SORT_BY_ALIGNMENT(.debug_srcinfo))

.debug_sfnames
 *(SORT_BY_ALIGNMENT(.debug_sfnames))

.debug_aranges  0x00000000     0x3948
 *(SORT_BY_ALIGNMENT(.debug_aranges))
 .debug_aranges
                0x00000000       0x20 zephyr/arch/arch/arm/core/libarch__arm__core.a(exc_exit.S.obj)
 .debug_aranges
                0x00000020       0x28 zephyr/arch/arch/arm/core/libarch__arm__core.a(swap_helper.S.obj)
 .debug_aranges
                0x00000048       0x30 zephyr/arch/arch/arm/core/libarch__arm__core.a(cpu_idle.S.obj)
 .debug_aranges
                0x00000078       0x20 zephyr/arch/arch/arm/core/libarch__arm__core.a(fault_s.S.obj)
 .debug_aranges
                0x00000098       0x20 zephyr/arch/arch/arm/core/libarch__arm__core.a(nmi_on_reset.S.obj)
 .debug_aranges
                0x000000b8       0x20 zephyr/arch/arch/arm/core/libarch__arm__core.a(isr_wrapper.S.obj)
 .debug_aranges
                0x000000d8       0x20 zephyr/arch/arch/arm/core/cortex_m/libarch__arm__core__cortex_m.a(reset.S.obj)
 .debug_aranges
                0x000000f8       0x20 app/libapp.a(main.c.obj)
 .debug_aranges
                0x00000118       0x18 app/libapp.a(hid_report_desc.c.obj)
 .debug_aranges
                0x00000130       0x30 app/libapp.a(battery_event.c.obj)
 .debug_aranges
                0x00000160       0x38 app/libapp.a(ble_event.c.obj)
 .debug_aranges
                0x00000198       0x28 app/libapp.a(button_event.c.obj)
 .debug_aranges
                0x000001c0       0x28 app/libapp.a(click_event.c.obj)
 .debug_aranges
                0x000001e8       0x28 app/libapp.a(selector_event.c.obj)
 .debug_aranges
                0x00000210       0x50 app/libapp.a(hid_event.c.obj)
 .debug_aranges
                0x00000260       0x28 app/libapp.a(led_event.c.obj)
 .debug_aranges
                0x00000288       0x38 app/libapp.a(config_event.c.obj)
 .debug_aranges
                0x000002c0       0x20 app/libapp.a(module_state_event.c.obj)
 .debug_aranges
                0x000002e0       0x28 app/libapp.a(motion_event.c.obj)
 .debug_aranges
                0x00000308       0x18 app/libapp.a(power_event.c.obj)
 .debug_aranges
                0x00000320       0x20 app/libapp.a(wheel_event.c.obj)
 .debug_aranges
                0x00000340       0x20 app/libapp.a(usb_event.c.obj)
 .debug_aranges
                0x00000360       0x20 app/libapp.a(hids_event.c.obj)
 .debug_aranges
                0x00000380       0x30 app/libapp.a(board.c.obj)
 .debug_aranges
                0x000003b0       0x30 app/libapp.a(motion_sensor.c.obj)
 .debug_aranges
                0x000003e0       0x48 app/libapp.a(buttons.c.obj)
 .debug_aranges
                0x00000428       0x28 app/libapp.a(click_detector.c.obj)
 .debug_aranges
                0x00000450       0x58 app/libapp.a(selector_hw.c.obj)
 .debug_aranges
                0x000004a8       0x40 app/libapp.a(wheel.c.obj)
 .debug_aranges
                0x000004e8       0x38 app/libapp.a(leds.c.obj)
 .debug_aranges
                0x00000520       0x38 app/libapp.a(battery_charger.c.obj)
 .debug_aranges
                0x00000558       0x38 app/libapp.a(battery_meas.c.obj)
 .debug_aranges
                0x00000590       0x60 app/libapp.a(ble_state.c.obj)
 .debug_aranges
                0x000005f0       0x90 app/libapp.a(ble_bond.c.obj)
 .debug_aranges
                0x00000680       0x40 app/libapp.a(ble_latency.c.obj)
 .debug_aranges
                0x000006c0       0x50 app/libapp.a(ble_adv.c.obj)
 .debug_aranges
                0x00000710       0x30 app/libapp.a(config.c.obj)
 .debug_aranges
                0x00000740       0x48 app/libapp.a(hid_state.c.obj)
 .debug_aranges
                0x00000788       0x58 app/libapp.a(usb_state.c.obj)
 .debug_aranges
                0x000007e0       0x30 app/libapp.a(led_state.c.obj)
 .debug_aranges
                0x00000810       0x30 app/libapp.a(led_stream.c.obj)
 .debug_aranges
                0x00000840       0x40 app/libapp.a(power_manager.c.obj)
 .debug_aranges
                0x00000880       0x30 app/libapp.a(watchdog.c.obj)
 .debug_aranges
                0x000008b0       0x30 app/libapp.a(bas.c.obj)
 .debug_aranges
                0x000008e0       0x20 app/libapp.a(dev_descr.c.obj)
 .debug_aranges
                0x00000900       0x50 app/libapp.a(hids.c.obj)
 .debug_aranges
                0x00000950       0x68 app/libapp.a(config_channel.c.obj)
 .debug_aranges
                0x000009b8       0x20 zephyr/libzephyr.a(crc8_sw.c.obj)
 .debug_aranges
                0x000009d8       0x20 zephyr/libzephyr.a(dec.c.obj)
 .debug_aranges
                0x000009f8       0x50 zephyr/libzephyr.a(fdtable.c.obj)
 .debug_aranges
                0x00000a48       0x38 zephyr/libzephyr.a(hex.c.obj)
 .debug_aranges
                0x00000a80       0x48 zephyr/libzephyr.a(mempool.c.obj)
 .debug_aranges
                0x00000ac8       0x20 zephyr/libzephyr.a(thread_entry.c.obj)
 .debug_aranges
                0x00000ae8       0x28 zephyr/libzephyr.a(work_q.c.obj)
 .debug_aranges
                0x00000b10       0x78 zephyr/libzephyr.a(printk.c.obj)
 .debug_aranges
                0x00000b88       0x20 zephyr/libzephyr.a(configs.c.obj)
 .debug_aranges
                0x00000ba8       0x38 zephyr/libzephyr.a(utils.c.obj)
 .debug_aranges
                0x00000be0       0x30 zephyr/libzephyr.a(ecc_dh.c.obj)
 .debug_aranges
                0x00000c10      0x150 zephyr/libzephyr.a(ecc.c.obj)
 .debug_aranges
                0x00000d60       0x28 zephyr/libzephyr.a(aes_encrypt.c.obj)
 .debug_aranges
                0x00000d88       0x50 zephyr/libzephyr.a(cmac_mode.c.obj)
 .debug_aranges
                0x00000dd8       0x28 zephyr/libzephyr.a(dis.c.obj)
 .debug_aranges
                0x00000e00       0x30 zephyr/libzephyr.a(fcb_append.c.obj)
 .debug_aranges
                0x00000e30       0x80 zephyr/libzephyr.a(fcb.c.obj)
 .debug_aranges
                0x00000eb0       0x28 zephyr/libzephyr.a(fcb_elem_info.c.obj)
 .debug_aranges
                0x00000ed8       0x38 zephyr/libzephyr.a(fcb_getnext.c.obj)
 .debug_aranges
                0x00000f10       0x20 zephyr/libzephyr.a(fcb_rotate.c.obj)
 .debug_aranges
                0x00000f30       0xf8 zephyr/libzephyr.a(usb_device.c.obj)
 .debug_aranges
                0x00001028       0x50 zephyr/libzephyr.a(usb_descriptor.c.obj)
 .debug_aranges
                0x00001078       0x70 zephyr/libzephyr.a(flash_map.c.obj)
 .debug_aranges
                0x000010e8       0x18 zephyr/libzephyr.a(flash_map_default.c.obj)
 .debug_aranges
                0x00001100       0x60 zephyr/libzephyr.a(settings_store.c.obj)
 .debug_aranges
                0x00001160       0x60 zephyr/libzephyr.a(settings.c.obj)
 .debug_aranges
                0x000011c0       0x28 zephyr/libzephyr.a(settings_init.c.obj)
 .debug_aranges
                0x000011e8       0x78 zephyr/libzephyr.a(settings_line.c.obj)
 .debug_aranges
                0x00001260       0x60 zephyr/libzephyr.a(settings_fcb.c.obj)
 .debug_aranges
                0x000012c0       0x48 zephyr/libzephyr.a(power.c.obj)
 .debug_aranges
                0x00001308       0x38 zephyr/libzephyr.a(device.c.obj)
 .debug_aranges
                0x00001340       0x20 zephyr/libzephyr.a(reboot.c.obj)
 .debug_aranges
                0x00001360       0xf8 zephyr/libzephyr.a(usb_dc_nrfx.c.obj)
 .debug_aranges
                0x00001458       0x48 zephyr/libzephyr.a(wdt_nrfx.c.obj)
 .debug_aranges
                0x000014a0       0x40 zephyr/libzephyr.a(sys_clock_init.c.obj)
 .debug_aranges
                0x000014e0       0x40 zephyr/libzephyr.a(nrf_rtc_timer.c.obj)
 .debug_aranges
                0x00001520       0x58 zephyr/libzephyr.a(gatt_pool.c.obj)
 .debug_aranges
                0x00001578       0x48 zephyr/libzephyr.a(conn_ctx.c.obj)
 .debug_aranges
                0x000015c0      0x100 zephyr/libzephyr.a(hids.c.obj)
 .debug_aranges
                0x000016c0       0x30 zephyr/libzephyr.a(event_manager.c.obj)
 .debug_aranges
                0x000016f0       0x28 zephyr/libzephyr.a(nrf_cc310_platform_abort_zephyr.c.obj)
 .debug_aranges
                0x00001718       0x40 zephyr/libzephyr.a(nrf_cc310_platform_mutex_zephyr.c.obj)
 .debug_aranges
                0x00001758       0x18 zephyr/arch/common/libarch__common.a(isr_tables.c.obj)
 .debug_aranges
                0x00001770       0x20 zephyr/arch/arch/arm/core/libarch__arm__core.a(swap.c.obj)
 .debug_aranges
                0x00001790       0x48 zephyr/arch/arch/arm/core/libarch__arm__core.a(irq_manage.c.obj)
 .debug_aranges
                0x000017d8       0x28 zephyr/arch/arch/arm/core/libarch__arm__core.a(thread.c.obj)
 .debug_aranges
                0x00001800       0x30 zephyr/arch/arch/arm/core/libarch__arm__core.a(fatal.c.obj)
 .debug_aranges
                0x00001830       0x20 zephyr/arch/arch/arm/core/libarch__arm__core.a(nmi.c.obj)
 .debug_aranges
                0x00001850       0x20 zephyr/arch/arch/arm/core/libarch__arm__core.a(prep_c.c.obj)
 .debug_aranges
                0x00001870       0x30 zephyr/arch/arch/arm/core/cortex_m/libarch__arm__core__cortex_m.a(fault.c.obj)
 .debug_aranges
                0x000018a0       0x20 zephyr/arch/arch/arm/core/cortex_m/libarch__arm__core__cortex_m.a(irq_init.c.obj)
 .debug_aranges
                0x000018c0       0x20 zephyr/arch/arch/arm/core/cortex_m/libarch__arm__core__cortex_m.a(thread_abort.c.obj)
 .debug_aranges
                0x000018e0       0x28 zephyr/arch/arch/arm/core/cortex_m/mpu/libarch__arm__core__cortex_m__mpu.a(arm_core_mpu.c.obj)
 .debug_aranges
                0x00001908       0x48 zephyr/arch/arch/arm/core/cortex_m/mpu/libarch__arm__core__cortex_m__mpu.a(arm_mpu.c.obj)
 .debug_aranges
                0x00001950       0x20 zephyr/lib/libc/minimal/liblib__libc__minimal.a(strtol.c.obj)
 .debug_aranges
                0x00001970       0x90 zephyr/lib/libc/minimal/liblib__libc__minimal.a(string.c.obj)
 .debug_aranges
                0x00001a00       0x28 zephyr/lib/libc/minimal/liblib__libc__minimal.a(prf.c.obj)
 .debug_aranges
                0x00001a28       0x40 zephyr/lib/libc/minimal/liblib__libc__minimal.a(sprintf.c.obj)
 .debug_aranges
                0x00001a68       0x38 zephyr/soc/arm/nordic_nrf/nrf52/libsoc__arm__nordic_nrf__nrf52.a(soc.c.obj)
 .debug_aranges
                0x00001aa0       0x28 zephyr/soc/arm/nordic_nrf/nrf52/libsoc__arm__nordic_nrf__nrf52.a(power.c.obj)
 .debug_aranges
                0x00001ac8       0x18 zephyr/soc/arm/nordic_nrf/nrf52/libsoc__arm__nordic_nrf__nrf52.a(mpu_regions.c.obj)
 .debug_aranges
                0x00001ae0       0x28 zephyr/subsys/bluetooth/common/libsubsys__bluetooth__common.a(rpa.c.obj)
 .debug_aranges
                0x00001b08       0x40 zephyr/subsys/bluetooth/host/libsubsys__bluetooth__host.a(hci_ecc.c.obj)
 .debug_aranges
                0x00001b48       0x50 zephyr/subsys/bluetooth/host/libsubsys__bluetooth__host.a(settings.c.obj)
 .debug_aranges
                0x00001b98       0x30 zephyr/subsys/bluetooth/host/libsubsys__bluetooth__host.a(uuid.c.obj)
 .debug_aranges
                0x00001bc8      0x2b0 zephyr/subsys/bluetooth/host/libsubsys__bluetooth__host.a(hci_core.c.obj)
 .debug_aranges
                0x00001e78      0x1a0 zephyr/subsys/bluetooth/host/libsubsys__bluetooth__host.a(conn.c.obj)
 .debug_aranges
                0x00002018       0xb8 zephyr/subsys/bluetooth/host/libsubsys__bluetooth__host.a(l2cap.c.obj)
 .debug_aranges
                0x000020d0      0x180 zephyr/subsys/bluetooth/host/libsubsys__bluetooth__host.a(att.c.obj)
 .debug_aranges
                0x00002250      0x238 zephyr/subsys/bluetooth/host/libsubsys__bluetooth__host.a(gatt.c.obj)
 .debug_aranges
                0x00002488      0x1e8 zephyr/subsys/bluetooth/host/libsubsys__bluetooth__host.a(smp.c.obj)
 .debug_aranges
                0x00002670       0x80 zephyr/subsys/bluetooth/host/libsubsys__bluetooth__host.a(keys.c.obj)
 .debug_aranges
                0x000026f0      0x198 zephyr/subsys/net/libsubsys__net.a(buf.c.obj)
 .debug_aranges
                0x00002888       0x68 zephyr/subsys/usb/class/hid/libsubsys__usb__class__hid.a(core.c.obj)
 .debug_aranges
                0x000028f0       0x38 zephyr/subsys/random/libsubsys__random.a(rand32_entropy_device.c.obj)
 .debug_aranges
                0x00002928       0x50 zephyr/drivers/adc/libdrivers__adc.a(adc_nrfx_saadc.c.obj)
 .debug_aranges
                0x00002978       0x70 zephyr/drivers/gpio/libdrivers__gpio.a(gpio_nrfx.c.obj)
 .debug_aranges
                0x000029e8       0x48 zephyr/drivers/pwm/libdrivers__pwm.a(pwm_nrfx.c.obj)
 .debug_aranges
                0x00002a30       0x50 zephyr/drivers/sensor/qdec_nrfx/libdrivers__sensor__qdec_nrfx.a(qdec_nrfx.c.obj)
 .debug_aranges
                0x00002a80       0x40 zephyr/drivers/sensor/nrf5/libdrivers__sensor__nrf5.a(temp_nrf5.c.obj)
 .debug_aranges
                0x00002ac0       0x50 zephyr/drivers/spi/libdrivers__spi.a(spi_nrfx_spim.c.obj)
 .debug_aranges
                0x00002b10       0x40 zephyr/drivers/flash/libdrivers__flash.a(flash_page_layout.c.obj)
 .debug_aranges
                0x00002b50       0x58 zephyr/drivers/flash/libdrivers__flash.a(flash_ll_nrfxlib.c.obj)
 .debug_aranges
                0x00002ba8       0x38 zephyr/drivers/entropy/libdrivers__entropy.a(entropy_ll_nrfxlib.c.obj)
 .debug_aranges
                0x00002be0       0x28 zephyr/modules/nrf/lib/multithreading_lock/lib..__nrf__lib__multithreading_lock.a(multithreading_lock.c.obj)
 .debug_aranges
                0x00002c08       0x68 zephyr/modules/nrf/subsys/bluetooth/controller/lib..__nrf__subsys__bluetooth__controller.a(hci_driver.c.obj)
 .debug_aranges
                0x00002c70       0x30 zephyr/modules/nrf/subsys/bluetooth/controller/lib..__nrf__subsys__bluetooth__controller.a(crypto.c.obj)
 .debug_aranges
                0x00002ca0       0x98 zephyr/modules/nrf/drivers/sensor/pmw3360/lib..__nrf__drivers__sensor__pmw3360.a(pmw3360.c.obj)
 .debug_aranges
                0x00002d38       0x18 zephyr/modules/nrf/drivers/sensor/pmw3360/lib..__nrf__drivers__sensor__pmw3360.a(pmw3360_priv.c.obj)
 .debug_aranges
                0x00002d50       0x58 zephyr/modules/nrf/drivers/clock_control/lib..__nrf__drivers__clock_control.a(clock_control_nrfxlib.c.obj)
 .debug_aranges
                0x00002da8       0x20 zephyr/modules/nrf/drivers/hw_cc310/lib..__nrf__drivers__hw_cc310.a(hw_cc310.c.obj)
 .debug_aranges
                0x00002dc8       0x28 zephyr/modules/nordic/lib..__modules__hal__nordic.a(system_nrf52840.c.obj)
 .debug_aranges
                0x00002df0       0x28 zephyr/modules/nordic/lib..__modules__hal__nordic.a(nrfx_glue.c.obj)
 .debug_aranges
                0x00002e18       0x88 zephyr/modules/nordic/lib..__modules__hal__nordic.a(nrfx_nvmc.c.obj)
 .debug_aranges
                0x00002ea0       0x68 zephyr/modules/nordic/lib..__modules__hal__nordic.a(nrfx_pwm.c.obj)
 .debug_aranges
                0x00002f08       0x48 zephyr/modules/nordic/lib..__modules__hal__nordic.a(nrfx_qdec.c.obj)
 .debug_aranges
                0x00002f50       0x50 zephyr/modules/nordic/lib..__modules__hal__nordic.a(nrfx_spim.c.obj)
 .debug_aranges
                0x00002fa0       0x48 zephyr/modules/nordic/lib..__modules__hal__nordic.a(nrfx_systick.c.obj)
 .debug_aranges
                0x00002fe8      0x270 zephyr/modules/nordic/lib..__modules__hal__nordic.a(nrfx_usbd.c.obj)
 .debug_aranges
                0x00003258       0x48 zephyr/modules/nordic/lib..__modules__hal__nordic.a(nrfx_wdt.c.obj)
 .debug_aranges
                0x000032a0       0x58 zephyr/kernel/libkernel.a(device.c.obj)
 .debug_aranges
                0x000032f8       0x20 zephyr/kernel/libkernel.a(errno.c.obj)
 .debug_aranges
                0x00003318       0x38 zephyr/kernel/libkernel.a(fatal.c.obj)
 .debug_aranges
                0x00003350       0x30 zephyr/kernel/libkernel.a(idle.c.obj)
 .debug_aranges
                0x00003380       0x48 zephyr/kernel/libkernel.a(init.c.obj)
 .debug_aranges
                0x000033c8       0x38 zephyr/kernel/libkernel.a(mem_slab.c.obj)
 .debug_aranges
                0x00003400       0x68 zephyr/kernel/libkernel.a(mempool.c.obj)
 .debug_aranges
                0x00003468       0x30 zephyr/kernel/libkernel.a(mutex.c.obj)
 .debug_aranges
                0x00003498       0x78 zephyr/kernel/libkernel.a(queue.c.obj)
 .debug_aranges
                0x00003510      0x180 zephyr/kernel/libkernel.a(sched.c.obj)
 .debug_aranges
                0x00003690       0x30 zephyr/kernel/libkernel.a(sem.c.obj)
 .debug_aranges
                0x000036c0       0x20 zephyr/kernel/libkernel.a(system_work_q.c.obj)
 .debug_aranges
                0x000036e0       0xd0 zephyr/kernel/libkernel.a(thread.c.obj)
 .debug_aranges
                0x000037b0       0x48 zephyr/kernel/libkernel.a(work_q.c.obj)
 .debug_aranges
                0x000037f8       0x68 zephyr/kernel/libkernel.a(timeout.c.obj)
 .debug_aranges
                0x00003860       0x48 zephyr/kernel/libkernel.a(timer.c.obj)
 .debug_aranges
                0x000038a8       0x80 zephyr/kernel/libkernel.a(poll.c.obj)
 .debug_aranges
                0x00003928       0x20 zephyr/CMakeFiles/offsets.dir/arch/arm/core/offsets/offsets.c.obj

.debug_pubnames
 *(SORT_BY_ALIGNMENT(.debug_pubnames))

.debug_info     0x00000000   0x120c27
 *(SORT_BY_ALIGNMENT(.debug_info) SORT_BY_ALIGNMENT(.gnu.linkonce.wi.*))
 .debug_info    0x00000000     0x132b app/libapp.a(main.c.obj)
 .debug_info    0x0000132b      0x100 app/libapp.a(hid_report_desc.c.obj)
 .debug_info    0x0000142b     0x14d5 app/libapp.a(battery_event.c.obj)
 .debug_info    0x00002900     0x1a1e app/libapp.a(ble_event.c.obj)
 .debug_info    0x0000431e     0x1270 app/libapp.a(button_event.c.obj)
 .debug_info    0x0000558e     0x12d4 app/libapp.a(click_event.c.obj)
 .debug_info    0x00006862     0x1269 app/libapp.a(selector_event.c.obj)
 .debug_info    0x00007acb     0x1e17 app/libapp.a(hid_event.c.obj)
 .debug_info    0x000098e2     0x13fa app/libapp.a(led_event.c.obj)
 .debug_info    0x0000acdc     0x19a4 app/libapp.a(config_event.c.obj)
 .debug_info    0x0000c680     0x121f app/libapp.a(module_state_event.c.obj)
 .debug_info    0x0000d89f     0x1272 app/libapp.a(motion_event.c.obj)
 .debug_info    0x0000eb11     0x113c app/libapp.a(power_event.c.obj)
 .debug_info    0x0000fc4d     0x11b0 app/libapp.a(wheel_event.c.obj)
 .debug_info    0x00010dfd     0x121e app/libapp.a(usb_event.c.obj)
 .debug_info    0x0001201b     0x146f app/libapp.a(hids_event.c.obj)
 .debug_info    0x0001348a     0x2391 app/libapp.a(board.c.obj)
 .debug_info    0x0001581b     0x4410 app/libapp.a(motion_sensor.c.obj)
 .debug_info    0x00019c2b     0x34bc app/libapp.a(buttons.c.obj)
 .debug_info    0x0001d0e7     0x203d app/libapp.a(click_detector.c.obj)
 .debug_info    0x0001f124     0x2f4d app/libapp.a(selector_hw.c.obj)
 .debug_info    0x00022071     0x376c app/libapp.a(wheel.c.obj)
 .debug_info    0x000257dd     0x285f app/libapp.a(leds.c.obj)
 .debug_info    0x0002803c     0x329f app/libapp.a(battery_charger.c.obj)
 .debug_info    0x0002b2db     0x2fd9 app/libapp.a(battery_meas.c.obj)
 .debug_info    0x0002e2b4     0x2ea5 app/libapp.a(ble_state.c.obj)
 .debug_info    0x00031159     0x3b39 app/libapp.a(ble_bond.c.obj)
 .debug_info    0x00034c92     0x2278 app/libapp.a(ble_latency.c.obj)
 .debug_info    0x00036f0a     0x30f0 app/libapp.a(ble_adv.c.obj)
 .debug_info    0x00039ffa     0x2130 app/libapp.a(config.c.obj)
 .debug_info    0x0003c12a     0x4353 app/libapp.a(hid_state.c.obj)
 .debug_info    0x0004047d     0x2fcf app/libapp.a(usb_state.c.obj)
 .debug_info    0x0004344c     0x1ef2 app/libapp.a(led_state.c.obj)
 .debug_info    0x0004533e     0x2422 app/libapp.a(led_stream.c.obj)
 .debug_info    0x00047760     0x2ad0 app/libapp.a(power_manager.c.obj)
 .debug_info    0x0004a230     0x2025 app/libapp.a(watchdog.c.obj)
 .debug_info    0x0004c255     0x1d27 app/libapp.a(bas.c.obj)
 .debug_info    0x0004df7c      0xe34 app/libapp.a(dev_descr.c.obj)
 .debug_info    0x0004edb0     0x39d1 app/libapp.a(hids.c.obj)
 .debug_info    0x00052781     0x257a app/libapp.a(config_channel.c.obj)
 .debug_info    0x00054cfb      0x11b zephyr/libzephyr.a(crc8_sw.c.obj)
 .debug_info    0x00054e16       0xf8 zephyr/libzephyr.a(dec.c.obj)
 .debug_info    0x00054f0e      0xde4 zephyr/libzephyr.a(fdtable.c.obj)
 .debug_info    0x00055cf2      0x302 zephyr/libzephyr.a(hex.c.obj)
 .debug_info    0x00055ff4     0x1a18 zephyr/libzephyr.a(mempool.c.obj)
 .debug_info    0x00057a0c      0x93a zephyr/libzephyr.a(thread_entry.c.obj)
 .debug_info    0x00058346      0xe2f zephyr/libzephyr.a(work_q.c.obj)
 .debug_info    0x00059175     0x12df zephyr/libzephyr.a(printk.c.obj)
 .debug_info    0x0005a454       0x37 zephyr/libzephyr.a(configs.c.obj)
 .debug_info    0x0005a48b      0x21b zephyr/libzephyr.a(utils.c.obj)
 .debug_info    0x0005a6a6      0x842 zephyr/libzephyr.a(ecc_dh.c.obj)
 .debug_info    0x0005aee8     0x4fa4 zephyr/libzephyr.a(ecc.c.obj)
 .debug_info    0x0005fe8c      0x6a5 zephyr/libzephyr.a(aes_encrypt.c.obj)
 .debug_info    0x00060531      0x659 zephyr/libzephyr.a(cmac_mode.c.obj)
 .debug_info    0x00060b8a      0xeff zephyr/libzephyr.a(dis.c.obj)
 .debug_info    0x00061a89      0xece zephyr/libzephyr.a(fcb_append.c.obj)
 .debug_info    0x00062957     0x1169 zephyr/libzephyr.a(fcb.c.obj)
 .debug_info    0x00063ac0      0xc7d zephyr/libzephyr.a(fcb_elem_info.c.obj)
 .debug_info    0x0006473d      0xd51 zephyr/libzephyr.a(fcb_getnext.c.obj)
 .debug_info    0x0006548e      0xb5e zephyr/libzephyr.a(fcb_rotate.c.obj)
 .debug_info    0x00065fec     0x3de4 zephyr/libzephyr.a(usb_device.c.obj)
 .debug_info    0x00069dd0     0x1fcb zephyr/libzephyr.a(usb_descriptor.c.obj)
 .debug_info    0x0006bd9b     0x1b25 zephyr/libzephyr.a(flash_map.c.obj)
 .debug_info    0x0006d8c0      0x93b zephyr/libzephyr.a(flash_map_default.c.obj)
 .debug_info    0x0006e1fb     0x1561 zephyr/libzephyr.a(settings_store.c.obj)
 .debug_info    0x0006f75c     0x16c7 zephyr/libzephyr.a(settings.c.obj)
 .debug_info    0x00070e23      0xdf0 zephyr/libzephyr.a(settings_init.c.obj)
 .debug_info    0x00071c13     0x1144 zephyr/libzephyr.a(settings_line.c.obj)
 .debug_info    0x00072d57     0x192a zephyr/libzephyr.a(settings_fcb.c.obj)
 .debug_info    0x00074681     0x10c6 zephyr/libzephyr.a(power.c.obj)
 .debug_info    0x00075747     0x10b0 zephyr/libzephyr.a(device.c.obj)
 .debug_info    0x000767f7      0x919 zephyr/libzephyr.a(reboot.c.obj)
 .debug_info    0x00077110     0x6a95 zephyr/libzephyr.a(usb_dc_nrfx.c.obj)
 .debug_info    0x0007dba5     0x16d5 zephyr/libzephyr.a(wdt_nrfx.c.obj)
 .debug_info    0x0007f27a      0xd93 zephyr/libzephyr.a(sys_clock_init.c.obj)
 .debug_info    0x0008000d     0x1eed zephyr/libzephyr.a(nrf_rtc_timer.c.obj)
 .debug_info    0x00081efa     0x1b9f zephyr/libzephyr.a(gatt_pool.c.obj)
 .debug_info    0x00083a99     0x1347 zephyr/libzephyr.a(conn_ctx.c.obj)
 .debug_info    0x00084de0     0x4768 zephyr/libzephyr.a(hids.c.obj)
 .debug_info    0x00089548     0x1bc6 zephyr/libzephyr.a(event_manager.c.obj)
 .debug_info    0x0008b10e      0x97b zephyr/libzephyr.a(nrf_cc310_platform_abort_zephyr.c.obj)
 .debug_info    0x0008ba89      0xecd zephyr/libzephyr.a(nrf_cc310_platform_mutex_zephyr.c.obj)
 .debug_info    0x0008c956      0x216 zephyr/arch/common/libarch__common.a(isr_tables.c.obj)
 .debug_info    0x0008cb6c       0x26 zephyr/arch/arch/arm/core/libarch__arm__core.a(exc_exit.S.obj)
 .debug_info    0x0008cb92      0xac4 zephyr/arch/arch/arm/core/libarch__arm__core.a(swap.c.obj)
 .debug_info    0x0008d656       0x22 zephyr/arch/arch/arm/core/libarch__arm__core.a(swap_helper.S.obj)
 .debug_info    0x0008d678      0xe5e zephyr/arch/arch/arm/core/libarch__arm__core.a(irq_manage.c.obj)
 .debug_info    0x0008e4d6      0xbcd zephyr/arch/arch/arm/core/libarch__arm__core.a(thread.c.obj)
 .debug_info    0x0008f0a3       0x22 zephyr/arch/arch/arm/core/libarch__arm__core.a(cpu_idle.S.obj)
 .debug_info    0x0008f0c5       0x26 zephyr/arch/arch/arm/core/libarch__arm__core.a(fault_s.S.obj)
 .debug_info    0x0008f0eb      0xd26 zephyr/arch/arch/arm/core/libarch__arm__core.a(fatal.c.obj)
 .debug_info    0x0008fe11      0x861 zephyr/arch/arch/arm/core/libarch__arm__core.a(nmi.c.obj)
 .debug_info    0x00090672       0x26 zephyr/arch/arch/arm/core/libarch__arm__core.a(nmi_on_reset.S.obj)
 .debug_info    0x00090698      0xc87 zephyr/arch/arch/arm/core/libarch__arm__core.a(prep_c.c.obj)
 .debug_info    0x0009131f       0x26 zephyr/arch/arch/arm/core/libarch__arm__core.a(isr_wrapper.S.obj)
 .debug_info    0x00091345       0x26 zephyr/arch/arch/arm/core/cortex_m/libarch__arm__core__cortex_m.a(reset.S.obj)
 .debug_info    0x0009136b     0x1699 zephyr/arch/arch/arm/core/cortex_m/libarch__arm__core__cortex_m.a(fault.c.obj)
 .debug_info    0x00092a04      0x651 zephyr/arch/arch/arm/core/cortex_m/libarch__arm__core__cortex_m.a(irq_init.c.obj)
 .debug_info    0x00093055      0xb8a zephyr/arch/arch/arm/core/cortex_m/libarch__arm__core__cortex_m.a(thread_abort.c.obj)
 .debug_info    0x00093bdf      0xbbd zephyr/arch/arch/arm/core/cortex_m/mpu/libarch__arm__core__cortex_m__mpu.a(arm_core_mpu.c.obj)
 .debug_info    0x0009479c     0x1819 zephyr/arch/arch/arm/core/cortex_m/mpu/libarch__arm__core__cortex_m__mpu.a(arm_mpu.c.obj)
 .debug_info    0x00095fb5      0x23c zephyr/lib/libc/minimal/liblib__libc__minimal.a(strtol.c.obj)
 .debug_info    0x000961f1      0x652 zephyr/lib/libc/minimal/liblib__libc__minimal.a(string.c.obj)
 .debug_info    0x00096843      0xd78 zephyr/lib/libc/minimal/liblib__libc__minimal.a(prf.c.obj)
 .debug_info    0x000975bb      0x35c zephyr/lib/libc/minimal/liblib__libc__minimal.a(sprintf.c.obj)
 .debug_info    0x00097917     0x16eb zephyr/soc/arm/nordic_nrf/nrf52/libsoc__arm__nordic_nrf__nrf52.a(soc.c.obj)
 .debug_info    0x00099002      0xe72 zephyr/soc/arm/nordic_nrf/nrf52/libsoc__arm__nordic_nrf__nrf52.a(power.c.obj)
 .debug_info    0x00099e74      0x1f0 zephyr/soc/arm/nordic_nrf/nrf52/libsoc__arm__nordic_nrf__nrf52.a(mpu_regions.c.obj)
 .debug_info    0x0009a064      0xe6c zephyr/subsys/bluetooth/common/libsubsys__bluetooth__common.a(rpa.c.obj)
 .debug_info    0x0009aed0     0x28ba zephyr/subsys/bluetooth/host/libsubsys__bluetooth__host.a(hci_ecc.c.obj)
 .debug_info    0x0009d78a     0x1c12 zephyr/subsys/bluetooth/host/libsubsys__bluetooth__host.a(settings.c.obj)
 .debug_info    0x0009f39c      0x504 zephyr/subsys/bluetooth/host/libsubsys__bluetooth__host.a(uuid.c.obj)
 .debug_info    0x0009f8a0     0xb3f1 zephyr/subsys/bluetooth/host/libsubsys__bluetooth__host.a(hci_core.c.obj)
 .debug_info    0x000aac91     0x611a zephyr/subsys/bluetooth/host/libsubsys__bluetooth__host.a(conn.c.obj)
 .debug_info    0x000b0dab     0x337c zephyr/subsys/bluetooth/host/libsubsys__bluetooth__host.a(l2cap.c.obj)
 .debug_info    0x000b4127     0x6c1e zephyr/subsys/bluetooth/host/libsubsys__bluetooth__host.a(att.c.obj)
 .debug_info    0x000bad45     0x99b2 zephyr/subsys/bluetooth/host/libsubsys__bluetooth__host.a(gatt.c.obj)
 .debug_info    0x000c46f7     0xaa24 zephyr/subsys/bluetooth/host/libsubsys__bluetooth__host.a(smp.c.obj)
 .debug_info    0x000cf11b     0x23a3 zephyr/subsys/bluetooth/host/libsubsys__bluetooth__host.a(keys.c.obj)
 .debug_info    0x000d14be     0x31ae zephyr/subsys/net/libsubsys__net.a(buf.c.obj)
 .debug_info    0x000d466c     0x23a7 zephyr/subsys/usb/class/hid/libsubsys__usb__class__hid.a(core.c.obj)
 .debug_info    0x000d6a13     0x113f zephyr/subsys/random/libsubsys__random.a(rand32_entropy_device.c.obj)
 .debug_info    0x000d7b52     0x302d zephyr/drivers/adc/libdrivers__adc.a(adc_nrfx_saadc.c.obj)
 .debug_info    0x000dab7f     0x2e0b zephyr/drivers/gpio/libdrivers__gpio.a(gpio_nrfx.c.obj)
 .debug_info    0x000dd98a     0x22f9 zephyr/drivers/pwm/libdrivers__pwm.a(pwm_nrfx.c.obj)
 .debug_info    0x000dfc83     0x2375 zephyr/drivers/sensor/qdec_nrfx/libdrivers__sensor__qdec_nrfx.a(qdec_nrfx.c.obj)
 .debug_info    0x000e1ff8     0x1c39 zephyr/drivers/sensor/nrf5/libdrivers__sensor__nrf5.a(temp_nrf5.c.obj)
 .debug_info    0x000e3c31     0x3247 zephyr/drivers/spi/libdrivers__spi.a(spi_nrfx_spim.c.obj)
 .debug_info    0x000e6e78     0x10e5 zephyr/drivers/flash/libdrivers__flash.a(flash_page_layout.c.obj)
 .debug_info    0x000e7f5d     0x1a6e zephyr/drivers/flash/libdrivers__flash.a(flash_ll_nrfxlib.c.obj)
 .debug_info    0x000e99cb     0x12d3 zephyr/drivers/entropy/libdrivers__entropy.a(entropy_ll_nrfxlib.c.obj)
 .debug_info    0x000eac9e      0x9ee zephyr/modules/nrf/lib/multithreading_lock/lib..__nrf__lib__multithreading_lock.a(multithreading_lock.c.obj)
 .debug_info    0x000eb68c     0x2d78 zephyr/modules/nrf/subsys/bluetooth/controller/lib..__nrf__subsys__bluetooth__controller.a(hci_driver.c.obj)
 .debug_info    0x000ee404      0xfa5 zephyr/modules/nrf/subsys/bluetooth/controller/lib..__nrf__subsys__bluetooth__controller.a(crypto.c.obj)
 .debug_info    0x000ef3a9     0x45c5 zephyr/modules/nrf/drivers/sensor/pmw3360/lib..__nrf__drivers__sensor__pmw3360.a(pmw3360.c.obj)
 .debug_info    0x000f396e       0xbc zephyr/modules/nrf/drivers/sensor/pmw3360/lib..__nrf__drivers__sensor__pmw3360.a(pmw3360_priv.c.obj)
 .debug_info    0x000f3a2a     0x1b0f zephyr/modules/nrf/drivers/clock_control/lib..__nrf__drivers__clock_control.a(clock_control_nrfxlib.c.obj)
 .debug_info    0x000f5539      0xead zephyr/modules/nrf/drivers/hw_cc310/lib..__nrf__drivers__hw_cc310.a(hw_cc310.c.obj)
 .debug_info    0x000f63e6     0x109f zephyr/modules/nordic/lib..__modules__hal__nordic.a(system_nrf52840.c.obj)
 .debug_info    0x000f7485      0x8ce zephyr/modules/nordic/lib..__modules__hal__nordic.a(nrfx_glue.c.obj)
 .debug_info    0x000f7d53     0x1795 zephyr/modules/nordic/lib..__modules__hal__nordic.a(nrfx_nvmc.c.obj)
 .debug_info    0x000f94e8     0x2186 zephyr/modules/nordic/lib..__modules__hal__nordic.a(nrfx_pwm.c.obj)
 .debug_info    0x000fb66e     0x15df zephyr/modules/nordic/lib..__modules__hal__nordic.a(nrfx_qdec.c.obj)
 .debug_info    0x000fcc4d     0x2223 zephyr/modules/nordic/lib..__modules__hal__nordic.a(nrfx_spim.c.obj)
 .debug_info    0x000fee70      0x5be zephyr/modules/nordic/lib..__modules__hal__nordic.a(nrfx_systick.c.obj)
 .debug_info    0x000ff42e     0x5e0b zephyr/modules/nordic/lib..__modules__hal__nordic.a(nrfx_usbd.c.obj)
 .debug_info    0x00105239      0xc73 zephyr/modules/nordic/lib..__modules__hal__nordic.a(nrfx_wdt.c.obj)
 .debug_info    0x00105eac     0x1078 zephyr/kernel/libkernel.a(device.c.obj)
 .debug_info    0x00106f24      0x8bc zephyr/kernel/libkernel.a(errno.c.obj)
 .debug_info    0x001077e0     0x1285 zephyr/kernel/libkernel.a(fatal.c.obj)
 .debug_info    0x00108a65      0xaa5 zephyr/kernel/libkernel.a(idle.c.obj)
 .debug_info    0x0010950a     0x22d9 zephyr/kernel/libkernel.a(init.c.obj)
 .debug_info    0x0010b7e3     0x1410 zephyr/kernel/libkernel.a(mem_slab.c.obj)
 .debug_info    0x0010cbf3     0x164e zephyr/kernel/libkernel.a(mempool.c.obj)
 .debug_info    0x0010e241     0x11f3 zephyr/kernel/libkernel.a(mutex.c.obj)
 .debug_info    0x0010f434     0x1ee6 zephyr/kernel/libkernel.a(queue.c.obj)
 .debug_info    0x0011131a     0x3e98 zephyr/kernel/libkernel.a(sched.c.obj)
 .debug_info    0x001151b2      0xf47 zephyr/kernel/libkernel.a(sem.c.obj)
 .debug_info    0x001160f9      0xdc3 zephyr/kernel/libkernel.a(system_work_q.c.obj)
 .debug_info    0x00116ebc     0x1c2d zephyr/kernel/libkernel.a(thread.c.obj)
 .debug_info    0x00118ae9     0x17e5 zephyr/kernel/libkernel.a(work_q.c.obj)
 .debug_info    0x0011a2ce     0x18a9 zephyr/kernel/libkernel.a(timeout.c.obj)
 .debug_info    0x0011bb77     0x12fe zephyr/kernel/libkernel.a(timer.c.obj)
 .debug_info    0x0011ce75     0x3546 zephyr/kernel/libkernel.a(poll.c.obj)
 .debug_info    0x001203bb      0x86c zephyr/CMakeFiles/offsets.dir/arch/arm/core/offsets/offsets.c.obj

.debug_abbrev   0x00000000    0x24dfc
 *(SORT_BY_ALIGNMENT(.debug_abbrev))
 .debug_abbrev  0x00000000      0x326 app/libapp.a(main.c.obj)
 .debug_abbrev  0x00000326       0x82 app/libapp.a(hid_report_desc.c.obj)
 .debug_abbrev  0x000003a8      0x33b app/libapp.a(battery_event.c.obj)
 .debug_abbrev  0x000006e3      0x39e app/libapp.a(ble_event.c.obj)
 .debug_abbrev  0x00000a81      0x32c app/libapp.a(button_event.c.obj)
 .debug_abbrev  0x00000dad      0x32c app/libapp.a(click_event.c.obj)
 .debug_abbrev  0x000010d9      0x32c app/libapp.a(selector_event.c.obj)
 .debug_abbrev  0x00001405      0x360 app/libapp.a(hid_event.c.obj)
 .debug_abbrev  0x00001765      0x2cf app/libapp.a(led_event.c.obj)
 .debug_abbrev  0x00001a34      0x337 app/libapp.a(config_event.c.obj)
 .debug_abbrev  0x00001d6b      0x2e3 app/libapp.a(module_state_event.c.obj)
 .debug_abbrev  0x0000204e      0x32c app/libapp.a(motion_event.c.obj)
 .debug_abbrev  0x0000237a      0x214 app/libapp.a(power_event.c.obj)
 .debug_abbrev  0x0000258e      0x2d4 app/libapp.a(wheel_event.c.obj)
 .debug_abbrev  0x00002862      0x2e3 app/libapp.a(usb_event.c.obj)
 .debug_abbrev  0x00002b45      0x320 app/libapp.a(hids_event.c.obj)
 .debug_abbrev  0x00002e65      0x45b app/libapp.a(board.c.obj)
 .debug_abbrev  0x000032c0      0x59c app/libapp.a(motion_sensor.c.obj)
 .debug_abbrev  0x0000385c      0x5ee app/libapp.a(buttons.c.obj)
 .debug_abbrev  0x00003e4a      0x3f6 app/libapp.a(click_detector.c.obj)
 .debug_abbrev  0x00004240      0x5c2 app/libapp.a(selector_hw.c.obj)
 .debug_abbrev  0x00004802      0x590 app/libapp.a(wheel.c.obj)
 .debug_abbrev  0x00004d92      0x50d app/libapp.a(leds.c.obj)
 .debug_abbrev  0x0000529f      0x535 app/libapp.a(battery_charger.c.obj)
 .debug_abbrev  0x000057d4      0x558 app/libapp.a(battery_meas.c.obj)
 .debug_abbrev  0x00005d2c      0x58d app/libapp.a(ble_state.c.obj)
 .debug_abbrev  0x000062b9      0x5e8 app/libapp.a(ble_bond.c.obj)
 .debug_abbrev  0x000068a1      0x497 app/libapp.a(ble_latency.c.obj)
 .debug_abbrev  0x00006d38      0x5de app/libapp.a(ble_adv.c.obj)
 .debug_abbrev  0x00007316      0x4e6 app/libapp.a(config.c.obj)
 .debug_abbrev  0x000077fc      0x580 app/libapp.a(hid_state.c.obj)
 .debug_abbrev  0x00007d7c      0x5ac app/libapp.a(usb_state.c.obj)
 .debug_abbrev  0x00008328      0x3e3 app/libapp.a(led_state.c.obj)
 .debug_abbrev  0x0000870b      0x48f app/libapp.a(led_stream.c.obj)
 .debug_abbrev  0x00008b9a      0x557 app/libapp.a(power_manager.c.obj)
 .debug_abbrev  0x000090f1      0x46d app/libapp.a(watchdog.c.obj)
 .debug_abbrev  0x0000955e      0x496 app/libapp.a(bas.c.obj)
 .debug_abbrev  0x000099f4      0x2af app/libapp.a(dev_descr.c.obj)
 .debug_abbrev  0x00009ca3      0x5a8 app/libapp.a(hids.c.obj)
 .debug_abbrev  0x0000a24b      0x4a4 app/libapp.a(config_channel.c.obj)
 .debug_abbrev  0x0000a6ef       0xa7 zephyr/libzephyr.a(crc8_sw.c.obj)
 .debug_abbrev  0x0000a796       0x89 zephyr/libzephyr.a(dec.c.obj)
 .debug_abbrev  0x0000a81f      0x38f zephyr/libzephyr.a(fdtable.c.obj)
 .debug_abbrev  0x0000abae      0x184 zephyr/libzephyr.a(hex.c.obj)
 .debug_abbrev  0x0000ad32      0x467 zephyr/libzephyr.a(mempool.c.obj)
 .debug_abbrev  0x0000b199      0x21e zephyr/libzephyr.a(thread_entry.c.obj)
 .debug_abbrev  0x0000b3b7      0x37b zephyr/libzephyr.a(work_q.c.obj)
 .debug_abbrev  0x0000b732      0x4a7 zephyr/libzephyr.a(printk.c.obj)
 .debug_abbrev  0x0000bbd9       0x2c zephyr/libzephyr.a(configs.c.obj)
 .debug_abbrev  0x0000bc05       0xfd zephyr/libzephyr.a(utils.c.obj)
 .debug_abbrev  0x0000bd02      0x1f3 zephyr/libzephyr.a(ecc_dh.c.obj)
 .debug_abbrev  0x0000bef5      0x485 zephyr/libzephyr.a(ecc.c.obj)
 .debug_abbrev  0x0000c37a      0x19a zephyr/libzephyr.a(aes_encrypt.c.obj)
 .debug_abbrev  0x0000c514      0x21c zephyr/libzephyr.a(cmac_mode.c.obj)
 .debug_abbrev  0x0000c730      0x2a5 zephyr/libzephyr.a(dis.c.obj)
 .debug_abbrev  0x0000c9d5      0x2da zephyr/libzephyr.a(fcb_append.c.obj)
 .debug_abbrev  0x0000ccaf      0x34e zephyr/libzephyr.a(fcb.c.obj)
 .debug_abbrev  0x0000cffd      0x251 zephyr/libzephyr.a(fcb_elem_info.c.obj)
 .debug_abbrev  0x0000d24e      0x2df zephyr/libzephyr.a(fcb_getnext.c.obj)
 .debug_abbrev  0x0000d52d      0x251 zephyr/libzephyr.a(fcb_rotate.c.obj)
 .debug_abbrev  0x0000d77e      0x5d5 zephyr/libzephyr.a(usb_device.c.obj)
 .debug_abbrev  0x0000dd53      0x4ce zephyr/libzephyr.a(usb_descriptor.c.obj)
 .debug_abbrev  0x0000e221      0x410 zephyr/libzephyr.a(flash_map.c.obj)
 .debug_abbrev  0x0000e631      0x184 zephyr/libzephyr.a(flash_map_default.c.obj)
 .debug_abbrev  0x0000e7b5      0x372 zephyr/libzephyr.a(settings_store.c.obj)
 .debug_abbrev  0x0000eb27      0x479 zephyr/libzephyr.a(settings.c.obj)
 .debug_abbrev  0x0000efa0      0x24d zephyr/libzephyr.a(settings_init.c.obj)
 .debug_abbrev  0x0000f1ed      0x3d2 zephyr/libzephyr.a(settings_line.c.obj)
 .debug_abbrev  0x0000f5bf      0x45a zephyr/libzephyr.a(settings_fcb.c.obj)
 .debug_abbrev  0x0000fa19      0x436 zephyr/libzephyr.a(power.c.obj)
 .debug_abbrev  0x0000fe4f      0x31f zephyr/libzephyr.a(device.c.obj)
 .debug_abbrev  0x0001016e      0x214 zephyr/libzephyr.a(reboot.c.obj)
 .debug_abbrev  0x00010382      0x614 zephyr/libzephyr.a(usb_dc_nrfx.c.obj)
 .debug_abbrev  0x00010996      0x3cf zephyr/libzephyr.a(wdt_nrfx.c.obj)
 .debug_abbrev  0x00010d65      0x28e zephyr/libzephyr.a(sys_clock_init.c.obj)
 .debug_abbrev  0x00010ff3      0x46d zephyr/libzephyr.a(nrf_rtc_timer.c.obj)
 .debug_abbrev  0x00011460      0x4c5 zephyr/libzephyr.a(gatt_pool.c.obj)
 .debug_abbrev  0x00011925      0x386 zephyr/libzephyr.a(conn_ctx.c.obj)
 .debug_abbrev  0x00011cab      0x607 zephyr/libzephyr.a(hids.c.obj)
 .debug_abbrev  0x000122b2      0x46c zephyr/libzephyr.a(event_manager.c.obj)
 .debug_abbrev  0x0001271e      0x1f2 zephyr/libzephyr.a(nrf_cc310_platform_abort_zephyr.c.obj)
 .debug_abbrev  0x00012910      0x309 zephyr/libzephyr.a(nrf_cc310_platform_mutex_zephyr.c.obj)
 .debug_abbrev  0x00012c19       0xe5 zephyr/arch/common/libarch__common.a(isr_tables.c.obj)
 .debug_abbrev  0x00012cfe       0x14 zephyr/arch/arch/arm/core/libarch__arm__core.a(exc_exit.S.obj)
 .debug_abbrev  0x00012d12      0x1f3 zephyr/arch/arch/arm/core/libarch__arm__core.a(swap.c.obj)
 .debug_abbrev  0x00012f05       0x12 zephyr/arch/arch/arm/core/libarch__arm__core.a(swap_helper.S.obj)
 .debug_abbrev  0x00012f17      0x2df zephyr/arch/arch/arm/core/libarch__arm__core.a(irq_manage.c.obj)
 .debug_abbrev  0x000131f6      0x273 zephyr/arch/arch/arm/core/libarch__arm__core.a(thread.c.obj)
 .debug_abbrev  0x00013469       0x12 zephyr/arch/arch/arm/core/libarch__arm__core.a(cpu_idle.S.obj)
 .debug_abbrev  0x0001347b       0x14 zephyr/arch/arch/arm/core/libarch__arm__core.a(fault_s.S.obj)
 .debug_abbrev  0x0001348f      0x32d zephyr/arch/arch/arm/core/libarch__arm__core.a(fatal.c.obj)
 .debug_abbrev  0x000137bc      0x19f zephyr/arch/arch/arm/core/libarch__arm__core.a(nmi.c.obj)
 .debug_abbrev  0x0001395b       0x14 zephyr/arch/arch/arm/core/libarch__arm__core.a(nmi_on_reset.S.obj)
 .debug_abbrev  0x0001396f      0x208 zephyr/arch/arch/arm/core/libarch__arm__core.a(prep_c.c.obj)
 .debug_abbrev  0x00013b77       0x14 zephyr/arch/arch/arm/core/libarch__arm__core.a(isr_wrapper.S.obj)
 .debug_abbrev  0x00013b8b       0x14 zephyr/arch/arch/arm/core/cortex_m/libarch__arm__core__cortex_m.a(reset.S.obj)
 .debug_abbrev  0x00013b9f      0x3db zephyr/arch/arch/arm/core/cortex_m/libarch__arm__core__cortex_m.a(fault.c.obj)
 .debug_abbrev  0x00013f7a      0x1b7 zephyr/arch/arch/arm/core/cortex_m/libarch__arm__core__cortex_m.a(irq_init.c.obj)
 .debug_abbrev  0x00014131      0x257 zephyr/arch/arch/arm/core/cortex_m/libarch__arm__core__cortex_m.a(thread_abort.c.obj)
 .debug_abbrev  0x00014388      0x1d1 zephyr/arch/arch/arm/core/cortex_m/mpu/libarch__arm__core__cortex_m__mpu.a(arm_core_mpu.c.obj)
 .debug_abbrev  0x00014559      0x4ba zephyr/arch/arch/arm/core/cortex_m/mpu/libarch__arm__core__cortex_m__mpu.a(arm_mpu.c.obj)
 .debug_abbrev  0x00014a13      0x100 zephyr/lib/libc/minimal/liblib__libc__minimal.a(strtol.c.obj)
 .debug_abbrev  0x00014b13      0x1f8 zephyr/lib/libc/minimal/liblib__libc__minimal.a(string.c.obj)
 .debug_abbrev  0x00014d0b      0x2f3 zephyr/lib/libc/minimal/liblib__libc__minimal.a(prf.c.obj)
 .debug_abbrev  0x00014ffe      0x172 zephyr/lib/libc/minimal/liblib__libc__minimal.a(sprintf.c.obj)
 .debug_abbrev  0x00015170      0x406 zephyr/soc/arm/nordic_nrf/nrf52/libsoc__arm__nordic_nrf__nrf52.a(soc.c.obj)
 .debug_abbrev  0x00015576      0x2bc zephyr/soc/arm/nordic_nrf/nrf52/libsoc__arm__nordic_nrf__nrf52.a(power.c.obj)
 .debug_abbrev  0x00015832       0xe3 zephyr/soc/arm/nordic_nrf/nrf52/libsoc__arm__nordic_nrf__nrf52.a(mpu_regions.c.obj)
 .debug_abbrev  0x00015915      0x300 zephyr/subsys/bluetooth/common/libsubsys__bluetooth__common.a(rpa.c.obj)
 .debug_abbrev  0x00015c15      0x581 zephyr/subsys/bluetooth/host/libsubsys__bluetooth__host.a(hci_ecc.c.obj)
 .debug_abbrev  0x00016196      0x553 zephyr/subsys/bluetooth/host/libsubsys__bluetooth__host.a(settings.c.obj)
 .debug_abbrev  0x000166e9      0x21c zephyr/subsys/bluetooth/host/libsubsys__bluetooth__host.a(uuid.c.obj)
 .debug_abbrev  0x00016905      0x76b zephyr/subsys/bluetooth/host/libsubsys__bluetooth__host.a(hci_core.c.obj)
 .debug_abbrev  0x00017070      0x722 zephyr/subsys/bluetooth/host/libsubsys__bluetooth__host.a(conn.c.obj)
 .debug_abbrev  0x00017792      0x6bc zephyr/subsys/bluetooth/host/libsubsys__bluetooth__host.a(l2cap.c.obj)
 .debug_abbrev  0x00017e4e      0x694 zephyr/subsys/bluetooth/host/libsubsys__bluetooth__host.a(att.c.obj)
 .debug_abbrev  0x000184e2      0x721 zephyr/subsys/bluetooth/host/libsubsys__bluetooth__host.a(gatt.c.obj)
 .debug_abbrev  0x00018c03      0x6a2 zephyr/subsys/bluetooth/host/libsubsys__bluetooth__host.a(smp.c.obj)
 .debug_abbrev  0x000192a5      0x592 zephyr/subsys/bluetooth/host/libsubsys__bluetooth__host.a(keys.c.obj)
 .debug_abbrev  0x00019837      0x5ff zephyr/subsys/net/libsubsys__net.a(buf.c.obj)
 .debug_abbrev  0x00019e36      0x4f5 zephyr/subsys/usb/class/hid/libsubsys__usb__class__hid.a(core.c.obj)
 .debug_abbrev  0x0001a32b      0x393 zephyr/subsys/random/libsubsys__random.a(rand32_entropy_device.c.obj)
 .debug_abbrev  0x0001a6be      0x575 zephyr/drivers/adc/libdrivers__adc.a(adc_nrfx_saadc.c.obj)
 .debug_abbrev  0x0001ac33      0x59e zephyr/drivers/gpio/libdrivers__gpio.a(gpio_nrfx.c.obj)
 .debug_abbrev  0x0001b1d1      0x53d zephyr/drivers/pwm/libdrivers__pwm.a(pwm_nrfx.c.obj)
 .debug_abbrev  0x0001b70e      0x57e zephyr/drivers/sensor/qdec_nrfx/libdrivers__sensor__qdec_nrfx.a(qdec_nrfx.c.obj)
 .debug_abbrev  0x0001bc8c      0x48e zephyr/drivers/sensor/nrf5/libdrivers__sensor__nrf5.a(temp_nrf5.c.obj)
 .debug_abbrev  0x0001c11a      0x57a zephyr/drivers/spi/libdrivers__spi.a(spi_nrfx_spim.c.obj)
 .debug_abbrev  0x0001c694      0x28f zephyr/drivers/flash/libdrivers__flash.a(flash_page_layout.c.obj)
 .debug_abbrev  0x0001c923      0x490 zephyr/drivers/flash/libdrivers__flash.a(flash_ll_nrfxlib.c.obj)
 .debug_abbrev  0x0001cdb3      0x39c zephyr/drivers/entropy/libdrivers__entropy.a(entropy_ll_nrfxlib.c.obj)
 .debug_abbrev  0x0001d14f      0x258 zephyr/modules/nrf/lib/multithreading_lock/lib..__nrf__lib__multithreading_lock.a(multithreading_lock.c.obj)
 .debug_abbrev  0x0001d3a7      0x622 zephyr/modules/nrf/subsys/bluetooth/controller/lib..__nrf__subsys__bluetooth__controller.a(hci_driver.c.obj)
 .debug_abbrev  0x0001d9c9      0x319 zephyr/modules/nrf/subsys/bluetooth/controller/lib..__nrf__subsys__bluetooth__controller.a(crypto.c.obj)
 .debug_abbrev  0x0001dce2      0x552 zephyr/modules/nrf/drivers/sensor/pmw3360/lib..__nrf__drivers__sensor__pmw3360.a(pmw3360.c.obj)
 .debug_abbrev  0x0001e234       0x5d zephyr/modules/nrf/drivers/sensor/pmw3360/lib..__nrf__drivers__sensor__pmw3360.a(pmw3360_priv.c.obj)
 .debug_abbrev  0x0001e291      0x4b2 zephyr/modules/nrf/drivers/clock_control/lib..__nrf__drivers__clock_control.a(clock_control_nrfxlib.c.obj)
 .debug_abbrev  0x0001e743      0x25b zephyr/modules/nrf/drivers/hw_cc310/lib..__nrf__drivers__hw_cc310.a(hw_cc310.c.obj)
 .debug_abbrev  0x0001e99e      0x1d1 zephyr/modules/nordic/lib..__modules__hal__nordic.a(system_nrf52840.c.obj)
 .debug_abbrev  0x0001eb6f      0x1f4 zephyr/modules/nordic/lib..__modules__hal__nordic.a(nrfx_glue.c.obj)
 .debug_abbrev  0x0001ed63      0x455 zephyr/modules/nordic/lib..__modules__hal__nordic.a(nrfx_nvmc.c.obj)
 .debug_abbrev  0x0001f1b8      0x4bb zephyr/modules/nordic/lib..__modules__hal__nordic.a(nrfx_pwm.c.obj)
 .debug_abbrev  0x0001f673      0x33e zephyr/modules/nordic/lib..__modules__hal__nordic.a(nrfx_qdec.c.obj)
 .debug_abbrev  0x0001f9b1      0x368 zephyr/modules/nordic/lib..__modules__hal__nordic.a(nrfx_spim.c.obj)
 .debug_abbrev  0x0001fd19      0x2ad zephyr/modules/nordic/lib..__modules__hal__nordic.a(nrfx_systick.c.obj)
 .debug_abbrev  0x0001ffc6      0x651 zephyr/modules/nordic/lib..__modules__hal__nordic.a(nrfx_usbd.c.obj)
 .debug_abbrev  0x00020617      0x331 zephyr/modules/nordic/lib..__modules__hal__nordic.a(nrfx_wdt.c.obj)
 .debug_abbrev  0x00020948      0x363 zephyr/kernel/libkernel.a(device.c.obj)
 .debug_abbrev  0x00020cab      0x1a2 zephyr/kernel/libkernel.a(errno.c.obj)
 .debug_abbrev  0x00020e4d      0x34c zephyr/kernel/libkernel.a(fatal.c.obj)
 .debug_abbrev  0x00021199      0x2f4 zephyr/kernel/libkernel.a(idle.c.obj)
 .debug_abbrev  0x0002148d      0x5a7 zephyr/kernel/libkernel.a(init.c.obj)
 .debug_abbrev  0x00021a34      0x3cc zephyr/kernel/libkernel.a(mem_slab.c.obj)
 .debug_abbrev  0x00021e00      0x433 zephyr/kernel/libkernel.a(mempool.c.obj)
 .debug_abbrev  0x00022233      0x386 zephyr/kernel/libkernel.a(mutex.c.obj)
 .debug_abbrev  0x000225b9      0x4e3 zephyr/kernel/libkernel.a(queue.c.obj)
 .debug_abbrev  0x00022a9c      0x579 zephyr/kernel/libkernel.a(sched.c.obj)
 .debug_abbrev  0x00023015      0x345 zephyr/kernel/libkernel.a(sem.c.obj)
 .debug_abbrev  0x0002335a      0x2b0 zephyr/kernel/libkernel.a(system_work_q.c.obj)
 .debug_abbrev  0x0002360a      0x567 zephyr/kernel/libkernel.a(thread.c.obj)
 .debug_abbrev  0x00023b71      0x408 zephyr/kernel/libkernel.a(work_q.c.obj)
 .debug_abbrev  0x00023f79      0x3e5 zephyr/kernel/libkernel.a(timeout.c.obj)
 .debug_abbrev  0x0002435e      0x3ae zephyr/kernel/libkernel.a(timer.c.obj)
 .debug_abbrev  0x0002470c      0x560 zephyr/kernel/libkernel.a(poll.c.obj)
 .debug_abbrev  0x00024c6c      0x190 zephyr/CMakeFiles/offsets.dir/arch/arm/core/offsets/offsets.c.obj

.debug_line     0x00000000    0x3c0b5
 *(SORT_BY_ALIGNMENT(.debug_line) SORT_BY_ALIGNMENT(.debug_line.*) SORT_BY_ALIGNMENT(.debug_line_end))
 .debug_line    0x00000000      0x450 app/libapp.a(main.c.obj)
 .debug_line    0x00000450       0xfc app/libapp.a(hid_report_desc.c.obj)
 .debug_line    0x0000054c      0x403 app/libapp.a(battery_event.c.obj)
 .debug_line    0x0000094f      0x453 app/libapp.a(ble_event.c.obj)
 .debug_line    0x00000da2      0x3f4 app/libapp.a(button_event.c.obj)
 .debug_line    0x00001196      0x3f3 app/libapp.a(click_event.c.obj)
 .debug_line    0x00001589      0x3f8 app/libapp.a(selector_event.c.obj)
 .debug_line    0x00001981      0x4f7 app/libapp.a(hid_event.c.obj)
 .debug_line    0x00001e78      0x429 app/libapp.a(led_event.c.obj)
 .debug_line    0x000022a1      0x473 app/libapp.a(config_event.c.obj)
 .debug_line    0x00002714      0x3f0 app/libapp.a(module_state_event.c.obj)
 .debug_line    0x00002b04      0x3f3 app/libapp.a(motion_event.c.obj)
 .debug_line    0x00002ef7      0x3b2 app/libapp.a(power_event.c.obj)
 .debug_line    0x000032a9      0x3d8 app/libapp.a(wheel_event.c.obj)
 .debug_line    0x00003681      0x3df app/libapp.a(usb_event.c.obj)
 .debug_line    0x00003a60      0x49c app/libapp.a(hids_event.c.obj)
 .debug_line    0x00003efc      0x60e app/libapp.a(board.c.obj)
 .debug_line    0x0000450a      0xa35 app/libapp.a(motion_sensor.c.obj)
 .debug_line    0x00004f3f      0x946 app/libapp.a(buttons.c.obj)
 .debug_line    0x00005885      0x68a app/libapp.a(click_detector.c.obj)
 .debug_line    0x00005f0f      0x82f app/libapp.a(selector_hw.c.obj)
 .debug_line    0x0000673e      0x80a app/libapp.a(wheel.c.obj)
 .debug_line    0x00006f48      0x768 app/libapp.a(leds.c.obj)
 .debug_line    0x000076b0      0x772 app/libapp.a(battery_charger.c.obj)
 .debug_line    0x00007e22      0x7e5 app/libapp.a(battery_meas.c.obj)
 .debug_line    0x00008607      0x7f5 app/libapp.a(ble_state.c.obj)
 .debug_line    0x00008dfc      0xb97 app/libapp.a(ble_bond.c.obj)
 .debug_line    0x00009993      0x58e app/libapp.a(ble_latency.c.obj)
 .debug_line    0x00009f21      0x87c app/libapp.a(ble_adv.c.obj)
 .debug_line    0x0000a79d      0x62a app/libapp.a(config.c.obj)
 .debug_line    0x0000adc7      0xa4a app/libapp.a(hid_state.c.obj)
 .debug_line    0x0000b811      0x7f5 app/libapp.a(usb_state.c.obj)
 .debug_line    0x0000c006      0x5d6 app/libapp.a(led_state.c.obj)
 .debug_line    0x0000c5dc      0x63e app/libapp.a(led_stream.c.obj)
 .debug_line    0x0000cc1a      0x6f2 app/libapp.a(power_manager.c.obj)
 .debug_line    0x0000d30c      0x574 app/libapp.a(watchdog.c.obj)
 .debug_line    0x0000d880      0x551 app/libapp.a(bas.c.obj)
 .debug_line    0x0000ddd1      0x3d7 app/libapp.a(dev_descr.c.obj)
 .debug_line    0x0000e1a8      0x891 app/libapp.a(hids.c.obj)
 .debug_line    0x0000ea39      0x74e app/libapp.a(config_channel.c.obj)
 .debug_line    0x0000f187      0x112 zephyr/libzephyr.a(crc8_sw.c.obj)
 .debug_line    0x0000f299       0xba zephyr/libzephyr.a(dec.c.obj)
 .debug_line    0x0000f353      0x4a8 zephyr/libzephyr.a(fdtable.c.obj)
 .debug_line    0x0000f7fb      0x198 zephyr/libzephyr.a(hex.c.obj)
 .debug_line    0x0000f993      0x6f6 zephyr/libzephyr.a(mempool.c.obj)
 .debug_line    0x00010089      0x361 zephyr/libzephyr.a(thread_entry.c.obj)
 .debug_line    0x000103ea      0x3cf zephyr/libzephyr.a(work_q.c.obj)
 .debug_line    0x000107b9      0x599 zephyr/libzephyr.a(printk.c.obj)
 .debug_line    0x00010d52      0x267 zephyr/libzephyr.a(configs.c.obj)
 .debug_line    0x00010fb9      0x173 zephyr/libzephyr.a(utils.c.obj)
 .debug_line    0x0001112c      0x1bb zephyr/libzephyr.a(ecc_dh.c.obj)
 .debug_line    0x000112e7      0xc72 zephyr/libzephyr.a(ecc.c.obj)
 .debug_line    0x00011f59      0x28d zephyr/libzephyr.a(aes_encrypt.c.obj)
 .debug_line    0x000121e6      0x2b2 zephyr/libzephyr.a(cmac_mode.c.obj)
 .debug_line    0x00012498      0x467 zephyr/libzephyr.a(dis.c.obj)
 .debug_line    0x000128ff      0x4cc zephyr/libzephyr.a(fcb_append.c.obj)
 .debug_line    0x00012dcb      0x5f4 zephyr/libzephyr.a(fcb.c.obj)
 .debug_line    0x000133bf      0x431 zephyr/libzephyr.a(fcb_elem_info.c.obj)
 .debug_line    0x000137f0      0x4a6 zephyr/libzephyr.a(fcb_getnext.c.obj)
 .debug_line    0x00013c96      0x41d zephyr/libzephyr.a(fcb_rotate.c.obj)
 .debug_line    0x000140b3      0xaeb zephyr/libzephyr.a(usb_device.c.obj)
 .debug_line    0x00014b9e      0x5fa zephyr/libzephyr.a(usb_descriptor.c.obj)
 .debug_line    0x00015198      0x640 zephyr/libzephyr.a(flash_map.c.obj)
 .debug_line    0x000157d8      0x388 zephyr/libzephyr.a(flash_map_default.c.obj)
 .debug_line    0x00015b60      0x5b4 zephyr/libzephyr.a(settings_store.c.obj)
 .debug_line    0x00016114      0x68d zephyr/libzephyr.a(settings.c.obj)
 .debug_line    0x000167a1      0x48a zephyr/libzephyr.a(settings_init.c.obj)
 .debug_line    0x00016c2b      0x43a zephyr/libzephyr.a(settings_line.c.obj)
 .debug_line    0x00017065      0x5e6 zephyr/libzephyr.a(settings_fcb.c.obj)
 .debug_line    0x0001764b      0x496 zephyr/libzephyr.a(power.c.obj)
 .debug_line    0x00017ae1      0x487 zephyr/libzephyr.a(device.c.obj)
 .debug_line    0x00017f68      0x35c zephyr/libzephyr.a(reboot.c.obj)
 .debug_line    0x000182c4     0x10ad zephyr/libzephyr.a(usb_dc_nrfx.c.obj)
 .debug_line    0x00019371      0x55f zephyr/libzephyr.a(wdt_nrfx.c.obj)
 .debug_line    0x000198d0      0x373 zephyr/libzephyr.a(sys_clock_init.c.obj)
 .debug_line    0x00019c43      0x682 zephyr/libzephyr.a(nrf_rtc_timer.c.obj)
 .debug_line    0x0001a2c5      0x656 zephyr/libzephyr.a(gatt_pool.c.obj)
 .debug_line    0x0001a91b      0x553 zephyr/libzephyr.a(conn_ctx.c.obj)
 .debug_line    0x0001ae6e      0xa44 zephyr/libzephyr.a(hids.c.obj)
 .debug_line    0x0001b8b2      0x4bb zephyr/libzephyr.a(event_manager.c.obj)
 .debug_line    0x0001bd6d      0x3d0 zephyr/libzephyr.a(nrf_cc310_platform_abort_zephyr.c.obj)
 .debug_line    0x0001c13d      0x49f zephyr/libzephyr.a(nrf_cc310_platform_mutex_zephyr.c.obj)
 .debug_line    0x0001c5dc      0x1d7 zephyr/arch/common/libarch__common.a(isr_tables.c.obj)
 .debug_line    0x0001c7b3       0x6d zephyr/arch/arch/arm/core/libarch__arm__core.a(exc_exit.S.obj)
 .debug_line    0x0001c820      0x3aa zephyr/arch/arch/arm/core/libarch__arm__core.a(swap.c.obj)
 .debug_line    0x0001cbca       0xb3 zephyr/arch/arch/arm/core/libarch__arm__core.a(swap_helper.S.obj)
 .debug_line    0x0001cc7d      0x3c8 zephyr/arch/arch/arm/core/libarch__arm__core.a(irq_manage.c.obj)
 .debug_line    0x0001d045      0x42d zephyr/arch/arch/arm/core/libarch__arm__core.a(thread.c.obj)
 .debug_line    0x0001d472       0x8b zephyr/arch/arch/arm/core/libarch__arm__core.a(cpu_idle.S.obj)
 .debug_line    0x0001d4fd       0x63 zephyr/arch/arch/arm/core/libarch__arm__core.a(fault_s.S.obj)
 .debug_line    0x0001d560      0x3bb zephyr/arch/arch/arm/core/libarch__arm__core.a(fatal.c.obj)
 .debug_line    0x0001d91b      0x31c zephyr/arch/arch/arm/core/libarch__arm__core.a(nmi.c.obj)
 .debug_line    0x0001dc37       0x61 zephyr/arch/arch/arm/core/libarch__arm__core.a(nmi_on_reset.S.obj)
 .debug_line    0x0001dc98      0x3e6 zephyr/arch/arch/arm/core/libarch__arm__core.a(prep_c.c.obj)
 .debug_line    0x0001e07e       0x8a zephyr/arch/arch/arm/core/libarch__arm__core.a(isr_wrapper.S.obj)
 .debug_line    0x0001e108       0x73 zephyr/arch/arch/arm/core/cortex_m/libarch__arm__core__cortex_m.a(reset.S.obj)
 .debug_line    0x0001e17b      0x512 zephyr/arch/arch/arm/core/cortex_m/libarch__arm__core__cortex_m.a(fault.c.obj)
 .debug_line    0x0001e68d      0x235 zephyr/arch/arch/arm/core/cortex_m/libarch__arm__core__cortex_m.a(irq_init.c.obj)
 .debug_line    0x0001e8c2      0x3d4 zephyr/arch/arch/arm/core/cortex_m/libarch__arm__core__cortex_m.a(thread_abort.c.obj)
 .debug_line    0x0001ec96      0x3e0 zephyr/arch/arch/arm/core/cortex_m/mpu/libarch__arm__core__cortex_m__mpu.a(arm_core_mpu.c.obj)
 .debug_line    0x0001f076      0x5c4 zephyr/arch/arch/arm/core/cortex_m/mpu/libarch__arm__core__cortex_m__mpu.a(arm_mpu.c.obj)
 .debug_line    0x0001f63a      0x1a3 zephyr/lib/libc/minimal/liblib__libc__minimal.a(strtol.c.obj)
 .debug_line    0x0001f7dd      0x34c zephyr/lib/libc/minimal/liblib__libc__minimal.a(string.c.obj)
 .debug_line    0x0001fb29      0x631 zephyr/lib/libc/minimal/liblib__libc__minimal.a(prf.c.obj)
 .debug_line    0x0002015a      0x1a1 zephyr/lib/libc/minimal/liblib__libc__minimal.a(sprintf.c.obj)
 .debug_line    0x000202fb      0x49f zephyr/soc/arm/nordic_nrf/nrf52/libsoc__arm__nordic_nrf__nrf52.a(soc.c.obj)
 .debug_line    0x0002079a      0x43d zephyr/soc/arm/nordic_nrf/nrf52/libsoc__arm__nordic_nrf__nrf52.a(power.c.obj)
 .debug_line    0x00020bd7      0x1e5 zephyr/soc/arm/nordic_nrf/nrf52/libsoc__arm__nordic_nrf__nrf52.a(mpu_regions.c.obj)
 .debug_line    0x00020dbc      0x425 zephyr/subsys/bluetooth/common/libsubsys__bluetooth__common.a(rpa.c.obj)
 .debug_line    0x000211e1      0x714 zephyr/subsys/bluetooth/host/libsubsys__bluetooth__host.a(hci_ecc.c.obj)
 .debug_line    0x000218f5      0x5c9 zephyr/subsys/bluetooth/host/libsubsys__bluetooth__host.a(settings.c.obj)
 .debug_line    0x00021ebe      0x1dc zephyr/subsys/bluetooth/host/libsubsys__bluetooth__host.a(uuid.c.obj)
 .debug_line    0x0002209a     0x1ade zephyr/subsys/bluetooth/host/libsubsys__bluetooth__host.a(hci_core.c.obj)
 .debug_line    0x00023b78      0xf98 zephyr/subsys/bluetooth/host/libsubsys__bluetooth__host.a(conn.c.obj)
 .debug_line    0x00024b10      0x8b2 zephyr/subsys/bluetooth/host/libsubsys__bluetooth__host.a(l2cap.c.obj)
 .debug_line    0x000253c2     0x1076 zephyr/subsys/bluetooth/host/libsubsys__bluetooth__host.a(att.c.obj)
 .debug_line    0x00026438     0x16e2 zephyr/subsys/bluetooth/host/libsubsys__bluetooth__host.a(gatt.c.obj)
 .debug_line    0x00027b1a     0x17dc zephyr/subsys/bluetooth/host/libsubsys__bluetooth__host.a(smp.c.obj)
 .debug_line    0x000292f6      0x76e zephyr/subsys/bluetooth/host/libsubsys__bluetooth__host.a(keys.c.obj)
 .debug_line    0x00029a64      0xbf0 zephyr/subsys/net/libsubsys__net.a(buf.c.obj)
 .debug_line    0x0002a654      0x672 zephyr/subsys/usb/class/hid/libsubsys__usb__class__hid.a(core.c.obj)
 .debug_line    0x0002acc6      0x44d zephyr/subsys/random/libsubsys__random.a(rand32_entropy_device.c.obj)
 .debug_line    0x0002b113      0x87b zephyr/drivers/adc/libdrivers__adc.a(adc_nrfx_saadc.c.obj)
 .debug_line    0x0002b98e      0x91b zephyr/drivers/gpio/libdrivers__gpio.a(gpio_nrfx.c.obj)
 .debug_line    0x0002c2a9      0x606 zephyr/drivers/pwm/libdrivers__pwm.a(pwm_nrfx.c.obj)
 .debug_line    0x0002c8af      0x65f zephyr/drivers/sensor/qdec_nrfx/libdrivers__sensor__qdec_nrfx.a(qdec_nrfx.c.obj)
 .debug_line    0x0002cf0e      0x56b zephyr/drivers/sensor/nrf5/libdrivers__sensor__nrf5.a(temp_nrf5.c.obj)
 .debug_line    0x0002d479      0x8b4 zephyr/drivers/spi/libdrivers__spi.a(spi_nrfx_spim.c.obj)
 .debug_line    0x0002dd2d      0x473 zephyr/drivers/flash/libdrivers__flash.a(flash_page_layout.c.obj)
 .debug_line    0x0002e1a0      0x664 zephyr/drivers/flash/libdrivers__flash.a(flash_ll_nrfxlib.c.obj)
 .debug_line    0x0002e804      0x4de zephyr/drivers/entropy/libdrivers__entropy.a(entropy_ll_nrfxlib.c.obj)
 .debug_line    0x0002ece2      0x372 zephyr/modules/nrf/lib/multithreading_lock/lib..__nrf__lib__multithreading_lock.a(multithreading_lock.c.obj)
 .debug_line    0x0002f054      0x752 zephyr/modules/nrf/subsys/bluetooth/controller/lib..__nrf__subsys__bluetooth__controller.a(hci_driver.c.obj)
 .debug_line    0x0002f7a6      0x515 zephyr/modules/nrf/subsys/bluetooth/controller/lib..__nrf__subsys__bluetooth__controller.a(crypto.c.obj)
 .debug_line    0x0002fcbb      0x98b zephyr/modules/nrf/drivers/sensor/pmw3360/lib..__nrf__drivers__sensor__pmw3360.a(pmw3360.c.obj)
 .debug_line    0x00030646       0xf4 zephyr/modules/nrf/drivers/sensor/pmw3360/lib..__nrf__drivers__sensor__pmw3360.a(pmw3360_priv.c.obj)
 .debug_line    0x0003073a      0x5ef zephyr/modules/nrf/drivers/clock_control/lib..__nrf__drivers__clock_control.a(clock_control_nrfxlib.c.obj)
 .debug_line    0x00030d29      0x3bd zephyr/modules/nrf/drivers/hw_cc310/lib..__nrf__drivers__hw_cc310.a(hw_cc310.c.obj)
 .debug_line    0x000310e6      0x207 zephyr/modules/nordic/lib..__modules__hal__nordic.a(system_nrf52840.c.obj)
 .debug_line    0x000312ed      0x376 zephyr/modules/nordic/lib..__modules__hal__nordic.a(nrfx_glue.c.obj)
 .debug_line    0x00031663      0x5d7 zephyr/modules/nordic/lib..__modules__hal__nordic.a(nrfx_nvmc.c.obj)
 .debug_line    0x00031c3a      0x6be zephyr/modules/nordic/lib..__modules__hal__nordic.a(nrfx_pwm.c.obj)
 .debug_line    0x000322f8      0x5a5 zephyr/modules/nordic/lib..__modules__hal__nordic.a(nrfx_qdec.c.obj)
 .debug_line    0x0003289d      0x776 zephyr/modules/nordic/lib..__modules__hal__nordic.a(nrfx_spim.c.obj)
 .debug_line    0x00033013      0x396 zephyr/modules/nordic/lib..__modules__hal__nordic.a(nrfx_systick.c.obj)
 .debug_line    0x000333a9     0x1c48 zephyr/modules/nordic/lib..__modules__hal__nordic.a(nrfx_usbd.c.obj)
 .debug_line    0x00034ff1      0x451 zephyr/modules/nordic/lib..__modules__hal__nordic.a(nrfx_wdt.c.obj)
 .debug_line    0x00035442      0x44d zephyr/kernel/libkernel.a(device.c.obj)
 .debug_line    0x0003588f      0x341 zephyr/kernel/libkernel.a(errno.c.obj)
 .debug_line    0x00035bd0      0x4c1 zephyr/kernel/libkernel.a(fatal.c.obj)
 .debug_line    0x00036091      0x41d zephyr/kernel/libkernel.a(idle.c.obj)
 .debug_line    0x000364ae      0x750 zephyr/kernel/libkernel.a(init.c.obj)
 .debug_line    0x00036bfe      0x4da zephyr/kernel/libkernel.a(mem_slab.c.obj)
 .debug_line    0x000370d8      0x55b zephyr/kernel/libkernel.a(mempool.c.obj)
 .debug_line    0x00037633      0x523 zephyr/kernel/libkernel.a(mutex.c.obj)
 .debug_line    0x00037b56      0x648 zephyr/kernel/libkernel.a(queue.c.obj)
 .debug_line    0x0003819e      0xeeb zephyr/kernel/libkernel.a(sched.c.obj)
 .debug_line    0x00039089      0x486 zephyr/kernel/libkernel.a(sem.c.obj)
 .debug_line    0x0003950f      0x366 zephyr/kernel/libkernel.a(system_work_q.c.obj)
 .debug_line    0x00039875      0x79b zephyr/kernel/libkernel.a(thread.c.obj)
 .debug_line    0x0003a010      0x50f zephyr/kernel/libkernel.a(work_q.c.obj)
 .debug_line    0x0003a51f      0x717 zephyr/kernel/libkernel.a(timeout.c.obj)
 .debug_line    0x0003ac36      0x528 zephyr/kernel/libkernel.a(timer.c.obj)
 .debug_line    0x0003b15e      0xb93 zephyr/kernel/libkernel.a(poll.c.obj)
 .debug_line    0x0003bcf1      0x3c4 zephyr/CMakeFiles/offsets.dir/arch/arm/core/offsets/offsets.c.obj

.debug_frame    0x00000000     0xabcc
 *(SORT_BY_ALIGNMENT(.debug_frame))
 .debug_frame   0x00000000       0x38 app/libapp.a(main.c.obj)
 .debug_frame   0x00000038       0x68 app/libapp.a(battery_event.c.obj)
 .debug_frame   0x000000a0       0x9c app/libapp.a(ble_event.c.obj)
 .debug_frame   0x0000013c       0x44 app/libapp.a(button_event.c.obj)
 .debug_frame   0x00000180       0x40 app/libapp.a(click_event.c.obj)
 .debug_frame   0x000001c0       0x40 app/libapp.a(selector_event.c.obj)
 .debug_frame   0x00000200      0x140 app/libapp.a(hid_event.c.obj)
 .debug_frame   0x00000340       0x50 app/libapp.a(led_event.c.obj)
 .debug_frame   0x00000390       0x94 app/libapp.a(config_event.c.obj)
 .debug_frame   0x00000424       0x30 app/libapp.a(module_state_event.c.obj)
 .debug_frame   0x00000454       0x40 app/libapp.a(motion_event.c.obj)
 .debug_frame   0x00000494       0x2c app/libapp.a(wheel_event.c.obj)
 .debug_frame   0x000004c0       0x30 app/libapp.a(usb_event.c.obj)
 .debug_frame   0x000004f0       0x30 app/libapp.a(hids_event.c.obj)
 .debug_frame   0x00000520       0x80 app/libapp.a(board.c.obj)
 .debug_frame   0x000005a0       0x9c app/libapp.a(motion_sensor.c.obj)
 .debug_frame   0x0000063c      0x11c app/libapp.a(buttons.c.obj)
 .debug_frame   0x00000758       0x58 app/libapp.a(click_detector.c.obj)
 .debug_frame   0x000007b0      0x13c app/libapp.a(selector_hw.c.obj)
 .debug_frame   0x000008ec       0xdc app/libapp.a(wheel.c.obj)
 .debug_frame   0x000009c8       0xb8 app/libapp.a(leds.c.obj)
 .debug_frame   0x00000a80       0x98 app/libapp.a(battery_charger.c.obj)
 .debug_frame   0x00000b18       0x9c app/libapp.a(battery_meas.c.obj)
 .debug_frame   0x00000bb4      0x130 app/libapp.a(ble_state.c.obj)
 .debug_frame   0x00000ce4      0x244 app/libapp.a(ble_bond.c.obj)
 .debug_frame   0x00000f28       0xa0 app/libapp.a(ble_latency.c.obj)
 .debug_frame   0x00000fc8      0x114 app/libapp.a(ble_adv.c.obj)
 .debug_frame   0x000010dc       0x98 app/libapp.a(config.c.obj)
 .debug_frame   0x00001174      0x11c app/libapp.a(hid_state.c.obj)
 .debug_frame   0x00001290      0x110 app/libapp.a(usb_state.c.obj)
 .debug_frame   0x000013a0       0x70 app/libapp.a(led_state.c.obj)
 .debug_frame   0x00001410       0x78 app/libapp.a(led_stream.c.obj)
 .debug_frame   0x00001488       0x84 app/libapp.a(power_manager.c.obj)
 .debug_frame   0x0000150c       0x70 app/libapp.a(watchdog.c.obj)
 .debug_frame   0x0000157c       0x64 app/libapp.a(bas.c.obj)
 .debug_frame   0x000015e0       0x30 app/libapp.a(dev_descr.c.obj)
 .debug_frame   0x00001610      0x12c app/libapp.a(hids.c.obj)
 .debug_frame   0x0000173c      0x130 app/libapp.a(config_channel.c.obj)
 .debug_frame   0x0000186c       0x2c zephyr/libzephyr.a(crc8_sw.c.obj)
 .debug_frame   0x00001898       0x40 zephyr/libzephyr.a(dec.c.obj)
 .debug_frame   0x000018d8       0xc0 zephyr/libzephyr.a(fdtable.c.obj)
 .debug_frame   0x00001998       0x80 zephyr/libzephyr.a(hex.c.obj)
 .debug_frame   0x00001a18      0x114 zephyr/libzephyr.a(mempool.c.obj)
 .debug_frame   0x00001b2c       0x28 zephyr/libzephyr.a(thread_entry.c.obj)
 .debug_frame   0x00001b54       0x5c zephyr/libzephyr.a(work_q.c.obj)
 .debug_frame   0x00001bb0      0x1a4 zephyr/libzephyr.a(printk.c.obj)
 .debug_frame   0x00001d54       0x20 zephyr/libzephyr.a(configs.c.obj)
 .debug_frame   0x00001d74       0x64 zephyr/libzephyr.a(utils.c.obj)
 .debug_frame   0x00001dd8       0x90 zephyr/libzephyr.a(ecc_dh.c.obj)
 .debug_frame   0x00001e68      0x528 zephyr/libzephyr.a(ecc.c.obj)
 .debug_frame   0x00002390       0x90 zephyr/libzephyr.a(aes_encrypt.c.obj)
 .debug_frame   0x00002420       0xd0 zephyr/libzephyr.a(cmac_mode.c.obj)
 .debug_frame   0x000024f0       0x58 zephyr/libzephyr.a(dis.c.obj)
 .debug_frame   0x00002548       0x90 zephyr/libzephyr.a(fcb_append.c.obj)
 .debug_frame   0x000025d8      0x180 zephyr/libzephyr.a(fcb.c.obj)
 .debug_frame   0x00002758       0x68 zephyr/libzephyr.a(fcb_elem_info.c.obj)
 .debug_frame   0x000027c0       0x78 zephyr/libzephyr.a(fcb_getnext.c.obj)
 .debug_frame   0x00002838       0x30 zephyr/libzephyr.a(fcb_rotate.c.obj)
 .debug_frame   0x00002868      0x39c zephyr/libzephyr.a(usb_device.c.obj)
 .debug_frame   0x00002c04       0xcc zephyr/libzephyr.a(usb_descriptor.c.obj)
 .debug_frame   0x00002cd0      0x174 zephyr/libzephyr.a(flash_map.c.obj)
 .debug_frame   0x00002e44       0xe0 zephyr/libzephyr.a(settings_store.c.obj)
 .debug_frame   0x00002f24      0x11c zephyr/libzephyr.a(settings.c.obj)
 .debug_frame   0x00003040       0x4c zephyr/libzephyr.a(settings_init.c.obj)
 .debug_frame   0x0000308c      0x1d8 zephyr/libzephyr.a(settings_line.c.obj)
 .debug_frame   0x00003264      0x118 zephyr/libzephyr.a(settings_fcb.c.obj)
 .debug_frame   0x0000337c       0xa0 zephyr/libzephyr.a(power.c.obj)
 .debug_frame   0x0000341c       0xc8 zephyr/libzephyr.a(device.c.obj)
 .debug_frame   0x000034e4       0x28 zephyr/libzephyr.a(reboot.c.obj)
 .debug_frame   0x0000350c      0x364 zephyr/libzephyr.a(usb_dc_nrfx.c.obj)
 .debug_frame   0x00003870       0xc8 zephyr/libzephyr.a(wdt_nrfx.c.obj)
 .debug_frame   0x00003938       0x70 zephyr/libzephyr.a(sys_clock_init.c.obj)
 .debug_frame   0x000039a8       0x90 zephyr/libzephyr.a(nrf_rtc_timer.c.obj)
 .debug_frame   0x00003a38      0x14c zephyr/libzephyr.a(gatt_pool.c.obj)
 .debug_frame   0x00003b84       0xac zephyr/libzephyr.a(conn_ctx.c.obj)
 .debug_frame   0x00003c30      0x484 zephyr/libzephyr.a(hids.c.obj)
 .debug_frame   0x000040b4       0x64 zephyr/libzephyr.a(event_manager.c.obj)
 .debug_frame   0x00004118       0x30 zephyr/libzephyr.a(nrf_cc310_platform_abort_zephyr.c.obj)
 .debug_frame   0x00004148       0x98 zephyr/libzephyr.a(nrf_cc310_platform_mutex_zephyr.c.obj)
 .debug_frame   0x000041e0       0x2c zephyr/arch/arch/arm/core/libarch__arm__core.a(swap.c.obj)
 .debug_frame   0x0000420c       0x78 zephyr/arch/arch/arm/core/libarch__arm__core.a(irq_manage.c.obj)
 .debug_frame   0x00004284       0x58 zephyr/arch/arch/arm/core/libarch__arm__core.a(thread.c.obj)
 .debug_frame   0x000042dc       0x48 zephyr/arch/arch/arm/core/libarch__arm__core.a(fatal.c.obj)
 .debug_frame   0x00004324       0x2c zephyr/arch/arch/arm/core/libarch__arm__core.a(nmi.c.obj)
 .debug_frame   0x00004350       0x28 zephyr/arch/arch/arm/core/libarch__arm__core.a(prep_c.c.obj)
 .debug_frame   0x00004378       0x5c zephyr/arch/arch/arm/core/cortex_m/libarch__arm__core__cortex_m.a(fault.c.obj)
 .debug_frame   0x000043d4       0x20 zephyr/arch/arch/arm/core/cortex_m/libarch__arm__core__cortex_m.a(irq_init.c.obj)
 .debug_frame   0x000043f4       0x38 zephyr/arch/arch/arm/core/cortex_m/libarch__arm__core__cortex_m.a(thread_abort.c.obj)
 .debug_frame   0x0000442c       0x4c zephyr/arch/arch/arm/core/cortex_m/mpu/libarch__arm__core__cortex_m__mpu.a(arm_core_mpu.c.obj)
 .debug_frame   0x00004478       0xb8 zephyr/arch/arch/arm/core/cortex_m/mpu/libarch__arm__core__cortex_m__mpu.a(arm_mpu.c.obj)
 .debug_frame   0x00004530       0x40 zephyr/lib/libc/minimal/liblib__libc__minimal.a(strtol.c.obj)
 .debug_frame   0x00004570      0x1b0 zephyr/lib/libc/minimal/liblib__libc__minimal.a(string.c.obj)
 .debug_frame   0x00004720       0x60 zephyr/lib/libc/minimal/liblib__libc__minimal.a(prf.c.obj)
 .debug_frame   0x00004780       0xcc zephyr/lib/libc/minimal/liblib__libc__minimal.a(sprintf.c.obj)
 .debug_frame   0x0000484c       0x50 zephyr/soc/arm/nordic_nrf/nrf52/libsoc__arm__nordic_nrf__nrf52.a(soc.c.obj)
 .debug_frame   0x0000489c       0x30 zephyr/soc/arm/nordic_nrf/nrf52/libsoc__arm__nordic_nrf__nrf52.a(power.c.obj)
 .debug_frame   0x000048cc       0x48 zephyr/subsys/bluetooth/common/libsubsys__bluetooth__common.a(rpa.c.obj)
 .debug_frame   0x00004914       0xb8 zephyr/subsys/bluetooth/host/libsubsys__bluetooth__host.a(hci_ecc.c.obj)
 .debug_frame   0x000049cc       0xe4 zephyr/subsys/bluetooth/host/libsubsys__bluetooth__host.a(settings.c.obj)
 .debug_frame   0x00004ab0       0x8c zephyr/subsys/bluetooth/host/libsubsys__bluetooth__host.a(uuid.c.obj)
 .debug_frame   0x00004b3c      0xa90 zephyr/subsys/bluetooth/host/libsubsys__bluetooth__host.a(hci_core.c.obj)
 .debug_frame   0x000055cc      0x5b4 zephyr/subsys/bluetooth/host/libsubsys__bluetooth__host.a(conn.c.obj)
 .debug_frame   0x00005b80      0x27c zephyr/subsys/bluetooth/host/libsubsys__bluetooth__host.a(l2cap.c.obj)
 .debug_frame   0x00005dfc      0x6f0 zephyr/subsys/bluetooth/host/libsubsys__bluetooth__host.a(att.c.obj)
 .debug_frame   0x000064ec      0x9c4 zephyr/subsys/bluetooth/host/libsubsys__bluetooth__host.a(gatt.c.obj)
 .debug_frame   0x00006eb0      0x7dc zephyr/subsys/bluetooth/host/libsubsys__bluetooth__host.a(smp.c.obj)
 .debug_frame   0x0000768c      0x1d8 zephyr/subsys/bluetooth/host/libsubsys__bluetooth__host.a(keys.c.obj)
 .debug_frame   0x00007864      0x48c zephyr/subsys/net/libsubsys__net.a(buf.c.obj)
 .debug_frame   0x00007cf0      0x144 zephyr/subsys/usb/class/hid/libsubsys__usb__class__hid.a(core.c.obj)
 .debug_frame   0x00007e34       0x84 zephyr/subsys/random/libsubsys__random.a(rand32_entropy_device.c.obj)
 .debug_frame   0x00007eb8      0x104 zephyr/drivers/adc/libdrivers__adc.a(adc_nrfx_saadc.c.obj)
 .debug_frame   0x00007fbc      0x1c4 zephyr/drivers/gpio/libdrivers__gpio.a(gpio_nrfx.c.obj)
 .debug_frame   0x00008180       0xb8 zephyr/drivers/pwm/libdrivers__pwm.a(pwm_nrfx.c.obj)
 .debug_frame   0x00008238       0xe4 zephyr/drivers/sensor/qdec_nrfx/libdrivers__sensor__qdec_nrfx.a(qdec_nrfx.c.obj)
 .debug_frame   0x0000831c       0x8c zephyr/drivers/sensor/nrf5/libdrivers__sensor__nrf5.a(temp_nrf5.c.obj)
 .debug_frame   0x000083a8      0x10c zephyr/drivers/spi/libdrivers__spi.a(spi_nrfx_spim.c.obj)
 .debug_frame   0x000084b4       0xb4 zephyr/drivers/flash/libdrivers__flash.a(flash_page_layout.c.obj)
 .debug_frame   0x00008568       0xe4 zephyr/drivers/flash/libdrivers__flash.a(flash_ll_nrfxlib.c.obj)
 .debug_frame   0x0000864c       0x8c zephyr/drivers/entropy/libdrivers__entropy.a(entropy_ll_nrfxlib.c.obj)
 .debug_frame   0x000086d8       0x30 zephyr/modules/nrf/lib/multithreading_lock/lib..__nrf__lib__multithreading_lock.a(multithreading_lock.c.obj)
 .debug_frame   0x00008708      0x110 zephyr/modules/nrf/subsys/bluetooth/controller/lib..__nrf__subsys__bluetooth__controller.a(hci_driver.c.obj)
 .debug_frame   0x00008818       0x84 zephyr/modules/nrf/subsys/bluetooth/controller/lib..__nrf__subsys__bluetooth__controller.a(crypto.c.obj)
 .debug_frame   0x0000889c      0x228 zephyr/modules/nrf/drivers/sensor/pmw3360/lib..__nrf__drivers__sensor__pmw3360.a(pmw3360.c.obj)
 .debug_frame   0x00008ac4       0xd4 zephyr/modules/nrf/drivers/clock_control/lib..__nrf__drivers__clock_control.a(clock_control_nrfxlib.c.obj)
 .debug_frame   0x00008b98       0x2c zephyr/modules/nrf/drivers/hw_cc310/lib..__nrf__drivers__hw_cc310.a(hw_cc310.c.obj)
 .debug_frame   0x00008bc4       0x40 zephyr/modules/nordic/lib..__modules__hal__nordic.a(system_nrf52840.c.obj)
 .debug_frame   0x00008c04       0x30 zephyr/modules/nordic/lib..__modules__hal__nordic.a(nrfx_glue.c.obj)
 .debug_frame   0x00008c34      0x140 zephyr/modules/nordic/lib..__modules__hal__nordic.a(nrfx_nvmc.c.obj)
 .debug_frame   0x00008d74      0x170 zephyr/modules/nordic/lib..__modules__hal__nordic.a(nrfx_pwm.c.obj)
 .debug_frame   0x00008ee4       0xbc zephyr/modules/nordic/lib..__modules__hal__nordic.a(nrfx_qdec.c.obj)
 .debug_frame   0x00008fa0       0xf0 zephyr/modules/nordic/lib..__modules__hal__nordic.a(nrfx_spim.c.obj)
 .debug_frame   0x00009090       0x8c zephyr/modules/nordic/lib..__modules__hal__nordic.a(nrfx_systick.c.obj)
 .debug_frame   0x0000911c      0x7fc zephyr/modules/nordic/lib..__modules__hal__nordic.a(nrfx_usbd.c.obj)
 .debug_frame   0x00009918       0xb0 zephyr/modules/nordic/lib..__modules__hal__nordic.a(nrfx_wdt.c.obj)
 .debug_frame   0x000099c8       0xb4 zephyr/kernel/libkernel.a(device.c.obj)
 .debug_frame   0x00009a7c       0x20 zephyr/kernel/libkernel.a(errno.c.obj)
 .debug_frame   0x00009a9c       0x74 zephyr/kernel/libkernel.a(fatal.c.obj)
 .debug_frame   0x00009b10       0x48 zephyr/kernel/libkernel.a(idle.c.obj)
 .debug_frame   0x00009b58       0xac zephyr/kernel/libkernel.a(init.c.obj)
 .debug_frame   0x00009c04       0xa0 zephyr/kernel/libkernel.a(mem_slab.c.obj)
 .debug_frame   0x00009ca4      0x110 zephyr/kernel/libkernel.a(mempool.c.obj)
 .debug_frame   0x00009db4       0x70 zephyr/kernel/libkernel.a(mutex.c.obj)
 .debug_frame   0x00009e24      0x138 zephyr/kernel/libkernel.a(queue.c.obj)
 .debug_frame   0x00009f5c      0x4a4 zephyr/kernel/libkernel.a(sched.c.obj)
 .debug_frame   0x0000a400       0x74 zephyr/kernel/libkernel.a(sem.c.obj)
 .debug_frame   0x0000a474       0x28 zephyr/kernel/libkernel.a(system_work_q.c.obj)
 .debug_frame   0x0000a49c      0x240 zephyr/kernel/libkernel.a(thread.c.obj)
 .debug_frame   0x0000a6dc       0xd4 zephyr/kernel/libkernel.a(work_q.c.obj)
 .debug_frame   0x0000a7b0      0x128 zephyr/kernel/libkernel.a(timeout.c.obj)
 .debug_frame   0x0000a8d8       0xb4 zephyr/kernel/libkernel.a(timer.c.obj)
 .debug_frame   0x0000a98c      0x1c0 zephyr/kernel/libkernel.a(poll.c.obj)
 .debug_frame   0x0000ab4c       0x20 zephyr/CMakeFiles/offsets.dir/arch/arm/core/offsets/offsets.c.obj
 .debug_frame   0x0000ab6c       0x2c c:/program files (x86)/gnu tools arm embedded/7 2018-q2-update/bin/../lib/gcc/arm-none-eabi/7.3.1/thumb/v7e-m\libgcc.a(_aeabi_uldivmod.o)
 .debug_frame   0x0000ab98       0x34 c:/program files (x86)/gnu tools arm embedded/7 2018-q2-update/bin/../lib/gcc/arm-none-eabi/7.3.1/thumb/v7e-m\libgcc.a(_udivmoddi4.o)

.debug_str      0x00000000    0x2121e
 *(SORT_BY_ALIGNMENT(.debug_str))
 .debug_str     0x00000000      0xd09 app/libapp.a(main.c.obj)
                                0xf3a (size before relaxing)
 .debug_str     0x00000d09       0xea app/libapp.a(hid_report_desc.c.obj)
                                0x2e3 (size before relaxing)
 .debug_str     0x00000df3      0x5e5 app/libapp.a(battery_event.c.obj)
                               0x11e3 (size before relaxing)
 .debug_str     0x000013d8      0xc11 app/libapp.a(ble_event.c.obj)
                               0x18b9 (size before relaxing)
 .debug_str     0x00001fe9      0x251 app/libapp.a(button_event.c.obj)
                                0xe58 (size before relaxing)
 .debug_str     0x0000223a      0x27f app/libapp.a(click_event.c.obj)
                                0xe8a (size before relaxing)
 .debug_str     0x000024b9      0x281 app/libapp.a(selector_event.c.obj)
                                0xe82 (size before relaxing)
 .debug_str     0x0000273a     0x1116 app/libapp.a(hid_event.c.obj)
                               0x1df2 (size before relaxing)
 .debug_str     0x00003850      0x412 app/libapp.a(led_event.c.obj)
                               0x100d (size before relaxing)
 .debug_str     0x00003c62      0xe69 app/libapp.a(config_event.c.obj)
                               0x1a7b (size before relaxing)
 .debug_str     0x00004acb       0xe5 app/libapp.a(module_state_event.c.obj)
                                0xea4 (size before relaxing)
 .debug_str     0x00004bb0      0x24a app/libapp.a(motion_event.c.obj)
                                0xe4f (size before relaxing)
 .debug_str     0x00004dfa      0x3a6 app/libapp.a(power_event.c.obj)
                                0xf58 (size before relaxing)
 .debug_str     0x000051a0      0x1df app/libapp.a(wheel_event.c.obj)
                                0xdc7 (size before relaxing)
 .debug_str     0x0000537f      0x26b app/libapp.a(usb_event.c.obj)
                                0xe66 (size before relaxing)
 .debug_str     0x000055ea      0x367 app/libapp.a(hids_event.c.obj)
                               0x107b (size before relaxing)
 .debug_str     0x00005951      0x342 app/libapp.a(board.c.obj)
                               0x161e (size before relaxing)
 .debug_str     0x00005c93      0xc94 app/libapp.a(motion_sensor.c.obj)
                               0x354d (size before relaxing)
 .debug_str     0x00006927      0x36a app/libapp.a(buttons.c.obj)
                               0x19bb (size before relaxing)
 .debug_str     0x00006c91      0x287 app/libapp.a(click_detector.c.obj)
                               0x17e0 (size before relaxing)
 .debug_str     0x00006f18      0x23b app/libapp.a(selector_hw.c.obj)
                               0x19a5 (size before relaxing)
 .debug_str     0x00007153      0x1b2 app/libapp.a(wheel.c.obj)
                               0x1f54 (size before relaxing)
 .debug_str     0x00007305      0x256 app/libapp.a(leds.c.obj)
                               0x19fd (size before relaxing)
 .debug_str     0x0000755b      0x22e app/libapp.a(battery_charger.c.obj)
                               0x1d5b (size before relaxing)
 .debug_str     0x00007789      0x5e6 app/libapp.a(battery_meas.c.obj)
                               0x1ea3 (size before relaxing)
 .debug_str     0x00007d6f      0x6e9 app/libapp.a(ble_state.c.obj)
                               0x1e93 (size before relaxing)
 .debug_str     0x00008458      0x531 app/libapp.a(ble_bond.c.obj)
                               0x2a45 (size before relaxing)
 .debug_str     0x00008989      0x1f6 app/libapp.a(ble_latency.c.obj)
                               0x24a3 (size before relaxing)
 .debug_str     0x00008b7f      0x4a2 app/libapp.a(ble_adv.c.obj)
                               0x21a2 (size before relaxing)
 .debug_str     0x00009021      0x13e app/libapp.a(config.c.obj)
                               0x1a97 (size before relaxing)
 .debug_str     0x0000915f      0x73f app/libapp.a(hid_state.c.obj)
                               0x2e83 (size before relaxing)
 .debug_str     0x0000989e      0x726 app/libapp.a(usb_state.c.obj)
                               0x2dd2 (size before relaxing)
 .debug_str     0x00009fc4      0x3b0 app/libapp.a(led_state.c.obj)
                               0x2154 (size before relaxing)
 .debug_str     0x0000a374      0x266 app/libapp.a(led_stream.c.obj)
                               0x1e82 (size before relaxing)
 .debug_str     0x0000a5da      0xa17 app/libapp.a(power_manager.c.obj)
                               0x2ede (size before relaxing)
 .debug_str     0x0000aff1      0x1d1 app/libapp.a(watchdog.c.obj)
                               0x1347 (size before relaxing)
 .debug_str     0x0000b1c2      0x2b9 app/libapp.a(bas.c.obj)
                               0x1658 (size before relaxing)
 .debug_str     0x0000b47b       0x96 app/libapp.a(dev_descr.c.obj)
                                0xae2 (size before relaxing)
 .debug_str     0x0000b511      0x7b6 app/libapp.a(hids.c.obj)
                               0x384a (size before relaxing)
 .debug_str     0x0000bcc7      0x120 app/libapp.a(config_channel.c.obj)
                               0x1a07 (size before relaxing)
 .debug_str     0x0000bde7       0x47 zephyr/libzephyr.a(crc8_sw.c.obj)
                                0x240 (size before relaxing)
 .debug_str     0x0000be2e       0x3d zephyr/libzephyr.a(dec.c.obj)
                                0x248 (size before relaxing)
 .debug_str     0x0000be6b      0x10b zephyr/libzephyr.a(fdtable.c.obj)
                                0x92c (size before relaxing)
 .debug_str     0x0000bf76       0x4a zephyr/libzephyr.a(hex.c.obj)
                                0x24f (size before relaxing)
 .debug_str     0x0000bfc0      0x265 zephyr/libzephyr.a(mempool.c.obj)
                                0x9b3 (size before relaxing)
 .debug_str     0x0000c225       0x64 zephyr/libzephyr.a(thread_entry.c.obj)
                                0x703 (size before relaxing)
 .debug_str     0x0000c289       0xf4 zephyr/libzephyr.a(work_q.c.obj)
                                0x8d5 (size before relaxing)
 .debug_str     0x0000c37d      0x162 zephyr/libzephyr.a(printk.c.obj)
                                0x9f0 (size before relaxing)
 .debug_str     0x0000c4df       0x2f zephyr/libzephyr.a(configs.c.obj)
                                0x198 (size before relaxing)
 .debug_str     0x0000c50e       0x6a zephyr/libzephyr.a(utils.c.obj)
                                0x294 (size before relaxing)
 .debug_str     0x0000c578      0x1e0 zephyr/libzephyr.a(ecc_dh.c.obj)
                                0x43b (size before relaxing)
 .debug_str     0x0000c758      0x359 zephyr/libzephyr.a(ecc.c.obj)
                                0x75a (size before relaxing)
 .debug_str     0x0000cab1       0xe6 zephyr/libzephyr.a(aes_encrypt.c.obj)
                                0x2ff (size before relaxing)
 .debug_str     0x0000cb97      0x104 zephyr/libzephyr.a(cmac_mode.c.obj)
                                0x386 (size before relaxing)
 .debug_str     0x0000cc9b       0xb8 zephyr/libzephyr.a(dis.c.obj)
                                0xa48 (size before relaxing)
 .debug_str     0x0000cd53      0x1e2 zephyr/libzephyr.a(fcb_append.c.obj)
                                0x8d4 (size before relaxing)
 .debug_str     0x0000cf35      0x1b8 zephyr/libzephyr.a(fcb.c.obj)
                                0x9c1 (size before relaxing)
 .debug_str     0x0000d0ed       0x4f zephyr/libzephyr.a(fcb_elem_info.c.obj)
                                0x829 (size before relaxing)
 .debug_str     0x0000d13c       0x43 zephyr/libzephyr.a(fcb_getnext.c.obj)
                                0x87e (size before relaxing)
 .debug_str     0x0000d17f       0x2f zephyr/libzephyr.a(fcb_rotate.c.obj)
                                0x84d (size before relaxing)
 .debug_str     0x0000d1ae      0xa0a zephyr/libzephyr.a(usb_device.c.obj)
                               0x16ad (size before relaxing)
 .debug_str     0x0000dbb8      0x418 zephyr/libzephyr.a(usb_descriptor.c.obj)
                               0x1218 (size before relaxing)
 .debug_str     0x0000dfd0      0x2db zephyr/libzephyr.a(flash_map.c.obj)
                                0xc4c (size before relaxing)
 .debug_str     0x0000e2ab       0x53 zephyr/libzephyr.a(flash_map_default.c.obj)
                                0x828 (size before relaxing)
 .debug_str     0x0000e2fe      0x261 zephyr/libzephyr.a(settings_store.c.obj)
                                0xb6f (size before relaxing)
 .debug_str     0x0000e55f       0xc4 zephyr/libzephyr.a(settings.c.obj)
                                0xbca (size before relaxing)
 .debug_str     0x0000e623       0xf7 zephyr/libzephyr.a(settings_init.c.obj)
                                0xb2d (size before relaxing)
 .debug_str     0x0000e71a      0x2af zephyr/libzephyr.a(settings_line.c.obj)
                                0x746 (size before relaxing)
 .debug_str     0x0000e9c9      0x168 zephyr/libzephyr.a(settings_fcb.c.obj)
                                0xd5b (size before relaxing)
 .debug_str     0x0000eb31      0x243 zephyr/libzephyr.a(power.c.obj)
                                0xca1 (size before relaxing)
 .debug_str     0x0000ed74       0xae zephyr/libzephyr.a(device.c.obj)
                                0xa42 (size before relaxing)
 .debug_str     0x0000ee22       0x65 zephyr/libzephyr.a(reboot.c.obj)
                                0x6ed (size before relaxing)
 .debug_str     0x0000ee87     0x12b0 zephyr/libzephyr.a(usb_dc_nrfx.c.obj)
                               0x23b8 (size before relaxing)
 .debug_str     0x00010137      0x3fc zephyr/libzephyr.a(wdt_nrfx.c.obj)
                               0x1020 (size before relaxing)
 .debug_str     0x00010533       0xfe zephyr/libzephyr.a(sys_clock_init.c.obj)
                                0xa32 (size before relaxing)
 .debug_str     0x00010631      0x639 zephyr/libzephyr.a(nrf_rtc_timer.c.obj)
                               0x11eb (size before relaxing)
 .debug_str     0x00010c6a      0x24c zephyr/libzephyr.a(gatt_pool.c.obj)
                                0xd12 (size before relaxing)
 .debug_str     0x00010eb6      0x10c zephyr/libzephyr.a(conn_ctx.c.obj)
                                0xa2b (size before relaxing)
 .debug_str     0x00010fc2      0x675 zephyr/libzephyr.a(hids.c.obj)
                               0x1822 (size before relaxing)
 .debug_str     0x00011637      0x19d zephyr/libzephyr.a(event_manager.c.obj)
                                0xf6c (size before relaxing)
 .debug_str     0x000117d4      0x129 zephyr/libzephyr.a(nrf_cc310_platform_abort_zephyr.c.obj)
                                0x8b4 (size before relaxing)
 .debug_str     0x000118fd      0x27e zephyr/libzephyr.a(nrf_cc310_platform_mutex_zephyr.c.obj)
                                0xbc2 (size before relaxing)
 .debug_str     0x00011b7b       0x63 zephyr/arch/common/libarch__common.a(isr_tables.c.obj)
                                0x36c (size before relaxing)
 .debug_str     0x00011bde       0x3b zephyr/arch/arch/arm/core/libarch__arm__core.a(exc_exit.S.obj)
                                 0x74 (size before relaxing)
 .debug_str     0x00011c19       0xdc zephyr/arch/arch/arm/core/libarch__arm__core.a(swap.c.obj)
                                0x77e (size before relaxing)
 .debug_str     0x00011cf5       0x30 zephyr/arch/arch/arm/core/libarch__arm__core.a(swap_helper.S.obj)
                                 0x77 (size before relaxing)
 .debug_str     0x00011d25       0xec zephyr/arch/arch/arm/core/libarch__arm__core.a(irq_manage.c.obj)
                                0xb29 (size before relaxing)
 .debug_str     0x00011e11      0x167 zephyr/arch/arch/arm/core/libarch__arm__core.a(thread.c.obj)
                                0x884 (size before relaxing)
 .debug_str     0x00011f78       0x2d zephyr/arch/arch/arm/core/libarch__arm__core.a(cpu_idle.S.obj)
                                 0x74 (size before relaxing)
 .debug_str     0x00011fa5       0x2c zephyr/arch/arch/arm/core/libarch__arm__core.a(fault_s.S.obj)
                                 0x73 (size before relaxing)
 .debug_str     0x00011fd1       0xbd zephyr/arch/arch/arm/core/libarch__arm__core.a(fatal.c.obj)
                                0x8f8 (size before relaxing)
 .debug_str     0x0001208e       0x51 zephyr/arch/arch/arm/core/libarch__arm__core.a(nmi.c.obj)
                                0x6b4 (size before relaxing)
 .debug_str     0x000120df       0x31 zephyr/arch/arch/arm/core/libarch__arm__core.a(nmi_on_reset.S.obj)
                                 0x78 (size before relaxing)
 .debug_str     0x00012110      0x294 zephyr/arch/arch/arm/core/libarch__arm__core.a(prep_c.c.obj)
                                0x9d2 (size before relaxing)
 .debug_str     0x000123a4       0x30 zephyr/arch/arch/arm/core/libarch__arm__core.a(isr_wrapper.S.obj)
                                 0x77 (size before relaxing)
 .debug_str     0x000123d4       0x33 zephyr/arch/arch/arm/core/cortex_m/libarch__arm__core__cortex_m.a(reset.S.obj)
                                 0x7a (size before relaxing)
 .debug_str     0x00012407      0x129 zephyr/arch/arch/arm/core/cortex_m/libarch__arm__core__cortex_m.a(fault.c.obj)
                                0xa80 (size before relaxing)
 .debug_str     0x00012530       0x36 zephyr/arch/arch/arm/core/cortex_m/libarch__arm__core__cortex_m.a(irq_init.c.obj)
                                0x70a (size before relaxing)
 .debug_str     0x00012566       0x74 zephyr/arch/arch/arm/core/cortex_m/libarch__arm__core__cortex_m.a(thread_abort.c.obj)
                                0x7d7 (size before relaxing)
 .debug_str     0x000125da      0x11b zephyr/arch/arch/arm/core/cortex_m/mpu/libarch__arm__core__cortex_m__mpu.a(arm_core_mpu.c.obj)
                                0xa8b (size before relaxing)
 .debug_str     0x000126f5      0x280 zephyr/arch/arch/arm/core/cortex_m/mpu/libarch__arm__core__cortex_m__mpu.a(arm_mpu.c.obj)
                                0xf83 (size before relaxing)
 .debug_str     0x00012975       0x76 zephyr/lib/libc/minimal/liblib__libc__minimal.a(strtol.c.obj)
                                0x28b (size before relaxing)
 .debug_str     0x000129eb       0xc0 zephyr/lib/libc/minimal/liblib__libc__minimal.a(string.c.obj)
                                0x304 (size before relaxing)
 .debug_str     0x00012aab      0x158 zephyr/lib/libc/minimal/liblib__libc__minimal.a(prf.c.obj)
                                0x3f5 (size before relaxing)
 .debug_str     0x00012c03       0x64 zephyr/lib/libc/minimal/liblib__libc__minimal.a(sprintf.c.obj)
                                0x236 (size before relaxing)
 .debug_str     0x00012c67      0x220 zephyr/soc/arm/nordic_nrf/nrf52/libsoc__arm__nordic_nrf__nrf52.a(soc.c.obj)
                                0xdcc (size before relaxing)
 .debug_str     0x00012e87       0x4a zephyr/soc/arm/nordic_nrf/nrf52/libsoc__arm__nordic_nrf__nrf52.a(power.c.obj)
                                0xa84 (size before relaxing)
 .debug_str     0x00012ed1       0x3b zephyr/soc/arm/nordic_nrf/nrf52/libsoc__arm__nordic_nrf__nrf52.a(mpu_regions.c.obj)
                                0x345 (size before relaxing)
 .debug_str     0x00012f0c       0x85 zephyr/subsys/bluetooth/common/libsubsys__bluetooth__common.a(rpa.c.obj)
                                0x8ed (size before relaxing)
 .debug_str     0x00012f91      0x777 zephyr/subsys/bluetooth/host/libsubsys__bluetooth__host.a(hci_ecc.c.obj)
                               0x15f3 (size before relaxing)
 .debug_str     0x00013708      0x10f zephyr/subsys/bluetooth/host/libsubsys__bluetooth__host.a(settings.c.obj)
                               0x1011 (size before relaxing)
 .debug_str     0x00013817       0x75 zephyr/subsys/bluetooth/host/libsubsys__bluetooth__host.a(uuid.c.obj)
                                0x33a (size before relaxing)
 .debug_str     0x0001388c     0x17af zephyr/subsys/bluetooth/host/libsubsys__bluetooth__host.a(hci_core.c.obj)
                               0x3493 (size before relaxing)
 .debug_str     0x0001503b      0x697 zephyr/subsys/bluetooth/host/libsubsys__bluetooth__host.a(conn.c.obj)
                               0x2560 (size before relaxing)
 .debug_str     0x000156d2      0x3ad zephyr/subsys/bluetooth/host/libsubsys__bluetooth__host.a(l2cap.c.obj)
                               0x1a49 (size before relaxing)
 .debug_str     0x00015a7f      0x73b zephyr/subsys/bluetooth/host/libsubsys__bluetooth__host.a(att.c.obj)
                               0x2149 (size before relaxing)
 .debug_str     0x000161ba      0x8f8 zephyr/subsys/bluetooth/host/libsubsys__bluetooth__host.a(gatt.c.obj)
                               0x2594 (size before relaxing)
 .debug_str     0x00016ab2      0xa16 zephyr/subsys/bluetooth/host/libsubsys__bluetooth__host.a(smp.c.obj)
                               0x22d8 (size before relaxing)
 .debug_str     0x000174c8       0xac zephyr/subsys/bluetooth/host/libsubsys__bluetooth__host.a(keys.c.obj)
                               0x113e (size before relaxing)
 .debug_str     0x00017574      0x3e5 zephyr/subsys/net/libsubsys__net.a(buf.c.obj)
                               0x10b9 (size before relaxing)
 .debug_str     0x00017959      0x2c0 zephyr/subsys/usb/class/hid/libsubsys__usb__class__hid.a(core.c.obj)
                               0x1347 (size before relaxing)
 .debug_str     0x00017c19      0x102 zephyr/subsys/random/libsubsys__random.a(rand32_entropy_device.c.obj)
                                0xa72 (size before relaxing)
 .debug_str     0x00017d1b      0xfa9 zephyr/drivers/adc/libdrivers__adc.a(adc_nrfx_saadc.c.obj)
                               0x1f73 (size before relaxing)
 .debug_str     0x00018cc4      0xa27 zephyr/drivers/gpio/libdrivers__gpio.a(gpio_nrfx.c.obj)
                               0x15f7 (size before relaxing)
 .debug_str     0x000196eb      0x7e9 zephyr/drivers/pwm/libdrivers__pwm.a(pwm_nrfx.c.obj)
                               0x1518 (size before relaxing)
 .debug_str     0x00019ed4      0x521 zephyr/drivers/sensor/qdec_nrfx/libdrivers__sensor__qdec_nrfx.a(qdec_nrfx.c.obj)
                               0x1a33 (size before relaxing)
 .debug_str     0x0001a3f5      0x280 zephyr/drivers/sensor/nrf5/libdrivers__sensor__nrf5.a(temp_nrf5.c.obj)
                               0x14fa (size before relaxing)
 .debug_str     0x0001a675      0x7c5 zephyr/drivers/spi/libdrivers__spi.a(spi_nrfx_spim.c.obj)
                               0x1770 (size before relaxing)
 .debug_str     0x0001ae3a       0xe8 zephyr/drivers/flash/libdrivers__flash.a(flash_page_layout.c.obj)
                                0xa0a (size before relaxing)
 .debug_str     0x0001af22      0x316 zephyr/drivers/flash/libdrivers__flash.a(flash_ll_nrfxlib.c.obj)
                                0xe58 (size before relaxing)
 .debug_str     0x0001b238      0x1ce zephyr/drivers/entropy/libdrivers__entropy.a(entropy_ll_nrfxlib.c.obj)
                                0xed1 (size before relaxing)
 .debug_str     0x0001b406       0x53 zephyr/modules/nrf/lib/multithreading_lock/lib..__nrf__lib__multithreading_lock.a(multithreading_lock.c.obj)
                                0x84b (size before relaxing)
 .debug_str     0x0001b459      0x982 zephyr/modules/nrf/subsys/bluetooth/controller/lib..__nrf__subsys__bluetooth__controller.a(hci_driver.c.obj)
                               0x1bbf (size before relaxing)
 .debug_str     0x0001bddb       0xd6 zephyr/modules/nrf/subsys/bluetooth/controller/lib..__nrf__subsys__bluetooth__controller.a(crypto.c.obj)
                                0x9a3 (size before relaxing)
 .debug_str     0x0001beb1      0x416 zephyr/modules/nrf/drivers/sensor/pmw3360/lib..__nrf__drivers__sensor__pmw3360.a(pmw3360.c.obj)
                               0x1967 (size before relaxing)
 .debug_str     0x0001c2c7       0x37 zephyr/modules/nrf/drivers/sensor/pmw3360/lib..__nrf__drivers__sensor__pmw3360.a(pmw3360_priv.c.obj)
                                0x25e (size before relaxing)
 .debug_str     0x0001c2fe      0x33d zephyr/modules/nrf/drivers/clock_control/lib..__nrf__drivers__clock_control.a(clock_control_nrfxlib.c.obj)
                               0x1581 (size before relaxing)
 .debug_str     0x0001c63b       0x8c zephyr/modules/nrf/drivers/hw_cc310/lib..__nrf__drivers__hw_cc310.a(hw_cc310.c.obj)
                                0xbf1 (size before relaxing)
 .debug_str     0x0001c6c7      0x270 zephyr/modules/nordic/lib..__modules__hal__nordic.a(system_nrf52840.c.obj)
                                0x7d8 (size before relaxing)
 .debug_str     0x0001c937       0x57 zephyr/modules/nordic/lib..__modules__hal__nordic.a(nrfx_glue.c.obj)
                                0x6f2 (size before relaxing)
 .debug_str     0x0001c98e      0x40a zephyr/modules/nordic/lib..__modules__hal__nordic.a(nrfx_nvmc.c.obj)
                                0xb7e (size before relaxing)
 .debug_str     0x0001cd98      0x656 zephyr/modules/nordic/lib..__modules__hal__nordic.a(nrfx_pwm.c.obj)
                               0x16f1 (size before relaxing)
 .debug_str     0x0001d3ee      0x433 zephyr/modules/nordic/lib..__modules__hal__nordic.a(nrfx_qdec.c.obj)
                               0x131c (size before relaxing)
 .debug_str     0x0001d821      0x409 zephyr/modules/nordic/lib..__modules__hal__nordic.a(nrfx_spim.c.obj)
                               0x14cf (size before relaxing)
 .debug_str     0x0001dc2a      0x26a zephyr/modules/nordic/lib..__modules__hal__nordic.a(nrfx_systick.c.obj)
                                0x59a (size before relaxing)
 .debug_str     0x0001de94     0x1746 zephyr/modules/nordic/lib..__modules__hal__nordic.a(nrfx_usbd.c.obj)
                               0x2a3a (size before relaxing)
 .debug_str     0x0001f5da      0x191 zephyr/modules/nordic/lib..__modules__hal__nordic.a(nrfx_wdt.c.obj)
                                0xcd0 (size before relaxing)
 .debug_str     0x0001f76b      0x1d0 zephyr/kernel/libkernel.a(device.c.obj)
                                0xa5b (size before relaxing)
 .debug_str     0x0001f93b       0x23 zephyr/kernel/libkernel.a(errno.c.obj)
                                0x7b4 (size before relaxing)
 .debug_str     0x0001f95e       0x77 zephyr/kernel/libkernel.a(fatal.c.obj)
                                0xb16 (size before relaxing)
 .debug_str     0x0001f9d5       0xb7 zephyr/kernel/libkernel.a(idle.c.obj)
                                0x914 (size before relaxing)
 .debug_str     0x0001fa8c      0x26d zephyr/kernel/libkernel.a(init.c.obj)
                               0x1544 (size before relaxing)
 .debug_str     0x0001fcf9      0x178 zephyr/kernel/libkernel.a(mem_slab.c.obj)
                                0xc6b (size before relaxing)
 .debug_str     0x0001fe71      0x1d8 zephyr/kernel/libkernel.a(mempool.c.obj)
                                0xce4 (size before relaxing)
 .debug_str     0x00020049      0x14a zephyr/kernel/libkernel.a(mutex.c.obj)
                                0xb35 (size before relaxing)
 .debug_str     0x00020193      0x214 zephyr/kernel/libkernel.a(queue.c.obj)
                                0xcc3 (size before relaxing)
 .debug_str     0x000203a7      0x657 zephyr/kernel/libkernel.a(sched.c.obj)
                               0x11fc (size before relaxing)
 .debug_str     0x000209fe       0x49 zephyr/kernel/libkernel.a(sem.c.obj)
                                0xa23 (size before relaxing)
 .debug_str     0x00020a47       0xb9 zephyr/kernel/libkernel.a(system_work_q.c.obj)
                                0xa2f (size before relaxing)
 .debug_str     0x00020b00      0x293 zephyr/kernel/libkernel.a(thread.c.obj)
                                0xeef (size before relaxing)
 .debug_str     0x00020d93       0xaf zephyr/kernel/libkernel.a(work_q.c.obj)
                                0xc47 (size before relaxing)
 .debug_str     0x00020e42       0xa7 zephyr/kernel/libkernel.a(timeout.c.obj)
                                0xafd (size before relaxing)
 .debug_str     0x00020ee9       0xcb zephyr/kernel/libkernel.a(timer.c.obj)
                                0xbdc (size before relaxing)
 .debug_str     0x00020fb4      0x227 zephyr/kernel/libkernel.a(poll.c.obj)
                                0xf51 (size before relaxing)
 .debug_str     0x000211db       0x43 zephyr/CMakeFiles/offsets.dir/arch/arm/core/offsets/offsets.c.obj
                                0x6d4 (size before relaxing)

.debug_loc      0x00000000    0x5dc59
 *(SORT_BY_ALIGNMENT(.debug_loc))
 .debug_loc     0x00000000       0x29 app/libapp.a(main.c.obj)
 .debug_loc     0x00000029      0x156 app/libapp.a(battery_event.c.obj)
 .debug_loc     0x0000017f      0x248 app/libapp.a(ble_event.c.obj)
 .debug_loc     0x000003c7       0xa0 app/libapp.a(button_event.c.obj)
 .debug_loc     0x00000467       0xdb app/libapp.a(click_event.c.obj)
 .debug_loc     0x00000542       0xcd app/libapp.a(selector_event.c.obj)
 .debug_loc     0x0000060f      0x4be app/libapp.a(hid_event.c.obj)
 .debug_loc     0x00000acd      0x19a app/libapp.a(led_event.c.obj)
 .debug_loc     0x00000c67      0x201 app/libapp.a(config_event.c.obj)
 .debug_loc     0x00000e68       0xdb app/libapp.a(module_state_event.c.obj)
 .debug_loc     0x00000f43       0xcd app/libapp.a(motion_event.c.obj)
 .debug_loc     0x00001010       0xab app/libapp.a(wheel_event.c.obj)
 .debug_loc     0x000010bb       0xdb app/libapp.a(usb_event.c.obj)
 .debug_loc     0x00001196       0xcd app/libapp.a(hids_event.c.obj)
 .debug_loc     0x00001263      0x3ec app/libapp.a(board.c.obj)
 .debug_loc     0x0000164f     0x10fe app/libapp.a(motion_sensor.c.obj)
 .debug_loc     0x0000274d      0xf85 app/libapp.a(buttons.c.obj)
 .debug_loc     0x000036d2      0x643 app/libapp.a(click_detector.c.obj)
 .debug_loc     0x00003d15      0xd71 app/libapp.a(selector_hw.c.obj)
 .debug_loc     0x00004a86      0xdb8 app/libapp.a(wheel.c.obj)
 .debug_loc     0x0000583e      0x81c app/libapp.a(leds.c.obj)
 .debug_loc     0x0000605a      0xd38 app/libapp.a(battery_charger.c.obj)
 .debug_loc     0x00006d92      0x934 app/libapp.a(battery_meas.c.obj)
 .debug_loc     0x000076c6      0x6eb app/libapp.a(ble_state.c.obj)
 .debug_loc     0x00007db1      0x92e app/libapp.a(ble_bond.c.obj)
 .debug_loc     0x000086df      0x324 app/libapp.a(ble_latency.c.obj)
 .debug_loc     0x00008a03      0x96a app/libapp.a(ble_adv.c.obj)
 .debug_loc     0x0000936d      0x552 app/libapp.a(config.c.obj)
 .debug_loc     0x000098bf     0x16c0 app/libapp.a(hid_state.c.obj)
 .debug_loc     0x0000af7f      0x7cf app/libapp.a(usb_state.c.obj)
 .debug_loc     0x0000b74e      0x246 app/libapp.a(led_state.c.obj)
 .debug_loc     0x0000b994      0x639 app/libapp.a(led_stream.c.obj)
 .debug_loc     0x0000bfcd      0x396 app/libapp.a(power_manager.c.obj)
 .debug_loc     0x0000c363      0x33e app/libapp.a(watchdog.c.obj)
 .debug_loc     0x0000c6a1      0x21b app/libapp.a(bas.c.obj)
 .debug_loc     0x0000c8bc       0x98 app/libapp.a(dev_descr.c.obj)
 .debug_loc     0x0000c954      0x85b app/libapp.a(hids.c.obj)
 .debug_loc     0x0000d1af      0xcbe app/libapp.a(config_channel.c.obj)
 .debug_loc     0x0000de6d      0x11c zephyr/libzephyr.a(crc8_sw.c.obj)
 .debug_loc     0x0000df89      0x10b zephyr/libzephyr.a(dec.c.obj)
 .debug_loc     0x0000e094      0x210 zephyr/libzephyr.a(fdtable.c.obj)
 .debug_loc     0x0000e2a4      0x376 zephyr/libzephyr.a(hex.c.obj)
 .debug_loc     0x0000e61a     0x121c zephyr/libzephyr.a(mempool.c.obj)
 .debug_loc     0x0000f836       0x89 zephyr/libzephyr.a(thread_entry.c.obj)
 .debug_loc     0x0000f8bf      0x349 zephyr/libzephyr.a(work_q.c.obj)
 .debug_loc     0x0000fc08      0xc83 zephyr/libzephyr.a(printk.c.obj)
 .debug_loc     0x0001088b      0x2ca zephyr/libzephyr.a(utils.c.obj)
 .debug_loc     0x00010b55      0x363 zephyr/libzephyr.a(ecc_dh.c.obj)
 .debug_loc     0x00010eb8     0x53c8 zephyr/libzephyr.a(ecc.c.obj)
 .debug_loc     0x00016280      0x3fe zephyr/libzephyr.a(aes_encrypt.c.obj)
 .debug_loc     0x0001667e      0x46a zephyr/libzephyr.a(cmac_mode.c.obj)
 .debug_loc     0x00016ae8      0x11f zephyr/libzephyr.a(dis.c.obj)
 .debug_loc     0x00016c07      0x3bc zephyr/libzephyr.a(fcb_append.c.obj)
 .debug_loc     0x00016fc3      0x952 zephyr/libzephyr.a(fcb.c.obj)
 .debug_loc     0x00017915      0x299 zephyr/libzephyr.a(fcb_elem_info.c.obj)
 .debug_loc     0x00017bae      0x313 zephyr/libzephyr.a(fcb_getnext.c.obj)
 .debug_loc     0x00017ec1       0xd9 zephyr/libzephyr.a(fcb_rotate.c.obj)
 .debug_loc     0x00017f9a     0x2164 zephyr/libzephyr.a(usb_device.c.obj)
 .debug_loc     0x0001a0fe      0x726 zephyr/libzephyr.a(usb_descriptor.c.obj)
 .debug_loc     0x0001a824      0xbbe zephyr/libzephyr.a(flash_map.c.obj)
 .debug_loc     0x0001b3e2      0x589 zephyr/libzephyr.a(settings_store.c.obj)
 .debug_loc     0x0001b96b      0x7a7 zephyr/libzephyr.a(settings.c.obj)
 .debug_loc     0x0001c112       0xd1 zephyr/libzephyr.a(settings_init.c.obj)
 .debug_loc     0x0001c1e3      0xf27 zephyr/libzephyr.a(settings_line.c.obj)
 .debug_loc     0x0001d10a      0x781 zephyr/libzephyr.a(settings_fcb.c.obj)
 .debug_loc     0x0001d88b       0xae zephyr/libzephyr.a(power.c.obj)
 .debug_loc     0x0001d939      0x220 zephyr/libzephyr.a(device.c.obj)
 .debug_loc     0x0001db59       0x1e zephyr/libzephyr.a(reboot.c.obj)
 .debug_loc     0x0001db77     0x25ec zephyr/libzephyr.a(usb_dc_nrfx.c.obj)
 .debug_loc     0x00020163      0x34d zephyr/libzephyr.a(wdt_nrfx.c.obj)
 .debug_loc     0x000204b0       0x42 zephyr/libzephyr.a(sys_clock_init.c.obj)
 .debug_loc     0x000204f2      0x605 zephyr/libzephyr.a(nrf_rtc_timer.c.obj)
 .debug_loc     0x00020af7      0x83d zephyr/libzephyr.a(gatt_pool.c.obj)
 .debug_loc     0x00021334      0x3fb zephyr/libzephyr.a(conn_ctx.c.obj)
 .debug_loc     0x0002172f     0x23fc zephyr/libzephyr.a(hids.c.obj)
 .debug_loc     0x00023b2b      0x413 zephyr/libzephyr.a(event_manager.c.obj)
 .debug_loc     0x00023f3e       0x21 zephyr/libzephyr.a(nrf_cc310_platform_abort_zephyr.c.obj)
 .debug_loc     0x00023f5f      0x14f zephyr/libzephyr.a(nrf_cc310_platform_mutex_zephyr.c.obj)
 .debug_loc     0x000240ae       0x35 zephyr/arch/arch/arm/core/libarch__arm__core.a(swap.c.obj)
 .debug_loc     0x000240e3      0x199 zephyr/arch/arch/arm/core/libarch__arm__core.a(irq_manage.c.obj)
 .debug_loc     0x0002427c      0x206 zephyr/arch/arch/arm/core/libarch__arm__core.a(thread.c.obj)
 .debug_loc     0x00024482       0xf5 zephyr/arch/arch/arm/core/libarch__arm__core.a(fatal.c.obj)
 .debug_loc     0x00024577      0x4fb zephyr/arch/arch/arm/core/cortex_m/libarch__arm__core__cortex_m.a(fault.c.obj)
 .debug_loc     0x00024a72       0x5e zephyr/arch/arch/arm/core/cortex_m/libarch__arm__core__cortex_m.a(irq_init.c.obj)
 .debug_loc     0x00024ad0       0x4a zephyr/arch/arch/arm/core/cortex_m/libarch__arm__core__cortex_m.a(thread_abort.c.obj)
 .debug_loc     0x00024b1a       0x21 zephyr/arch/arch/arm/core/cortex_m/mpu/libarch__arm__core__cortex_m__mpu.a(arm_core_mpu.c.obj)
 .debug_loc     0x00024b3b      0x7a2 zephyr/arch/arch/arm/core/cortex_m/mpu/libarch__arm__core__cortex_m__mpu.a(arm_mpu.c.obj)
 .debug_loc     0x000252dd      0x2e9 zephyr/lib/libc/minimal/liblib__libc__minimal.a(strtol.c.obj)
 .debug_loc     0x000255c6      0xbf6 zephyr/lib/libc/minimal/liblib__libc__minimal.a(string.c.obj)
 .debug_loc     0x000261bc     0x36de zephyr/lib/libc/minimal/liblib__libc__minimal.a(prf.c.obj)
 .debug_loc     0x0002989a      0x1f1 zephyr/lib/libc/minimal/liblib__libc__minimal.a(sprintf.c.obj)
 .debug_loc     0x00029a8b      0x139 zephyr/soc/arm/nordic_nrf/nrf52/libsoc__arm__nordic_nrf__nrf52.a(soc.c.obj)
 .debug_loc     0x00029bc4       0x14 zephyr/soc/arm/nordic_nrf/nrf52/libsoc__arm__nordic_nrf__nrf52.a(power.c.obj)
 .debug_loc     0x00029bd8      0x118 zephyr/subsys/bluetooth/common/libsubsys__bluetooth__common.a(rpa.c.obj)
 .debug_loc     0x00029cf0      0xb68 zephyr/subsys/bluetooth/host/libsubsys__bluetooth__host.a(hci_ecc.c.obj)
 .debug_loc     0x0002a858      0x437 zephyr/subsys/bluetooth/host/libsubsys__bluetooth__host.a(settings.c.obj)
 .debug_loc     0x0002ac8f      0x39b zephyr/subsys/bluetooth/host/libsubsys__bluetooth__host.a(uuid.c.obj)
 .debug_loc     0x0002b02a     0x52b5 zephyr/subsys/bluetooth/host/libsubsys__bluetooth__host.a(hci_core.c.obj)
 .debug_loc     0x000302df     0x2d1d zephyr/subsys/bluetooth/host/libsubsys__bluetooth__host.a(conn.c.obj)
 .debug_loc     0x00032ffc      0xf4e zephyr/subsys/bluetooth/host/libsubsys__bluetooth__host.a(l2cap.c.obj)
 .debug_loc     0x00033f4a     0x318d zephyr/subsys/bluetooth/host/libsubsys__bluetooth__host.a(att.c.obj)
 .debug_loc     0x000370d7     0x657a zephyr/subsys/bluetooth/host/libsubsys__bluetooth__host.a(gatt.c.obj)
 .debug_loc     0x0003d651     0x602c zephyr/subsys/bluetooth/host/libsubsys__bluetooth__host.a(smp.c.obj)
 .debug_loc     0x0004367d      0x8dc zephyr/subsys/bluetooth/host/libsubsys__bluetooth__host.a(keys.c.obj)
 .debug_loc     0x00043f59     0x194b zephyr/subsys/net/libsubsys__net.a(buf.c.obj)
 .debug_loc     0x000458a4      0xa76 zephyr/subsys/usb/class/hid/libsubsys__usb__class__hid.a(core.c.obj)
 .debug_loc     0x0004631a      0x32a zephyr/subsys/random/libsubsys__random.a(rand32_entropy_device.c.obj)
 .debug_loc     0x00046644     0x12da zephyr/drivers/adc/libdrivers__adc.a(adc_nrfx_saadc.c.obj)
 .debug_loc     0x0004791e     0x149c zephyr/drivers/gpio/libdrivers__gpio.a(gpio_nrfx.c.obj)
 .debug_loc     0x00048dba      0xb4f zephyr/drivers/pwm/libdrivers__pwm.a(pwm_nrfx.c.obj)
 .debug_loc     0x00049909      0x604 zephyr/drivers/sensor/qdec_nrfx/libdrivers__sensor__qdec_nrfx.a(qdec_nrfx.c.obj)
 .debug_loc     0x00049f0d      0x3b7 zephyr/drivers/sensor/nrf5/libdrivers__sensor__nrf5.a(temp_nrf5.c.obj)
 .debug_loc     0x0004a2c4     0x12bd zephyr/drivers/spi/libdrivers__spi.a(spi_nrfx_spim.c.obj)
 .debug_loc     0x0004b581      0x40d zephyr/drivers/flash/libdrivers__flash.a(flash_page_layout.c.obj)
 .debug_loc     0x0004b98e      0x809 zephyr/drivers/flash/libdrivers__flash.a(flash_ll_nrfxlib.c.obj)
 .debug_loc     0x0004c197      0x29c zephyr/drivers/entropy/libdrivers__entropy.a(entropy_ll_nrfxlib.c.obj)
 .debug_loc     0x0004c433       0x58 zephyr/modules/nrf/lib/multithreading_lock/lib..__nrf__lib__multithreading_lock.a(multithreading_lock.c.obj)
 .debug_loc     0x0004c48b      0x717 zephyr/modules/nrf/subsys/bluetooth/controller/lib..__nrf__subsys__bluetooth__controller.a(hci_driver.c.obj)
 .debug_loc     0x0004cba2      0x454 zephyr/modules/nrf/subsys/bluetooth/controller/lib..__nrf__subsys__bluetooth__controller.a(crypto.c.obj)
 .debug_loc     0x0004cff6     0x1e13 zephyr/modules/nrf/drivers/sensor/pmw3360/lib..__nrf__drivers__sensor__pmw3360.a(pmw3360.c.obj)
 .debug_loc     0x0004ee09      0x424 zephyr/modules/nrf/drivers/clock_control/lib..__nrf__drivers__clock_control.a(clock_control_nrfxlib.c.obj)
 .debug_loc     0x0004f22d       0x21 zephyr/modules/nrf/drivers/hw_cc310/lib..__nrf__drivers__hw_cc310.a(hw_cc310.c.obj)
 .debug_loc     0x0004f24e      0x1bf zephyr/modules/nordic/lib..__modules__hal__nordic.a(system_nrf52840.c.obj)
 .debug_loc     0x0004f40d       0x63 zephyr/modules/nordic/lib..__modules__hal__nordic.a(nrfx_glue.c.obj)
 .debug_loc     0x0004f470      0xac2 zephyr/modules/nordic/lib..__modules__hal__nordic.a(nrfx_nvmc.c.obj)
 .debug_loc     0x0004ff32      0xf46 zephyr/modules/nordic/lib..__modules__hal__nordic.a(nrfx_pwm.c.obj)
 .debug_loc     0x00050e78      0x616 zephyr/modules/nordic/lib..__modules__hal__nordic.a(nrfx_qdec.c.obj)
 .debug_loc     0x0005148e      0xe59 zephyr/modules/nordic/lib..__modules__hal__nordic.a(nrfx_spim.c.obj)
 .debug_loc     0x000522e7       0xed zephyr/modules/nordic/lib..__modules__hal__nordic.a(nrfx_systick.c.obj)
 .debug_loc     0x000523d4     0x2453 zephyr/modules/nordic/lib..__modules__hal__nordic.a(nrfx_usbd.c.obj)
 .debug_loc     0x00054827      0x44c zephyr/modules/nordic/lib..__modules__hal__nordic.a(nrfx_wdt.c.obj)
 .debug_loc     0x00054c73      0x241 zephyr/kernel/libkernel.a(device.c.obj)
 .debug_loc     0x00054eb4       0xd9 zephyr/kernel/libkernel.a(fatal.c.obj)
 .debug_loc     0x00054f8d       0xb5 zephyr/kernel/libkernel.a(idle.c.obj)
 .debug_loc     0x00055042      0x44f zephyr/kernel/libkernel.a(init.c.obj)
 .debug_loc     0x00055491      0x4cf zephyr/kernel/libkernel.a(mem_slab.c.obj)
 .debug_loc     0x00055960      0x4b4 zephyr/kernel/libkernel.a(mempool.c.obj)
 .debug_loc     0x00055e14      0x535 zephyr/kernel/libkernel.a(mutex.c.obj)
 .debug_loc     0x00056349      0xc21 zephyr/kernel/libkernel.a(queue.c.obj)
 .debug_loc     0x00056f6a     0x20bc zephyr/kernel/libkernel.a(sched.c.obj)
 .debug_loc     0x00059026      0x310 zephyr/kernel/libkernel.a(sem.c.obj)
 .debug_loc     0x00059336       0x51 zephyr/kernel/libkernel.a(system_work_q.c.obj)
 .debug_loc     0x00059387      0xb48 zephyr/kernel/libkernel.a(thread.c.obj)
 .debug_loc     0x00059ecf      0x7e7 zephyr/kernel/libkernel.a(work_q.c.obj)
 .debug_loc     0x0005a6b6      0x99c zephyr/kernel/libkernel.a(timeout.c.obj)
 .debug_loc     0x0005b052      0x35a zephyr/kernel/libkernel.a(timer.c.obj)
 .debug_loc     0x0005b3ac     0x28ad zephyr/kernel/libkernel.a(poll.c.obj)

.debug_macinfo
 *(SORT_BY_ALIGNMENT(.debug_macinfo))

.debug_weaknames
 *(SORT_BY_ALIGNMENT(.debug_weaknames))

.debug_funcnames
 *(SORT_BY_ALIGNMENT(.debug_funcnames))

.debug_typenames
 *(SORT_BY_ALIGNMENT(.debug_typenames))

.debug_varnames
 *(SORT_BY_ALIGNMENT(.debug_varnames))

.debug_pubtypes
 *(SORT_BY_ALIGNMENT(.debug_pubtypes))

.debug_ranges   0x00000000    0x11790
 *(SORT_BY_ALIGNMENT(.debug_ranges))
 .debug_ranges  0x00000000       0x20 zephyr/arch/arch/arm/core/libarch__arm__core.a(swap_helper.S.obj)
 .debug_ranges  0x00000020       0x28 zephyr/arch/arch/arm/core/libarch__arm__core.a(cpu_idle.S.obj)
 .debug_ranges  0x00000048       0x48 app/libapp.a(main.c.obj)
 .debug_ranges  0x00000090       0x20 app/libapp.a(battery_event.c.obj)
 .debug_ranges  0x000000b0       0x58 app/libapp.a(ble_event.c.obj)
 .debug_ranges  0x00000108       0x30 app/libapp.a(button_event.c.obj)
 .debug_ranges  0x00000138       0x30 app/libapp.a(click_event.c.obj)
 .debug_ranges  0x00000168       0x30 app/libapp.a(selector_event.c.obj)
 .debug_ranges  0x00000198      0x100 app/libapp.a(hid_event.c.obj)
 .debug_ranges  0x00000298       0x48 app/libapp.a(led_event.c.obj)
 .debug_ranges  0x000002e0       0x28 app/libapp.a(config_event.c.obj)
 .debug_ranges  0x00000308       0x28 app/libapp.a(module_state_event.c.obj)
 .debug_ranges  0x00000330       0x30 app/libapp.a(motion_event.c.obj)
 .debug_ranges  0x00000360       0x10 app/libapp.a(wheel_event.c.obj)
 .debug_ranges  0x00000370       0x28 app/libapp.a(usb_event.c.obj)
 .debug_ranges  0x00000398       0x28 app/libapp.a(hids_event.c.obj)
 .debug_ranges  0x000003c0      0x158 app/libapp.a(board.c.obj)
 .debug_ranges  0x00000518      0x480 app/libapp.a(motion_sensor.c.obj)
 .debug_ranges  0x00000998      0x590 app/libapp.a(buttons.c.obj)
 .debug_ranges  0x00000f28      0x388 app/libapp.a(click_detector.c.obj)
 .debug_ranges  0x000012b0      0x410 app/libapp.a(selector_hw.c.obj)
 .debug_ranges  0x000016c0      0x378 app/libapp.a(wheel.c.obj)
 .debug_ranges  0x00001a38      0x2c0 app/libapp.a(leds.c.obj)
 .debug_ranges  0x00001cf8      0x258 app/libapp.a(battery_charger.c.obj)
 .debug_ranges  0x00001f50      0x270 app/libapp.a(battery_meas.c.obj)
 .debug_ranges  0x000021c0      0x238 app/libapp.a(ble_state.c.obj)
 .debug_ranges  0x000023f8      0x638 app/libapp.a(ble_bond.c.obj)
 .debug_ranges  0x00002a30       0x98 app/libapp.a(ble_latency.c.obj)
 .debug_ranges  0x00002ac8      0x4e8 app/libapp.a(ble_adv.c.obj)
 .debug_ranges  0x00002fb0      0x158 app/libapp.a(config.c.obj)
 .debug_ranges  0x00003108      0x608 app/libapp.a(hid_state.c.obj)
 .debug_ranges  0x00003710      0x250 app/libapp.a(usb_state.c.obj)
 .debug_ranges  0x00003960       0xf8 app/libapp.a(led_state.c.obj)
 .debug_ranges  0x00003a58      0x1a8 app/libapp.a(led_stream.c.obj)
 .debug_ranges  0x00003c00      0x1b0 app/libapp.a(power_manager.c.obj)
 .debug_ranges  0x00003db0       0xa8 app/libapp.a(watchdog.c.obj)
 .debug_ranges  0x00003e58       0x58 app/libapp.a(bas.c.obj)
 .debug_ranges  0x00003eb0       0x10 app/libapp.a(dev_descr.c.obj)
 .debug_ranges  0x00003ec0      0x278 app/libapp.a(hids.c.obj)
 .debug_ranges  0x00004138      0x198 app/libapp.a(config_channel.c.obj)
 .debug_ranges  0x000042d0       0x10 zephyr/libzephyr.a(crc8_sw.c.obj)
 .debug_ranges  0x000042e0       0x10 zephyr/libzephyr.a(dec.c.obj)
 .debug_ranges  0x000042f0       0x58 zephyr/libzephyr.a(fdtable.c.obj)
 .debug_ranges  0x00004348       0x80 zephyr/libzephyr.a(hex.c.obj)
 .debug_ranges  0x000043c8      0x440 zephyr/libzephyr.a(mempool.c.obj)
 .debug_ranges  0x00004808       0x10 zephyr/libzephyr.a(thread_entry.c.obj)
 .debug_ranges  0x00004818       0x68 zephyr/libzephyr.a(work_q.c.obj)
 .debug_ranges  0x00004880      0x128 zephyr/libzephyr.a(printk.c.obj)
 .debug_ranges  0x000049a8       0x10 zephyr/libzephyr.a(configs.c.obj)
 .debug_ranges  0x000049b8       0x48 zephyr/libzephyr.a(utils.c.obj)
 .debug_ranges  0x00004a00       0x60 zephyr/libzephyr.a(ecc_dh.c.obj)
 .debug_ranges  0x00004a60      0xa20 zephyr/libzephyr.a(ecc.c.obj)
 .debug_ranges  0x00005480       0xd8 zephyr/libzephyr.a(aes_encrypt.c.obj)
 .debug_ranges  0x00005558       0x70 zephyr/libzephyr.a(cmac_mode.c.obj)
 .debug_ranges  0x000055c8       0x18 zephyr/libzephyr.a(dis.c.obj)
 .debug_ranges  0x000055e0       0xa0 zephyr/libzephyr.a(fcb_append.c.obj)
 .debug_ranges  0x00005680       0xa0 zephyr/libzephyr.a(fcb.c.obj)
 .debug_ranges  0x00005720       0x18 zephyr/libzephyr.a(fcb_elem_info.c.obj)
 .debug_ranges  0x00005738       0x60 zephyr/libzephyr.a(fcb_getnext.c.obj)
 .debug_ranges  0x00005798       0x10 zephyr/libzephyr.a(fcb_rotate.c.obj)
 .debug_ranges  0x000057a8      0x438 zephyr/libzephyr.a(usb_device.c.obj)
 .debug_ranges  0x00005be0      0x168 zephyr/libzephyr.a(usb_descriptor.c.obj)
 .debug_ranges  0x00005d48      0x150 zephyr/libzephyr.a(flash_map.c.obj)
 .debug_ranges  0x00005e98       0xa0 zephyr/libzephyr.a(settings_store.c.obj)
 .debug_ranges  0x00005f38      0x180 zephyr/libzephyr.a(settings.c.obj)
 .debug_ranges  0x000060b8       0x18 zephyr/libzephyr.a(settings_init.c.obj)
 .debug_ranges  0x000060d0      0x118 zephyr/libzephyr.a(settings_line.c.obj)
 .debug_ranges  0x000061e8       0xe0 zephyr/libzephyr.a(settings_fcb.c.obj)
 .debug_ranges  0x000062c8       0x50 zephyr/libzephyr.a(power.c.obj)
 .debug_ranges  0x00006318      0x100 zephyr/libzephyr.a(device.c.obj)
 .debug_ranges  0x00006418       0x10 zephyr/libzephyr.a(reboot.c.obj)
 .debug_ranges  0x00006428      0x9b8 zephyr/libzephyr.a(usb_dc_nrfx.c.obj)
 .debug_ranges  0x00006de0       0x68 zephyr/libzephyr.a(wdt_nrfx.c.obj)
 .debug_ranges  0x00006e48       0x30 zephyr/libzephyr.a(sys_clock_init.c.obj)
 .debug_ranges  0x00006e78      0x150 zephyr/libzephyr.a(nrf_rtc_timer.c.obj)
 .debug_ranges  0x00006fc8      0x128 zephyr/libzephyr.a(gatt_pool.c.obj)
 .debug_ranges  0x000070f0       0x80 zephyr/libzephyr.a(conn_ctx.c.obj)
 .debug_ranges  0x00007170      0x3f0 zephyr/libzephyr.a(hids.c.obj)
 .debug_ranges  0x00007560       0x90 zephyr/libzephyr.a(event_manager.c.obj)
 .debug_ranges  0x000075f0       0x18 zephyr/libzephyr.a(nrf_cc310_platform_abort_zephyr.c.obj)
 .debug_ranges  0x00007608       0x30 zephyr/libzephyr.a(nrf_cc310_platform_mutex_zephyr.c.obj)
 .debug_ranges  0x00007638       0x10 zephyr/arch/arch/arm/core/libarch__arm__core.a(swap.c.obj)
 .debug_ranges  0x00007648       0x38 zephyr/arch/arch/arm/core/libarch__arm__core.a(irq_manage.c.obj)
 .debug_ranges  0x00007680       0x18 zephyr/arch/arch/arm/core/libarch__arm__core.a(thread.c.obj)
 .debug_ranges  0x00007698       0x20 zephyr/arch/arch/arm/core/libarch__arm__core.a(fatal.c.obj)
 .debug_ranges  0x000076b8       0x10 zephyr/arch/arch/arm/core/libarch__arm__core.a(nmi.c.obj)
 .debug_ranges  0x000076c8       0x10 zephyr/arch/arch/arm/core/libarch__arm__core.a(prep_c.c.obj)
 .debug_ranges  0x000076d8       0x78 zephyr/arch/arch/arm/core/cortex_m/libarch__arm__core__cortex_m.a(fault.c.obj)
 .debug_ranges  0x00007750       0x30 zephyr/arch/arch/arm/core/cortex_m/libarch__arm__core__cortex_m.a(irq_init.c.obj)
 .debug_ranges  0x00007780       0x10 zephyr/arch/arch/arm/core/cortex_m/libarch__arm__core__cortex_m.a(thread_abort.c.obj)
 .debug_ranges  0x00007790       0x18 zephyr/arch/arch/arm/core/cortex_m/mpu/libarch__arm__core__cortex_m__mpu.a(arm_core_mpu.c.obj)
 .debug_ranges  0x000077a8      0x188 zephyr/arch/arch/arm/core/cortex_m/mpu/libarch__arm__core__cortex_m__mpu.a(arm_mpu.c.obj)
 .debug_ranges  0x00007930       0x10 zephyr/lib/libc/minimal/liblib__libc__minimal.a(strtol.c.obj)
 .debug_ranges  0x00007940       0xf8 zephyr/lib/libc/minimal/liblib__libc__minimal.a(string.c.obj)
 .debug_ranges  0x00007a38      0x398 zephyr/lib/libc/minimal/liblib__libc__minimal.a(prf.c.obj)
 .debug_ranges  0x00007dd0       0x30 zephyr/lib/libc/minimal/liblib__libc__minimal.a(sprintf.c.obj)
 .debug_ranges  0x00007e00       0x40 zephyr/soc/arm/nordic_nrf/nrf52/libsoc__arm__nordic_nrf__nrf52.a(soc.c.obj)
 .debug_ranges  0x00007e40       0x18 zephyr/soc/arm/nordic_nrf/nrf52/libsoc__arm__nordic_nrf__nrf52.a(power.c.obj)
 .debug_ranges  0x00007e58       0x38 zephyr/subsys/bluetooth/common/libsubsys__bluetooth__common.a(rpa.c.obj)
 .debug_ranges  0x00007e90      0x168 zephyr/subsys/bluetooth/host/libsubsys__bluetooth__host.a(hci_ecc.c.obj)
 .debug_ranges  0x00007ff8       0x70 zephyr/subsys/bluetooth/host/libsubsys__bluetooth__host.a(settings.c.obj)
 .debug_ranges  0x00008068       0xa0 zephyr/subsys/bluetooth/host/libsubsys__bluetooth__host.a(uuid.c.obj)
 .debug_ranges  0x00008108      0xbc0 zephyr/subsys/bluetooth/host/libsubsys__bluetooth__host.a(hci_core.c.obj)
 .debug_ranges  0x00008cc8      0x4f8 zephyr/subsys/bluetooth/host/libsubsys__bluetooth__host.a(conn.c.obj)
 .debug_ranges  0x000091c0      0x2a8 zephyr/subsys/bluetooth/host/libsubsys__bluetooth__host.a(l2cap.c.obj)
 .debug_ranges  0x00009468      0x500 zephyr/subsys/bluetooth/host/libsubsys__bluetooth__host.a(att.c.obj)
 .debug_ranges  0x00009968      0xd70 zephyr/subsys/bluetooth/host/libsubsys__bluetooth__host.a(gatt.c.obj)
 .debug_ranges  0x0000a6d8      0xa20 zephyr/subsys/bluetooth/host/libsubsys__bluetooth__host.a(smp.c.obj)
 .debug_ranges  0x0000b0f8      0x138 zephyr/subsys/bluetooth/host/libsubsys__bluetooth__host.a(keys.c.obj)
 .debug_ranges  0x0000b230      0x608 zephyr/subsys/net/libsubsys__net.a(buf.c.obj)
 .debug_ranges  0x0000b838       0xc8 zephyr/subsys/usb/class/hid/libsubsys__usb__class__hid.a(core.c.obj)
 .debug_ranges  0x0000b900       0x28 zephyr/subsys/random/libsubsys__random.a(rand32_entropy_device.c.obj)
 .debug_ranges  0x0000b928      0x4c0 zephyr/drivers/adc/libdrivers__adc.a(adc_nrfx_saadc.c.obj)
 .debug_ranges  0x0000bde8      0x518 zephyr/drivers/gpio/libdrivers__gpio.a(gpio_nrfx.c.obj)
 .debug_ranges  0x0000c300      0x110 zephyr/drivers/pwm/libdrivers__pwm.a(pwm_nrfx.c.obj)
 .debug_ranges  0x0000c410       0xe8 zephyr/drivers/sensor/qdec_nrfx/libdrivers__sensor__qdec_nrfx.a(qdec_nrfx.c.obj)
 .debug_ranges  0x0000c4f8       0x98 zephyr/drivers/sensor/nrf5/libdrivers__sensor__nrf5.a(temp_nrf5.c.obj)
 .debug_ranges  0x0000c590      0x330 zephyr/drivers/spi/libdrivers__spi.a(spi_nrfx_spim.c.obj)
 .debug_ranges  0x0000c8c0       0x48 zephyr/drivers/flash/libdrivers__flash.a(flash_page_layout.c.obj)
 .debug_ranges  0x0000c908      0x108 zephyr/drivers/flash/libdrivers__flash.a(flash_ll_nrfxlib.c.obj)
 .debug_ranges  0x0000ca10       0x78 zephyr/drivers/entropy/libdrivers__entropy.a(entropy_ll_nrfxlib.c.obj)
 .debug_ranges  0x0000ca88       0x18 zephyr/modules/nrf/lib/multithreading_lock/lib..__nrf__lib__multithreading_lock.a(multithreading_lock.c.obj)
 .debug_ranges  0x0000caa0      0x178 zephyr/modules/nrf/subsys/bluetooth/controller/lib..__nrf__subsys__bluetooth__controller.a(hci_driver.c.obj)
 .debug_ranges  0x0000cc18       0x40 zephyr/modules/nrf/subsys/bluetooth/controller/lib..__nrf__subsys__bluetooth__controller.a(crypto.c.obj)
 .debug_ranges  0x0000cc58      0x310 zephyr/modules/nrf/drivers/sensor/pmw3360/lib..__nrf__drivers__sensor__pmw3360.a(pmw3360.c.obj)
 .debug_ranges  0x0000cf68      0x158 zephyr/modules/nrf/drivers/clock_control/lib..__nrf__drivers__clock_control.a(clock_control_nrfxlib.c.obj)
 .debug_ranges  0x0000d0c0       0x10 zephyr/modules/nrf/drivers/hw_cc310/lib..__nrf__drivers__hw_cc310.a(hw_cc310.c.obj)
 .debug_ranges  0x0000d0d0       0xc8 zephyr/modules/nordic/lib..__modules__hal__nordic.a(system_nrf52840.c.obj)
 .debug_ranges  0x0000d198       0x18 zephyr/modules/nordic/lib..__modules__hal__nordic.a(nrfx_glue.c.obj)
 .debug_ranges  0x0000d1b0      0x2b8 zephyr/modules/nordic/lib..__modules__hal__nordic.a(nrfx_nvmc.c.obj)
 .debug_ranges  0x0000d468      0x350 zephyr/modules/nordic/lib..__modules__hal__nordic.a(nrfx_pwm.c.obj)
 .debug_ranges  0x0000d7b8      0x270 zephyr/modules/nordic/lib..__modules__hal__nordic.a(nrfx_qdec.c.obj)
 .debug_ranges  0x0000da28      0x338 zephyr/modules/nordic/lib..__modules__hal__nordic.a(nrfx_spim.c.obj)
 .debug_ranges  0x0000dd60      0x178 zephyr/modules/nordic/lib..__modules__hal__nordic.a(nrfx_systick.c.obj)
 .debug_ranges  0x0000ded8     0x18f8 zephyr/modules/nordic/lib..__modules__hal__nordic.a(nrfx_usbd.c.obj)
 .debug_ranges  0x0000f7d0       0xa8 zephyr/modules/nordic/lib..__modules__hal__nordic.a(nrfx_wdt.c.obj)
 .debug_ranges  0x0000f878       0xe0 zephyr/kernel/libkernel.a(device.c.obj)
 .debug_ranges  0x0000f958       0x10 zephyr/kernel/libkernel.a(errno.c.obj)
 .debug_ranges  0x0000f968       0x58 zephyr/kernel/libkernel.a(fatal.c.obj)
 .debug_ranges  0x0000f9c0       0x38 zephyr/kernel/libkernel.a(idle.c.obj)
 .debug_ranges  0x0000f9f8      0x220 zephyr/kernel/libkernel.a(init.c.obj)
 .debug_ranges  0x0000fc18       0x88 zephyr/kernel/libkernel.a(mem_slab.c.obj)
 .debug_ranges  0x0000fca0       0x88 zephyr/kernel/libkernel.a(mempool.c.obj)
 .debug_ranges  0x0000fd28       0x98 zephyr/kernel/libkernel.a(mutex.c.obj)
 .debug_ranges  0x0000fdc0      0x1f8 zephyr/kernel/libkernel.a(queue.c.obj)
 .debug_ranges  0x0000ffb8      0x950 zephyr/kernel/libkernel.a(sched.c.obj)
 .debug_ranges  0x00010908       0x98 zephyr/kernel/libkernel.a(sem.c.obj)
 .debug_ranges  0x000109a0       0x10 zephyr/kernel/libkernel.a(system_work_q.c.obj)
 .debug_ranges  0x000109b0      0x258 zephyr/kernel/libkernel.a(thread.c.obj)
 .debug_ranges  0x00010c08       0xf0 zephyr/kernel/libkernel.a(work_q.c.obj)
 .debug_ranges  0x00010cf8      0x308 zephyr/kernel/libkernel.a(timeout.c.obj)
 .debug_ranges  0x00011000       0x80 zephyr/kernel/libkernel.a(timer.c.obj)
 .debug_ranges  0x00011080      0x700 zephyr/kernel/libkernel.a(poll.c.obj)
 .debug_ranges  0x00011780       0x10 zephyr/CMakeFiles/offsets.dir/arch/arm/core/offsets/offsets.c.obj

.debug_macro
 *(SORT_BY_ALIGNMENT(.debug_macro))

.ARM.attributes
                0x00000000       0x33
 *(SORT_BY_ALIGNMENT(.ARM.attributes))
 .ARM.attributes
                0x00000000       0x33 zephyr/CMakeFiles/zephyr_prebuilt.dir/misc/empty_file.c.obj
 .ARM.attributes
                0x00000033       0x33 app/libapp.a(main.c.obj)
 .ARM.attributes
                0x00000066       0x33 app/libapp.a(hid_report_desc.c.obj)
 .ARM.attributes
                0x00000099       0x33 app/libapp.a(battery_event.c.obj)
 .ARM.attributes
                0x000000cc       0x33 app/libapp.a(ble_event.c.obj)
 .ARM.attributes
                0x000000ff       0x33 app/libapp.a(button_event.c.obj)
 .ARM.attributes
                0x00000132       0x33 app/libapp.a(click_event.c.obj)
 .ARM.attributes
                0x00000165       0x33 app/libapp.a(selector_event.c.obj)
 .ARM.attributes
                0x00000198       0x33 app/libapp.a(hid_event.c.obj)
 .ARM.attributes
                0x000001cb       0x33 app/libapp.a(led_event.c.obj)
 .ARM.attributes
                0x000001fe       0x33 app/libapp.a(config_event.c.obj)
 .ARM.attributes
                0x00000231       0x33 app/libapp.a(module_state_event.c.obj)
 .ARM.attributes
                0x00000264       0x33 app/libapp.a(motion_event.c.obj)
 .ARM.attributes
                0x00000297       0x33 app/libapp.a(power_event.c.obj)
 .ARM.attributes
                0x000002ca       0x33 app/libapp.a(wheel_event.c.obj)
 .ARM.attributes
                0x000002fd       0x33 app/libapp.a(usb_event.c.obj)
 .ARM.attributes
                0x00000330       0x33 app/libapp.a(hids_event.c.obj)
 .ARM.attributes
                0x00000363       0x33 app/libapp.a(board.c.obj)
 .ARM.attributes
                0x00000396       0x33 app/libapp.a(motion_sensor.c.obj)
 .ARM.attributes
                0x000003c9       0x33 app/libapp.a(buttons.c.obj)
 .ARM.attributes
                0x000003fc       0x33 app/libapp.a(click_detector.c.obj)
 .ARM.attributes
                0x0000042f       0x33 app/libapp.a(selector_hw.c.obj)
 .ARM.attributes
                0x00000462       0x33 app/libapp.a(wheel.c.obj)
 .ARM.attributes
                0x00000495       0x33 app/libapp.a(leds.c.obj)
 .ARM.attributes
                0x000004c8       0x33 app/libapp.a(battery_charger.c.obj)
 .ARM.attributes
                0x000004fb       0x33 app/libapp.a(battery_meas.c.obj)
 .ARM.attributes
                0x0000052e       0x33 app/libapp.a(ble_state.c.obj)
 .ARM.attributes
                0x00000561       0x33 app/libapp.a(ble_bond.c.obj)
 .ARM.attributes
                0x00000594       0x33 app/libapp.a(ble_latency.c.obj)
 .ARM.attributes
                0x000005c7       0x33 app/libapp.a(ble_adv.c.obj)
 .ARM.attributes
                0x000005fa       0x33 app/libapp.a(config.c.obj)
 .ARM.attributes
                0x0000062d       0x33 app/libapp.a(hid_state.c.obj)
 .ARM.attributes
                0x00000660       0x33 app/libapp.a(usb_state.c.obj)
 .ARM.attributes
                0x00000693       0x33 app/libapp.a(led_state.c.obj)
 .ARM.attributes
                0x000006c6       0x33 app/libapp.a(led_stream.c.obj)
 .ARM.attributes
                0x000006f9       0x33 app/libapp.a(power_manager.c.obj)
 .ARM.attributes
                0x0000072c       0x33 app/libapp.a(watchdog.c.obj)
 .ARM.attributes
                0x0000075f       0x33 app/libapp.a(bas.c.obj)
 .ARM.attributes
                0x00000792       0x33 app/libapp.a(dev_descr.c.obj)
 .ARM.attributes
                0x000007c5       0x33 app/libapp.a(hids.c.obj)
 .ARM.attributes
                0x000007f8       0x33 app/libapp.a(config_channel.c.obj)
 .ARM.attributes
                0x0000082b       0x33 zephyr/libzephyr.a(crc32_sw.c.obj)
 .ARM.attributes
                0x0000085e       0x33 zephyr/libzephyr.a(crc16_sw.c.obj)
 .ARM.attributes
                0x00000891       0x33 zephyr/libzephyr.a(crc8_sw.c.obj)
 .ARM.attributes
                0x000008c4       0x33 zephyr/libzephyr.a(crc7_sw.c.obj)
 .ARM.attributes
                0x000008f7       0x33 zephyr/libzephyr.a(dec.c.obj)
 .ARM.attributes
                0x0000092a       0x33 zephyr/libzephyr.a(fdtable.c.obj)
 .ARM.attributes
                0x0000095d       0x33 zephyr/libzephyr.a(hex.c.obj)
 .ARM.attributes
                0x00000990       0x33 zephyr/libzephyr.a(mempool.c.obj)
 .ARM.attributes
                0x000009c3       0x33 zephyr/libzephyr.a(rb.c.obj)
 .ARM.attributes
                0x000009f6       0x33 zephyr/libzephyr.a(sem.c.obj)
 .ARM.attributes
                0x00000a29       0x33 zephyr/libzephyr.a(thread_entry.c.obj)
 .ARM.attributes
                0x00000a5c       0x33 zephyr/libzephyr.a(timeutil.c.obj)
 .ARM.attributes
                0x00000a8f       0x33 zephyr/libzephyr.a(work_q.c.obj)
 .ARM.attributes
                0x00000ac2       0x33 zephyr/libzephyr.a(printk.c.obj)
 .ARM.attributes
                0x00000af5       0x33 zephyr/libzephyr.a(configs.c.obj)
 .ARM.attributes
                0x00000b28       0x33 zephyr/libzephyr.a(validate_base_addresses.c.obj)
 .ARM.attributes
                0x00000b5b       0x33 zephyr/libzephyr.a(utils.c.obj)
 .ARM.attributes
                0x00000b8e       0x33 zephyr/libzephyr.a(ecc_dh.c.obj)
 .ARM.attributes
                0x00000bc1       0x33 zephyr/libzephyr.a(ecc.c.obj)
 .ARM.attributes
                0x00000bf4       0x33 zephyr/libzephyr.a(aes_decrypt.c.obj)
 .ARM.attributes
                0x00000c27       0x33 zephyr/libzephyr.a(aes_encrypt.c.obj)
 .ARM.attributes
                0x00000c5a       0x33 zephyr/libzephyr.a(cmac_mode.c.obj)
 .ARM.attributes
                0x00000c8d       0x33 zephyr/libzephyr.a(dis.c.obj)
 .ARM.attributes
                0x00000cc0       0x33 zephyr/libzephyr.a(fcb_append.c.obj)
 .ARM.attributes
                0x00000cf3       0x33 zephyr/libzephyr.a(fcb.c.obj)
 .ARM.attributes
                0x00000d26       0x33 zephyr/libzephyr.a(fcb_elem_info.c.obj)
 .ARM.attributes
                0x00000d59       0x33 zephyr/libzephyr.a(fcb_getnext.c.obj)
 .ARM.attributes
                0x00000d8c       0x33 zephyr/libzephyr.a(fcb_rotate.c.obj)
 .ARM.attributes
                0x00000dbf       0x33 zephyr/libzephyr.a(fcb_walk.c.obj)
 .ARM.attributes
                0x00000df2       0x33 zephyr/libzephyr.a(addr_utils.c.obj)
 .ARM.attributes
                0x00000e25       0x33 zephyr/libzephyr.a(usb_device.c.obj)
 .ARM.attributes
                0x00000e58       0x33 zephyr/libzephyr.a(usb_descriptor.c.obj)
 .ARM.attributes
                0x00000e8b       0x33 zephyr/libzephyr.a(flash_map.c.obj)
 .ARM.attributes
                0x00000ebe       0x33 zephyr/libzephyr.a(flash_map_default.c.obj)
 .ARM.attributes
                0x00000ef1       0x33 zephyr/libzephyr.a(settings_store.c.obj)
 .ARM.attributes
                0x00000f24       0x33 zephyr/libzephyr.a(settings.c.obj)
 .ARM.attributes
                0x00000f57       0x33 zephyr/libzephyr.a(settings_init.c.obj)
 .ARM.attributes
                0x00000f8a       0x33 zephyr/libzephyr.a(settings_line.c.obj)
 .ARM.attributes
                0x00000fbd       0x33 zephyr/libzephyr.a(settings_fcb.c.obj)
 .ARM.attributes
                0x00000ff0       0x33 zephyr/libzephyr.a(power.c.obj)
 .ARM.attributes
                0x00001023       0x33 zephyr/libzephyr.a(device.c.obj)
 .ARM.attributes
                0x00001056       0x33 zephyr/libzephyr.a(reboot.c.obj)
 .ARM.attributes
                0x00001089       0x33 zephyr/libzephyr.a(usb_dc_nrfx.c.obj)
 .ARM.attributes
                0x000010bc       0x33 zephyr/libzephyr.a(wdt_nrfx.c.obj)
 .ARM.attributes
                0x000010ef       0x33 zephyr/libzephyr.a(sys_clock_init.c.obj)
 .ARM.attributes
                0x00001122       0x33 zephyr/libzephyr.a(nrf_rtc_timer.c.obj)
 .ARM.attributes
                0x00001155       0x33 zephyr/libzephyr.a(gatt_pool.c.obj)
 .ARM.attributes
                0x00001188       0x33 zephyr/libzephyr.a(conn_ctx.c.obj)
 .ARM.attributes
                0x000011bb       0x33 zephyr/libzephyr.a(hids.c.obj)
 .ARM.attributes
                0x000011ee       0x33 zephyr/libzephyr.a(event_manager.c.obj)
 .ARM.attributes
                0x00001221       0x33 zephyr/libzephyr.a(nrf_cc310_platform_abort_zephyr.c.obj)
 .ARM.attributes
                0x00001254       0x33 zephyr/libzephyr.a(nrf_cc310_platform_mutex_zephyr.c.obj)
 .ARM.attributes
                0x00001287       0x33 zephyr/arch/common/libarch__common.a(isr_tables.c.obj)
 .ARM.attributes
                0x000012ba       0x33 zephyr/arch/common/libarch__common.a(sw_isr_common.c.obj)
 .ARM.attributes
                0x000012ed       0x21 zephyr/arch/arch/arm/core/libarch__arm__core.a(exc_exit.S.obj)
 .ARM.attributes
                0x0000130e       0x33 zephyr/arch/arch/arm/core/libarch__arm__core.a(swap.c.obj)
 .ARM.attributes
                0x00001341       0x21 zephyr/arch/arch/arm/core/libarch__arm__core.a(swap_helper.S.obj)
 .ARM.attributes
                0x00001362       0x33 zephyr/arch/arch/arm/core/libarch__arm__core.a(irq_manage.c.obj)
 .ARM.attributes
                0x00001395       0x33 zephyr/arch/arch/arm/core/libarch__arm__core.a(thread.c.obj)
 .ARM.attributes
                0x000013c8       0x21 zephyr/arch/arch/arm/core/libarch__arm__core.a(cpu_idle.S.obj)
 .ARM.attributes
                0x000013e9       0x21 zephyr/arch/arch/arm/core/libarch__arm__core.a(fault_s.S.obj)
 .ARM.attributes
                0x0000140a       0x33 zephyr/arch/arch/arm/core/libarch__arm__core.a(fatal.c.obj)
 .ARM.attributes
                0x0000143d       0x33 zephyr/arch/arch/arm/core/libarch__arm__core.a(nmi.c.obj)
 .ARM.attributes
                0x00001470       0x21 zephyr/arch/arch/arm/core/libarch__arm__core.a(nmi_on_reset.S.obj)
 .ARM.attributes
                0x00001491       0x33 zephyr/arch/arch/arm/core/libarch__arm__core.a(prep_c.c.obj)
 .ARM.attributes
                0x000014c4       0x21 zephyr/arch/arch/arm/core/libarch__arm__core.a(isr_wrapper.S.obj)
 .ARM.attributes
                0x000014e5       0x21 zephyr/arch/arch/arm/core/cortex_m/libarch__arm__core__cortex_m.a(vector_table.S.obj)
 .ARM.attributes
                0x00001506       0x21 zephyr/arch/arch/arm/core/cortex_m/libarch__arm__core__cortex_m.a(reset.S.obj)
 .ARM.attributes
                0x00001527       0x33 zephyr/arch/arch/arm/core/cortex_m/libarch__arm__core__cortex_m.a(fault.c.obj)
 .ARM.attributes
                0x0000155a       0x33 zephyr/arch/arch/arm/core/cortex_m/libarch__arm__core__cortex_m.a(scb.c.obj)
 .ARM.attributes
                0x0000158d       0x33 zephyr/arch/arch/arm/core/cortex_m/libarch__arm__core__cortex_m.a(irq_init.c.obj)
 .ARM.attributes
                0x000015c0       0x33 zephyr/arch/arch/arm/core/cortex_m/libarch__arm__core__cortex_m.a(thread_abort.c.obj)
 .ARM.attributes
                0x000015f3       0x33 zephyr/arch/arch/arm/core/cortex_m/mpu/libarch__arm__core__cortex_m__mpu.a(arm_core_mpu.c.obj)
 .ARM.attributes
                0x00001626       0x33 zephyr/arch/arch/arm/core/cortex_m/mpu/libarch__arm__core__cortex_m__mpu.a(arm_mpu.c.obj)
 .ARM.attributes
                0x00001659       0x33 zephyr/lib/libc/minimal/liblib__libc__minimal.a(atoi.c.obj)
 .ARM.attributes
                0x0000168c       0x33 zephyr/lib/libc/minimal/liblib__libc__minimal.a(strtol.c.obj)
 .ARM.attributes
                0x000016bf       0x33 zephyr/lib/libc/minimal/liblib__libc__minimal.a(strtoul.c.obj)
 .ARM.attributes
                0x000016f2       0x33 zephyr/lib/libc/minimal/liblib__libc__minimal.a(malloc.c.obj)
 .ARM.attributes
                0x00001725       0x33 zephyr/lib/libc/minimal/liblib__libc__minimal.a(bsearch.c.obj)
 .ARM.attributes
                0x00001758       0x33 zephyr/lib/libc/minimal/liblib__libc__minimal.a(exit.c.obj)
 .ARM.attributes
                0x0000178b       0x33 zephyr/lib/libc/minimal/liblib__libc__minimal.a(strncasecmp.c.obj)
 .ARM.attributes
                0x000017be       0x33 zephyr/lib/libc/minimal/liblib__libc__minimal.a(strstr.c.obj)
 .ARM.attributes
                0x000017f1       0x33 zephyr/lib/libc/minimal/liblib__libc__minimal.a(string.c.obj)
 .ARM.attributes
                0x00001824       0x33 zephyr/lib/libc/minimal/liblib__libc__minimal.a(strspn.c.obj)
 .ARM.attributes
                0x00001857       0x33 zephyr/lib/libc/minimal/liblib__libc__minimal.a(prf.c.obj)
 .ARM.attributes
                0x0000188a       0x33 zephyr/lib/libc/minimal/liblib__libc__minimal.a(stdout_console.c.obj)
 .ARM.attributes
                0x000018bd       0x33 zephyr/lib/libc/minimal/liblib__libc__minimal.a(sprintf.c.obj)
 .ARM.attributes
                0x000018f0       0x33 zephyr/lib/libc/minimal/liblib__libc__minimal.a(fprintf.c.obj)
 .ARM.attributes
                0x00001923       0x33 zephyr/lib/libc/minimal/liblib__libc__minimal.a(gmtime.c.obj)
 .ARM.attributes
                0x00001956       0x33 zephyr/lib/posix/liblib__posix.a(pthread_common.c.obj)
 .ARM.attributes
                0x00001989       0x33 zephyr/soc/arm/nordic_nrf/nrf52/libsoc__arm__nordic_nrf__nrf52.a(soc.c.obj)
 .ARM.attributes
                0x000019bc       0x33 zephyr/soc/arm/nordic_nrf/nrf52/libsoc__arm__nordic_nrf__nrf52.a(power.c.obj)
 .ARM.attributes
                0x000019ef       0x33 zephyr/soc/arm/nordic_nrf/nrf52/libsoc__arm__nordic_nrf__nrf52.a(mpu_regions.c.obj)
 .ARM.attributes
                0x00001a22       0x33 zephyr/subsys/bluetooth/common/libsubsys__bluetooth__common.a(dummy.c.obj)
 .ARM.attributes
                0x00001a55       0x33 zephyr/subsys/bluetooth/common/libsubsys__bluetooth__common.a(log.c.obj)
 .ARM.attributes
                0x00001a88       0x33 zephyr/subsys/bluetooth/common/libsubsys__bluetooth__common.a(rpa.c.obj)
 .ARM.attributes
                0x00001abb       0x33 zephyr/subsys/bluetooth/host/libsubsys__bluetooth__host.a(hci_ecc.c.obj)
 .ARM.attributes
                0x00001aee       0x33 zephyr/subsys/bluetooth/host/libsubsys__bluetooth__host.a(settings.c.obj)
 .ARM.attributes
                0x00001b21       0x33 zephyr/subsys/bluetooth/host/libsubsys__bluetooth__host.a(uuid.c.obj)
 .ARM.attributes
                0x00001b54       0x33 zephyr/subsys/bluetooth/host/libsubsys__bluetooth__host.a(hci_core.c.obj)
 .ARM.attributes
                0x00001b87       0x33 zephyr/subsys/bluetooth/host/libsubsys__bluetooth__host.a(conn.c.obj)
 .ARM.attributes
                0x00001bba       0x33 zephyr/subsys/bluetooth/host/libsubsys__bluetooth__host.a(l2cap.c.obj)
 .ARM.attributes
                0x00001bed       0x33 zephyr/subsys/bluetooth/host/libsubsys__bluetooth__host.a(att.c.obj)
 .ARM.attributes
                0x00001c20       0x33 zephyr/subsys/bluetooth/host/libsubsys__bluetooth__host.a(gatt.c.obj)
 .ARM.attributes
                0x00001c53       0x33 zephyr/subsys/bluetooth/host/libsubsys__bluetooth__host.a(smp.c.obj)
 .ARM.attributes
                0x00001c86       0x33 zephyr/subsys/bluetooth/host/libsubsys__bluetooth__host.a(keys.c.obj)
 .ARM.attributes
                0x00001cb9       0x33 zephyr/subsys/net/libsubsys__net.a(buf.c.obj)
 .ARM.attributes
                0x00001cec       0x33 zephyr/subsys/usb/class/hid/libsubsys__usb__class__hid.a(core.c.obj)
 .ARM.attributes
                0x00001d1f       0x33 zephyr/subsys/random/libsubsys__random.a(rand32_entropy_device.c.obj)
 .ARM.attributes
                0x00001d52       0x33 zephyr/drivers/adc/libdrivers__adc.a(adc_nrfx_saadc.c.obj)
 .ARM.attributes
                0x00001d85       0x33 zephyr/drivers/gpio/libdrivers__gpio.a(gpio_nrfx.c.obj)
 .ARM.attributes
                0x00001db8       0x33 zephyr/drivers/pwm/libdrivers__pwm.a(pwm_nrfx.c.obj)
 .ARM.attributes
                0x00001deb       0x33 zephyr/drivers/sensor/qdec_nrfx/libdrivers__sensor__qdec_nrfx.a(qdec_nrfx.c.obj)
 .ARM.attributes
                0x00001e1e       0x33 zephyr/drivers/sensor/nrf5/libdrivers__sensor__nrf5.a(temp_nrf5.c.obj)
 .ARM.attributes
                0x00001e51       0x33 zephyr/drivers/spi/libdrivers__spi.a(spi_nrfx_spim.c.obj)
 .ARM.attributes
                0x00001e84       0x33 zephyr/drivers/flash/libdrivers__flash.a(flash_page_layout.c.obj)
 .ARM.attributes
                0x00001eb7       0x33 zephyr/drivers/flash/libdrivers__flash.a(flash_ll_nrfxlib.c.obj)
 .ARM.attributes
                0x00001eea       0x33 zephyr/drivers/entropy/libdrivers__entropy.a(entropy_ll_nrfxlib.c.obj)
 .ARM.attributes
                0x00001f1d       0x33 zephyr/modules/nrf/lib/multithreading_lock/lib..__nrf__lib__multithreading_lock.a(multithreading_lock.c.obj)
 .ARM.attributes
                0x00001f50       0x33 zephyr/modules/nrf/subsys/bluetooth/controller/lib..__nrf__subsys__bluetooth__controller.a(hci_driver.c.obj)
 .ARM.attributes
                0x00001f83       0x33 zephyr/modules/nrf/subsys/bluetooth/controller/lib..__nrf__subsys__bluetooth__controller.a(crypto.c.obj)
 .ARM.attributes
                0x00001fb6       0x33 zephyr/modules/nrf/drivers/sensor/pmw3360/lib..__nrf__drivers__sensor__pmw3360.a(pmw3360.c.obj)
 .ARM.attributes
                0x00001fe9       0x33 zephyr/modules/nrf/drivers/sensor/pmw3360/lib..__nrf__drivers__sensor__pmw3360.a(pmw3360_priv.c.obj)
 .ARM.attributes
                0x0000201c       0x33 zephyr/modules/nrf/drivers/clock_control/lib..__nrf__drivers__clock_control.a(clock_control_nrfxlib.c.obj)
 .ARM.attributes
                0x0000204f       0x33 zephyr/modules/nrf/drivers/hw_cc310/lib..__nrf__drivers__hw_cc310.a(hw_cc310.c.obj)
 .ARM.attributes
                0x00002082       0x33 zephyr/modules/nordic/lib..__modules__hal__nordic.a(system_nrf52840.c.obj)
 .ARM.attributes
                0x000020b5       0x33 zephyr/modules/nordic/lib..__modules__hal__nordic.a(nrfx_glue.c.obj)
 .ARM.attributes
                0x000020e8       0x33 zephyr/modules/nordic/lib..__modules__hal__nordic.a(nrfx_nvmc.c.obj)
 .ARM.attributes
                0x0000211b       0x33 zephyr/modules/nordic/lib..__modules__hal__nordic.a(nrfx_pwm.c.obj)
 .ARM.attributes
                0x0000214e       0x33 zephyr/modules/nordic/lib..__modules__hal__nordic.a(nrfx_qdec.c.obj)
 .ARM.attributes
                0x00002181       0x33 zephyr/modules/nordic/lib..__modules__hal__nordic.a(nrfx_spim.c.obj)
 .ARM.attributes
                0x000021b4       0x33 zephyr/modules/nordic/lib..__modules__hal__nordic.a(nrfx_systick.c.obj)
 .ARM.attributes
                0x000021e7       0x33 zephyr/modules/nordic/lib..__modules__hal__nordic.a(nrfx_usbd.c.obj)
 .ARM.attributes
                0x0000221a       0x33 zephyr/modules/nordic/lib..__modules__hal__nordic.a(nrfx_wdt.c.obj)
 .ARM.attributes
                0x0000224d       0x33 zephyr/kernel/libkernel.a(device.c.obj)
 .ARM.attributes
                0x00002280       0x33 zephyr/kernel/libkernel.a(errno.c.obj)
 .ARM.attributes
                0x000022b3       0x33 zephyr/kernel/libkernel.a(fatal.c.obj)
 .ARM.attributes
                0x000022e6       0x33 zephyr/kernel/libkernel.a(idle.c.obj)
 .ARM.attributes
                0x00002319       0x33 zephyr/kernel/libkernel.a(init.c.obj)
 .ARM.attributes
                0x0000234c       0x33 zephyr/kernel/libkernel.a(mem_slab.c.obj)
 .ARM.attributes
                0x0000237f       0x33 zephyr/kernel/libkernel.a(mempool.c.obj)
 .ARM.attributes
                0x000023b2       0x33 zephyr/kernel/libkernel.a(mutex.c.obj)
 .ARM.attributes
                0x000023e5       0x33 zephyr/kernel/libkernel.a(queue.c.obj)
 .ARM.attributes
                0x00002418       0x33 zephyr/kernel/libkernel.a(sched.c.obj)
 .ARM.attributes
                0x0000244b       0x33 zephyr/kernel/libkernel.a(sem.c.obj)
 .ARM.attributes
                0x0000247e       0x33 zephyr/kernel/libkernel.a(system_work_q.c.obj)
 .ARM.attributes
                0x000024b1       0x33 zephyr/kernel/libkernel.a(thread.c.obj)
 .ARM.attributes
                0x000024e4       0x33 zephyr/kernel/libkernel.a(work_q.c.obj)
 .ARM.attributes
                0x00002517       0x33 zephyr/kernel/libkernel.a(timeout.c.obj)
 .ARM.attributes
                0x0000254a       0x33 zephyr/kernel/libkernel.a(timer.c.obj)
 .ARM.attributes
                0x0000257d       0x33 zephyr/kernel/libkernel.a(poll.c.obj)
 .ARM.attributes
                0x000025b0       0x33 zephyr/CMakeFiles/offsets.dir/arch/arm/core/offsets/offsets.c.obj
 .ARM.attributes
                0x000025e3       0x1e c:/program files (x86)/gnu tools arm embedded/7 2018-q2-update/bin/../lib/gcc/arm-none-eabi/7.3.1/thumb/v7e-m\libgcc.a(_aeabi_ldivmod.o)
 .ARM.attributes
                0x00002601       0x1e c:/program files (x86)/gnu tools arm embedded/7 2018-q2-update/bin/../lib/gcc/arm-none-eabi/7.3.1/thumb/v7e-m\libgcc.a(_aeabi_uldivmod.o)
 .ARM.attributes
                0x0000261f       0x2e c:/program files (x86)/gnu tools arm embedded/7 2018-q2-update/bin/../lib/gcc/arm-none-eabi/7.3.1/thumb/v7e-m\libgcc.a(_udivmoddi4.o)
 .ARM.attributes
                0x0000264d       0x1e c:/program files (x86)/gnu tools arm embedded/7 2018-q2-update/bin/../lib/gcc/arm-none-eabi/7.3.1/thumb/v7e-m\libgcc.a(_dvmd_tls.o)
 .ARM.attributes
                0x0000266b       0x33 C:/ncs.sojkk/nrfxlib/crypto/nrf_cc310_platform/lib/cortex-m4/soft-float/no-interrupts/libnrf_cc310_platform_0.9.1.a(nrf_cc310_platform.c.obj)
 .ARM.attributes
                0x0000269e       0x33 C:/ncs.sojkk/nrfxlib/crypto/nrf_cc310_platform/lib/cortex-m4/soft-float/no-interrupts/libnrf_cc310_platform_0.9.1.a(nrf_cc310_platform_abort.c.obj)
 .ARM.attributes
                0x000026d1       0x33 C:/ncs.sojkk/nrfxlib/crypto/nrf_cc310_platform/lib/cortex-m4/soft-float/no-interrupts/libnrf_cc310_platform_0.9.1.a(nrf_cc310_platform_mutex.c.obj)
 .ARM.attributes
                0x00002704       0x33 C:/ncs.sojkk/nrfxlib/crypto/nrf_cc310_platform/lib/cortex-m4/soft-float/no-interrupts/libnrf_cc310_platform_0.9.1.a(cc_lib.c.obj)
 .ARM.attributes
                0x00002737       0x33 C:/ncs.sojkk/nrfxlib/crypto/nrf_cc310_platform/lib/cortex-m4/soft-float/no-interrupts/libnrf_cc310_platform_0.9.1.a(cc_hal.c.obj)
 .ARM.attributes
                0x0000276a       0x33 C:/ncs.sojkk/nrfxlib/crypto/nrf_cc310_platform/lib/cortex-m4/soft-float/no-interrupts/libnrf_cc310_platform_0.9.1.a(cc_pal.c.obj)
 .ARM.attributes
                0x0000279d       0x33 C:/ncs.sojkk/nrfxlib/crypto/nrf_cc310_platform/lib/cortex-m4/soft-float/no-interrupts/libnrf_cc310_platform_0.9.1.a(cc_pal_dma.c.obj)
 .ARM.attributes
                0x000027d0       0x33 C:/ncs.sojkk/nrfxlib/crypto/nrf_cc310_platform/lib/cortex-m4/soft-float/no-interrupts/libnrf_cc310_platform_0.9.1.a(cc_pal_interrupt_ctrl.c.obj)
 .ARM.attributes
                0x00002803       0x33 C:/ncs.sojkk/nrfxlib/crypto/nrf_cc310_platform/lib/cortex-m4/soft-float/no-interrupts/libnrf_cc310_platform_0.9.1.a(cc_pal_mutex.c.obj)
 .ARM.attributes
                0x00002836       0x33 C:/ncs.sojkk/nrfxlib/crypto/nrf_cc310_platform/lib/cortex-m4/soft-float/no-interrupts/libnrf_cc310_platform_0.9.1.a(cc_pal_pm.c.obj)
 .ARM.attributes
                0x00002869       0x33 C:/ncs.sojkk/nrfxlib/crypto/nrf_cc310_platform/lib/cortex-m4/soft-float/no-interrupts/libnrf_cc310_platform_0.9.1.a(llf_rnd_trng90b.c.obj)
 .ARM.attributes
                0x0000289c       0x33 C:/ncs.sojkk/nrfxlib/crypto/nrf_cc310_platform/lib/cortex-m4/soft-float/no-interrupts/libnrf_cc310_platform_0.9.1.a(cc_rng_plat.c.obj)
 .ARM.attributes
                0x000028cf       0x33 C:/ncs.sojkk/nrfxlib/crypto/nrf_cc310_platform/lib/cortex-m4/soft-float/no-interrupts/libnrf_cc310_platform_0.9.1.a(cc_pal_mem.c.obj)
 .ARM.attributes
                0x00002902       0x33 C:/ncs.sojkk/nrfxlib/crypto/nrf_cc310_platform/lib/cortex-m4/soft-float/no-interrupts/libnrf_cc310_platform_0.9.1.a(cc_pal_trng.c.obj)
 .ARM.attributes
                0x00002935       0x33 C:/ncs.sojkk/nrfxlib/crypto/nrf_cc310_platform/lib/cortex-m4/soft-float/no-interrupts/libnrf_cc310_platform_0.9.1.a(llf_rnd.c.obj)
 .ARM.attributes
                0x00002968      0x188 C:/ncs.sojkk/nrfxlib/ble_controller/lib/cortex-m4/soft-float/libble_controller_s140.a(libble_controller_debug_s140_soft_nrf52__obfuscated.elf)
 *(SORT_BY_ALIGNMENT(.gnu.attributes))

.last_section   0x00046f5a        0x0
                0x00046f5a                _flash_used = (LOADADDR (.last_section) - _image_rom_start)
LOAD app/libapp.a
LOAD zephyr/libzephyr.a
LOAD zephyr/arch/common/libarch__common.a
LOAD zephyr/arch/arch/arm/core/libarch__arm__core.a
LOAD zephyr/arch/arch/arm/core/cortex_m/libarch__arm__core__cortex_m.a
LOAD zephyr/arch/arch/arm/core/cortex_m/mpu/libarch__arm__core__cortex_m__mpu.a
LOAD zephyr/lib/libc/minimal/liblib__libc__minimal.a
LOAD zephyr/lib/posix/liblib__posix.a
LOAD zephyr/soc/arm/nordic_nrf/nrf52/libsoc__arm__nordic_nrf__nrf52.a
LOAD zephyr/subsys/bluetooth/common/libsubsys__bluetooth__common.a
LOAD zephyr/subsys/bluetooth/host/libsubsys__bluetooth__host.a
LOAD zephyr/subsys/net/libsubsys__net.a
LOAD zephyr/subsys/usb/class/hid/libsubsys__usb__class__hid.a
LOAD zephyr/subsys/random/libsubsys__random.a
LOAD zephyr/drivers/adc/libdrivers__adc.a
LOAD zephyr/drivers/gpio/libdrivers__gpio.a
LOAD zephyr/drivers/pwm/libdrivers__pwm.a
LOAD zephyr/drivers/sensor/qdec_nrfx/libdrivers__sensor__qdec_nrfx.a
LOAD zephyr/drivers/sensor/nrf5/libdrivers__sensor__nrf5.a
LOAD zephyr/drivers/spi/libdrivers__spi.a
LOAD zephyr/drivers/flash/libdrivers__flash.a
LOAD zephyr/drivers/entropy/libdrivers__entropy.a
LOAD zephyr/modules/nrf/lib/multithreading_lock/lib..__nrf__lib__multithreading_lock.a
LOAD zephyr/modules/nrf/subsys/bluetooth/controller/lib..__nrf__subsys__bluetooth__controller.a
LOAD zephyr/modules/nrf/drivers/sensor/pmw3360/lib..__nrf__drivers__sensor__pmw3360.a
LOAD zephyr/modules/nrf/drivers/clock_control/lib..__nrf__drivers__clock_control.a
LOAD zephyr/modules/nrf/drivers/hw_cc310/lib..__nrf__drivers__hw_cc310.a
LOAD zephyr/modules/nordic/lib..__modules__hal__nordic.a
LOAD zephyr/kernel/libkernel.a
LOAD zephyr/CMakeFiles/offsets.dir/arch/arm/core/offsets/offsets.c.obj
LOAD c:/program files (x86)/gnu tools arm embedded/7 2018-q2-update/bin/../lib/gcc/arm-none-eabi/7.3.1/thumb/v7e-m\libgcc.a
LOAD C:/ncs.sojkk/nrfxlib/crypto/nrf_cc310_platform/lib/cortex-m4/soft-float/no-interrupts/libnrf_cc310_platform_0.9.1.a
LOAD C:/ncs.sojkk/nrfxlib/ble_controller/lib/cortex-m4/soft-float/libble_controller_s140.a
OUTPUT(zephyr\zephyr_prebuilt.elf elf32-littlearm)
